(dp0
S'/content/1432-881X?sortorder=asc&p_o=487'
p1
(lp2
I12
aI13
aI14
aI15
aI16
aI17
asS'/content/1432-881X?sortorder=asc&p_o=217'
p3
(lp4
I72
aI73
aI74
aI75
aI76
aI77
asS'/content/1432-881X?sortorder=asc&p_o=165'
p5
(lp6
I84
aI85
aI86
aI87
aI88
aI89
asS'/content/1432-881X?sortorder=asc&p_o=38'
p7
(lp8
I108
aI109
aI110
aI111
aI112
aI113
asS'/content/1432-881X?sortorder=asc&p_o=416'
p9
(lp10
I30
aI31
aI32
aI33
aI34
aI35
asS'/content/1432-881X?sortorder=asc&p_o=318'
p11
(lp12
I54
aI55
aI56
aI57
aI58
aI59
asS'/content/1432-881X?sortorder=asc&p_o=283'
p13
(lp14
I60
aI61
aI62
aI63
aI64
aI65
asS'/content/1432-881X?sortorder=asc&p_o=17'
p15
(lp16
I114
aI115
aI116
aI117
aI118
aI119
asS'/content/1432-881X?sortorder=asc&p_o=192'
p17
(lp18
I78
aI79
aI80
aI81
aI82
aI83
asS'/content/1432-881X?sortorder=asc&p_o=115'
p19
(lp20
I90
aI91
aI92
aI93
aI94
aI95
asS'/content/1432-881X?sortorder=asc&p_o=344'
p21
(lp22
I48
aI49
aI50
aI51
aI52
aI53
asS'/content/1432-881X?sortorder=asc&p_o=250'
p23
(lp24
I66
aI67
aI68
aI69
aI70
aI71
asS'/content/1432-881X'
p25
(lp26
I120
aI121
aI122
aI123
aI124
aI125
aI126
asS'/content/1432-881X?sortorder=asc&p_o=95'
p27
(lp28
I96
aI97
aI98
aI99
aI100
aI101
asS'/content/1432-881X?sortorder=asc&p_o=517'
p29
(lp30
I6
aI7
aI8
aI9
aI10
aI11
asS'/content/1432-881X?sortorder=asc&p_o=440'
p31
(lp32
I24
aI25
aI26
aI27
aI28
aI29
asS'/content/1432-881X?sortorder=asc&p_o=68'
p33
(lp34
I102
aI103
aI104
aI105
aI106
aI107
asS'/content/1432-881X?sortorder=asc&p_o=392'
p35
(lp36
I36
aI37
aI38
aI39
aI40
aI41
asS'/content/1432-881X?sortorder=asc&p_o=368'
p37
(lp38
I42
aI43
aI44
aI45
aI46
aI47
asS'/content/1432-881X?sortorder=asc&p_o=463'
p39
(lp40
I18
aI19
aI20
aI21
aI22
aI23
asS'/content/1432-881X?sortorder=asc&p_o=547'
p41
(lp42
I1
aI2
aI3
aI4
aI5
as.