(ibasisset
BasisSet
p0
(dp1
S'basisDictionary'
p2
(dp3
S'C'
p4
(lp5
(ibasisset
Shell
p6
(dp7
S'angularMomentum'
p8
S'S'
p9
sS'exponents'
p10
(lp11
F96770.0
aF14500.0
aF3300.0
aF935.79999999999995
aF306.19999999999999
aF111.3
aF43.899999999999999
aF18.399999999999999
aF8.0540000000000003
aF3.637
asS'coefficients'
p12
(lp13
(lp14
F2.5000000000000001e-05
aF0.00019000000000000001
aF0.001
aF0.0041830000000000001
aF0.014859000000000001
aF0.045301000000000001
aF0.116504
aF0.24024899999999999
aF0.35879899999999998
aF0.29394100000000001
aa(lp15
F-5.0000000000000004e-06
aF-4.1e-05
aF-0.000213
aF-0.00089700000000000001
aF-0.0031870000000000002
aF-0.0099609999999999994
aF-0.026374999999999999
aF-0.060000999999999999
aF-0.106825
aF-0.14416599999999999
aasS'atom'
p16
S' C'
p17
sba(ibasisset
Shell
p18
(dp19
g8
S'S'
p20
sg10
(lp21
F1.6559999999999999
asg12
(lp22
(lp23
F1.0
aasg16
S' C'
p24
sba(ibasisset
Shell
p25
(dp26
g8
S'S'
p27
sg10
(lp28
F0.63329999999999997
asg12
(lp29
(lp30
F1.0
aasg16
S' C'
p31
sba(ibasisset
Shell
p32
(dp33
g8
S'S'
p34
sg10
(lp35
F0.2545
asg12
(lp36
(lp37
F1.0
aasg16
S' C'
p38
sba(ibasisset
Shell
p39
(dp40
g8
S'S'
p41
sg10
(lp42
F0.1019
asg12
(lp43
(lp44
F1.0
aasg16
S' C'
p45
sba(ibasisset
Shell
p46
(dp47
g8
S'P'
p48
sg10
(lp49
F101.8
aF24.039999999999999
aF7.5709999999999997
aF2.7320000000000002
asg12
(lp50
(lp51
F0.00089099999999999997
aF0.0069760000000000004
aF0.031669000000000003
aF0.104006
aasg16
S' C'
p52
sba(ibasisset
Shell
p53
(dp54
g8
S'P'
p55
sg10
(lp56
F1.085
asg12
(lp57
(lp58
F1.0
aasg16
S' C'
p59
sba(ibasisset
Shell
p60
(dp61
g8
S'P'
p62
sg10
(lp63
F0.4496
asg12
(lp64
(lp65
F1.0
aasg16
S' C'
p66
sba(ibasisset
Shell
p67
(dp68
g8
S'P'
p69
sg10
(lp70
F0.18759999999999999
asg12
(lp71
(lp72
F1.0
aasg16
S' C'
p73
sba(ibasisset
Shell
p74
(dp75
g8
S'P'
p76
sg10
(lp77
F0.076060000000000003
asg12
(lp78
(lp79
F1.0
aasg16
S' C'
p80
sba(ibasisset
Shell
p81
(dp82
g8
S'D'
p83
sg10
(lp84
F3.1339999999999999
asg12
(lp85
(lp86
F1.0
aasg16
S' C'
p87
sba(ibasisset
Shell
p88
(dp89
g8
S'D'
p90
sg10
(lp91
F1.2330000000000001
asg12
(lp92
(lp93
F1.0
aasg16
S' C'
p94
sba(ibasisset
Shell
p95
(dp96
g8
S'D'
p97
sg10
(lp98
F0.48499999999999999
asg12
(lp99
(lp100
F1.0
aasg16
S' C'
p101
sba(ibasisset
Shell
p102
(dp103
g8
S'D'
p104
sg10
(lp105
F0.191
asg12
(lp106
(lp107
F1.0
aasg16
S' C'
p108
sba(ibasisset
Shell
p109
(dp110
g8
S'F'
p111
sg10
(lp112
F2.0059999999999998
asg12
(lp113
(lp114
F1.0
aasg16
S' C'
p115
sba(ibasisset
Shell
p116
(dp117
g8
S'F'
p118
sg10
(lp119
F0.83799999999999997
asg12
(lp120
(lp121
F1.0
aasg16
S' C'
p122
sba(ibasisset
Shell
p123
(dp124
g8
S'F'
p125
sg10
(lp126
F0.34999999999999998
asg12
(lp127
(lp128
F1.0
aasg16
S' C'
p129
sba(ibasisset
Shell
p130
(dp131
g8
S'G'
p132
sg10
(lp133
F1.7529999999999999
asg12
(lp134
(lp135
F1.0
aasg16
S' C'
p136
sba(ibasisset
Shell
p137
(dp138
g8
S'G'
p139
sg10
(lp140
F0.67800000000000005
asg12
(lp141
(lp142
F1.0
aasg16
S' C'
p143
sba(ibasisset
Shell
p144
(dp145
g8
S'H'
p146
sg10
(lp147
F1.2589999999999999
asg12
(lp148
(lp149
F1.0
aasg16
S' C'
p150
sba(ibasisset
Shell
p151
(dp152
g8
S'S'
p153
sg10
(lp154
F0.039399999999999998
asg12
(lp155
(lp156
F1.0
aasg16
S' C'
p157
sba(ibasisset
Shell
p158
(dp159
g8
S'P'
p160
sg10
(lp161
F0.027199999999999998
asg12
(lp162
(lp163
F1.0
aasg16
S' C'
p164
sba(ibasisset
Shell
p165
(dp166
g8
S'D'
p167
sg10
(lp168
F0.070099999999999996
asg12
(lp169
(lp170
F1.0
aasg16
S' C'
p171
sba(ibasisset
Shell
p172
(dp173
g8
S'F'
p174
sg10
(lp175
F0.13800000000000001
asg12
(lp176
(lp177
F1.0
aasg16
S' C'
p178
sba(ibasisset
Shell
p179
(dp180
g8
S'G'
p181
sg10
(lp182
F0.31900000000000001
asg12
(lp183
(lp184
F1.0
aasg16
S' C'
p185
sba(ibasisset
Shell
p186
(dp187
g8
S'H'
p188
sg10
(lp189
F0.58599999999999997
asg12
(lp190
(lp191
F1.0
aasg16
S' C'
p192
sbasS'F'
p193
(lp194
(ibasisset
Shell
p195
(dp196
g8
S'S'
p197
sg10
(lp198
F211400.0
aF31660.0
aF7202.0
aF2040.0
aF666.39999999999998
aF242.0
aF95.530000000000001
aF40.229999999999997
aF17.719999999999999
aF8.0050000000000008
asg12
(lp199
(lp200
F2.5999999999999998e-05
aF0.00020100000000000001
aF0.0010560000000000001
aF0.0044320000000000002
aF0.015765999999999999
aF0.048112000000000002
aF0.12323199999999999
aF0.25151899999999999
aF0.36452499999999999
aF0.27976600000000001
aa(lp201
F-6.0000000000000002e-06
aF-4.6999999999999997e-05
aF-0.00024399999999999999
aF-0.001031
aF-0.0036830000000000001
aF-0.011513000000000001
aF-0.030662999999999999
aF-0.069571999999999995
aF-0.123992
aF-0.15021399999999999
aasg16
S' F'
p202
sba(ibasisset
Shell
p203
(dp204
g8
S'S'
p205
sg10
(lp206
F3.5379999999999998
asg12
(lp207
(lp208
F1.0
aasg16
S' F'
p209
sba(ibasisset
Shell
p210
(dp211
g8
S'S'
p212
sg10
(lp213
F1.458
asg12
(lp214
(lp215
F1.0
aasg16
S' F'
p216
sba(ibasisset
Shell
p217
(dp218
g8
S'S'
p219
sg10
(lp220
F0.5887
asg12
(lp221
(lp222
F1.0
aasg16
S' F'
p223
sba(ibasisset
Shell
p224
(dp225
g8
S'S'
p226
sg10
(lp227
F0.2324
asg12
(lp228
(lp229
F1.0
aasg16
S' F'
p230
sba(ibasisset
Shell
p231
(dp232
g8
S'P'
p233
sg10
(lp234
F241.90000000000001
aF57.170000000000002
aF18.129999999999999
aF6.6239999999999997
asg12
(lp235
(lp236
F0.0010020000000000001
aF0.0080540000000000004
aF0.038047999999999998
aF0.123779
aasg16
S' F'
p237
sba(ibasisset
Shell
p238
(dp239
g8
S'P'
p240
sg10
(lp241
F2.6219999999999999
asg12
(lp242
(lp243
F1.0
aasg16
S' F'
p244
sba(ibasisset
Shell
p245
(dp246
g8
S'P'
p247
sg10
(lp248
F1.0569999999999999
asg12
(lp249
(lp250
F1.0
aasg16
S' F'
p251
sba(ibasisset
Shell
p252
(dp253
g8
S'P'
p254
sg10
(lp255
F0.41760000000000003
asg12
(lp256
(lp257
F1.0
aasg16
S' F'
p258
sba(ibasisset
Shell
p259
(dp260
g8
S'P'
p261
sg10
(lp262
F0.15740000000000001
asg12
(lp263
(lp264
F1.0
aasg16
S' F'
p265
sba(ibasisset
Shell
p266
(dp267
g8
S'D'
p268
sg10
(lp269
F7.7599999999999998
asg12
(lp270
(lp271
F1.0
aasg16
S' F'
p272
sba(ibasisset
Shell
p273
(dp274
g8
S'D'
p275
sg10
(lp276
F3.032
asg12
(lp277
(lp278
F1.0
aasg16
S' F'
p279
sba(ibasisset
Shell
p280
(dp281
g8
S'D'
p282
sg10
(lp283
F1.1850000000000001
asg12
(lp284
(lp285
F1.0
aasg16
S' F'
p286
sba(ibasisset
Shell
p287
(dp288
g8
S'D'
p289
sg10
(lp290
F0.46300000000000002
asg12
(lp291
(lp292
F1.0
aasg16
S' F'
p293
sba(ibasisset
Shell
p294
(dp295
g8
S'F'
p296
sg10
(lp297
F5.3979999999999997
asg12
(lp298
(lp299
F1.0
aasg16
S' F'
p300
sba(ibasisset
Shell
p301
(dp302
g8
S'F'
p303
sg10
(lp304
F2.0779999999999998
asg12
(lp305
(lp306
F1.0
aasg16
S' F'
p307
sba(ibasisset
Shell
p308
(dp309
g8
S'F'
p310
sg10
(lp311
F0.80000000000000004
asg12
(lp312
(lp313
F1.0
aasg16
S' F'
p314
sba(ibasisset
Shell
p315
(dp316
g8
S'G'
p317
sg10
(lp318
F4.3380000000000001
asg12
(lp319
(lp320
F1.0
aasg16
S' F'
p321
sba(ibasisset
Shell
p322
(dp323
g8
S'G'
p324
sg10
(lp325
F1.5129999999999999
asg12
(lp326
(lp327
F1.0
aasg16
S' F'
p328
sba(ibasisset
Shell
p329
(dp330
g8
S'H'
p331
sg10
(lp332
F2.9950000000000001
asg12
(lp333
(lp334
F1.0
aasg16
S' F'
p335
sba(ibasisset
Shell
p336
(dp337
g8
S'S'
p338
sg10
(lp339
F0.080600000000000005
asg12
(lp340
(lp341
F1.0
aasg16
S' F'
p342
sba(ibasisset
Shell
p343
(dp344
g8
S'P'
p345
sg10
(lp346
F0.055
asg12
(lp347
(lp348
F1.0
aasg16
S' F'
p349
sba(ibasisset
Shell
p350
(dp351
g8
S'D'
p352
sg10
(lp353
F0.17199999999999999
asg12
(lp354
(lp355
F1.0
aasg16
S' F'
p356
sba(ibasisset
Shell
p357
(dp358
g8
S'F'
p359
sg10
(lp360
F0.33100000000000002
asg12
(lp361
(lp362
F1.0
aasg16
S' F'
p363
sba(ibasisset
Shell
p364
(dp365
g8
S'G'
p366
sg10
(lp367
F0.66300000000000003
asg12
(lp368
(lp369
F1.0
aasg16
S' F'
p370
sba(ibasisset
Shell
p371
(dp372
g8
S'H'
p373
sg10
(lp374
F1.3260000000000001
asg12
(lp375
(lp376
F1.0
aasg16
S' F'
p377
sbasS'H'
p378
(lp379
(ibasisset
Shell
p380
(dp381
g8
S'S'
p382
sg10
(lp383
F402.0
aF60.240000000000002
aF13.73
aF3.9049999999999998
asg12
(lp384
(lp385
F0.00027900000000000001
aF0.0021649999999999998
aF0.011200999999999999
aF0.044878000000000001
aasg16
S' H'
p386
sba(ibasisset
Shell
p387
(dp388
g8
S'S'
p389
sg10
(lp390
F1.2829999999999999
asg12
(lp391
(lp392
F1.0
aasg16
S' H'
p393
sba(ibasisset
Shell
p394
(dp395
g8
S'S'
p396
sg10
(lp397
F0.46550000000000002
asg12
(lp398
(lp399
F1.0
aasg16
S' H'
p400
sba(ibasisset
Shell
p401
(dp402
g8
S'S'
p403
sg10
(lp404
F0.18110000000000001
asg12
(lp405
(lp406
F1.0
aasg16
S' H'
p407
sba(ibasisset
Shell
p408
(dp409
g8
S'S'
p410
sg10
(lp411
F0.072789999999999994
asg12
(lp412
(lp413
F1.0
aasg16
S' H'
p414
sba(ibasisset
Shell
p415
(dp416
g8
S'P'
p417
sg10
(lp418
F4.516
asg12
(lp419
(lp420
F1.0
aasg16
S' H'
p421
sba(ibasisset
Shell
p422
(dp423
g8
S'P'
p424
sg10
(lp425
F1.712
asg12
(lp426
(lp427
F1.0
aasg16
S' H'
p428
sba(ibasisset
Shell
p429
(dp430
g8
S'P'
p431
sg10
(lp432
F0.64900000000000002
asg12
(lp433
(lp434
F1.0
aasg16
S' H'
p435
sba(ibasisset
Shell
p436
(dp437
g8
S'P'
p438
sg10
(lp439
F0.246
asg12
(lp440
(lp441
F1.0
aasg16
S' H'
p442
sba(ibasisset
Shell
p443
(dp444
g8
S'D'
p445
sg10
(lp446
F2.9500000000000002
asg12
(lp447
(lp448
F1.0
aasg16
S' H'
p449
sba(ibasisset
Shell
p450
(dp451
g8
S'D'
p452
sg10
(lp453
F1.206
asg12
(lp454
(lp455
F1.0
aasg16
S' H'
p456
sba(ibasisset
Shell
p457
(dp458
g8
S'D'
p459
sg10
(lp460
F0.49299999999999999
asg12
(lp461
(lp462
F1.0
aasg16
S' H'
p463
sba(ibasisset
Shell
p464
(dp465
g8
S'F'
p466
sg10
(lp467
F2.5059999999999998
asg12
(lp468
(lp469
F1.0
aasg16
S' H'
p470
sba(ibasisset
Shell
p471
(dp472
g8
S'F'
p473
sg10
(lp474
F0.875
asg12
(lp475
(lp476
F1.0
aasg16
S' H'
p477
sba(ibasisset
Shell
p478
(dp479
g8
S'G'
p480
sg10
(lp481
F2.3580000000000001
asg12
(lp482
(lp483
F1.0
aasg16
S' H'
p484
sba(ibasisset
Shell
p485
(dp486
g8
S'S'
p487
sg10
(lp488
F0.0207
asg12
(lp489
(lp490
F1.0
aasg16
S' H'
p491
sba(ibasisset
Shell
p492
(dp493
g8
S'P'
p494
sg10
(lp495
F0.074399999999999994
asg12
(lp496
(lp497
F1.0
aasg16
S' H'
p498
sba(ibasisset
Shell
p499
(dp500
g8
S'D'
p501
sg10
(lp502
F0.156
asg12
(lp503
(lp504
F1.0
aasg16
S' H'
p505
sba(ibasisset
Shell
p506
(dp507
g8
S'F'
p508
sg10
(lp509
F0.27400000000000002
asg12
(lp510
(lp511
F1.0
aasg16
S' H'
p512
sba(ibasisset
Shell
p513
(dp514
g8
S'G'
p515
sg10
(lp516
F0.54300000000000004
asg12
(lp517
(lp518
F1.0
aasg16
S' H'
p519
sbasS'NE'
p520
(lp521
(ibasisset
Shell
p522
(dp523
g8
S'S'
p524
sg10
(lp525
F262700.0
aF39350.0
aF8955.0
aF2538.0
aF829.89999999999998
aF301.5
aF119.0
aF50.0
aF21.98
aF9.891
asg12
(lp526
(lp527
F2.5999999999999998e-05
aF0.00020000000000000001
aF0.0010499999999999999
aF0.0044000000000000003
aF0.015649
aF0.047758000000000002
aF0.122943
aF0.25248300000000001
aF0.36631399999999997
aF0.279617
aa(lp528
F-6.0000000000000002e-06
aF-4.6999999999999997e-05
aF-0.00024699999999999999
aF-0.0010380000000000001
aF-0.0037109999999999999
aF-0.011592999999999999
aF-0.031085999999999999
aF-0.070971999999999993
aF-0.12726599999999999
aF-0.151231
aasg16
S'NE'
p529
sba(ibasisset
Shell
p530
(dp531
g8
S'S'
p532
sg10
(lp533
F4.327
asg12
(lp534
(lp535
F1.0
aasg16
S'NE'
p536
sba(ibasisset
Shell
p537
(dp538
g8
S'S'
p539
sg10
(lp540
F1.804
asg12
(lp541
(lp542
F1.0
aasg16
S'NE'
p543
sba(ibasisset
Shell
p544
(dp545
g8
S'S'
p546
sg10
(lp547
F0.7288
asg12
(lp548
(lp549
F1.0
aasg16
S'NE'
p550
sba(ibasisset
Shell
p551
(dp552
g8
S'S'
p553
sg10
(lp554
F0.28670000000000001
asg12
(lp555
(lp556
F1.0
aasg16
S'NE'
p557
sba(ibasisset
Shell
p558
(dp559
g8
S'P'
p560
sg10
(lp561
F299.10000000000002
aF70.730000000000004
aF22.48
aF8.2460000000000004
asg12
(lp562
(lp563
F0.0010380000000000001
aF0.0083750000000000005
aF0.039692999999999999
aF0.128056
aasg16
S'NE'
p564
sba(ibasisset
Shell
p565
(dp566
g8
S'P'
p567
sg10
(lp568
F3.2690000000000001
asg12
(lp569
(lp570
F1.0
aasg16
S'NE'
p571
sba(ibasisset
Shell
p572
(dp573
g8
S'P'
p574
sg10
(lp575
F1.3149999999999999
asg12
(lp576
(lp577
F1.0
aasg16
S'NE'
p578
sba(ibasisset
Shell
p579
(dp580
g8
S'P'
p581
sg10
(lp582
F0.51580000000000004
asg12
(lp583
(lp584
F1.0
aasg16
S'NE'
p585
sba(ibasisset
Shell
p586
(dp587
g8
S'P'
p588
sg10
(lp589
F0.1918
asg12
(lp590
(lp591
F1.0
aasg16
S'NE'
p592
sba(ibasisset
Shell
p593
(dp594
g8
S'D'
p595
sg10
(lp596
F9.8369999999999997
asg12
(lp597
(lp598
F1.0
aasg16
S'NE'
p599
sba(ibasisset
Shell
p600
(dp601
g8
S'D'
p602
sg10
(lp603
F3.8439999999999999
asg12
(lp604
(lp605
F1.0
aasg16
S'NE'
p606
sba(ibasisset
Shell
p607
(dp608
g8
S'D'
p609
sg10
(lp610
F1.502
asg12
(lp611
(lp612
F1.0
aasg16
S'NE'
p613
sba(ibasisset
Shell
p614
(dp615
g8
S'D'
p616
sg10
(lp617
F0.58699999999999997
asg12
(lp618
(lp619
F1.0
aasg16
S'NE'
p620
sba(ibasisset
Shell
p621
(dp622
g8
S'F'
p623
sg10
(lp624
F7.0899999999999999
asg12
(lp625
(lp626
F1.0
aasg16
S'NE'
p627
sba(ibasisset
Shell
p628
(dp629
g8
S'F'
p630
sg10
(lp631
F2.738
asg12
(lp632
(lp633
F1.0
aasg16
S'NE'
p634
sba(ibasisset
Shell
p635
(dp636
g8
S'F'
p637
sg10
(lp638
F1.0569999999999999
asg12
(lp639
(lp640
F1.0
aasg16
S'NE'
p641
sba(ibasisset
Shell
p642
(dp643
g8
S'G'
p644
sg10
(lp645
F5.46
asg12
(lp646
(lp647
F1.0
aasg16
S'NE'
p648
sba(ibasisset
Shell
p649
(dp650
g8
S'G'
p651
sg10
(lp652
F1.8799999999999999
asg12
(lp653
(lp654
F1.0
aasg16
S'NE'
p655
sba(ibasisset
Shell
p656
(dp657
g8
S'H'
p658
sg10
(lp659
F3.7759999999999998
asg12
(lp660
(lp661
F1.0
aasg16
S'NE'
p662
sba(ibasisset
Shell
p663
(dp664
g8
S'S'
p665
sg10
(lp666
F0.095699999999999993
asg12
(lp667
(lp668
F1.0
aasg16
S'NE'
p669
sba(ibasisset
Shell
p670
(dp671
g8
S'P'
p672
sg10
(lp673
F0.0654
asg12
(lp674
(lp675
F1.0
aasg16
S'NE'
p676
sba(ibasisset
Shell
p677
(dp678
g8
S'D'
p679
sg10
(lp680
F0.21299999999999999
asg12
(lp681
(lp682
F1.0
aasg16
S'NE'
p683
sba(ibasisset
Shell
p684
(dp685
g8
S'F'
p686
sg10
(lp687
F0.42499999999999999
asg12
(lp688
(lp689
F1.0
aasg16
S'NE'
p690
sba(ibasisset
Shell
p691
(dp692
g8
S'G'
p693
sg10
(lp694
F0.80900000000000005
asg12
(lp695
(lp696
F1.0
aasg16
S'NE'
p697
sba(ibasisset
Shell
p698
(dp699
g8
S'H'
p700
sg10
(lp701
F1.6279999999999999
asg12
(lp702
(lp703
F1.0
aasg16
S'NE'
p704
sbasS'O'
p705
(lp706
(ibasisset
Shell
p707
(dp708
g8
S'S'
p709
sg10
(lp710
F164200.0
aF24590.0
aF5592.0
aF1582.0
aF516.10000000000002
aF187.19999999999999
aF73.930000000000007
aF31.219999999999999
aF13.81
aF6.2560000000000002
asg12
(lp711
(lp712
F2.5999999999999998e-05
aF0.000205
aF0.0010759999999999999
aF0.004522
aF0.016108000000000001
aF0.049084999999999997
aF0.124857
aF0.25168600000000002
aF0.36242000000000002
aF0.27905099999999999
aa(lp713
F-6.0000000000000002e-06
aF-4.6e-05
aF-0.00024399999999999999
aF-0.001031
aF-0.0036879999999999999
aF-0.011514
aF-0.030435
aF-0.068146999999999999
aF-0.120368
aF-0.14826
aasg16
S' O'
p714
sba(ibasisset
Shell
p715
(dp716
g8
S'S'
p717
sg10
(lp718
F2.7759999999999998
asg12
(lp719
(lp720
F1.0
aasg16
S' O'
p721
sba(ibasisset
Shell
p722
(dp723
g8
S'S'
p724
sg10
(lp725
F1.1379999999999999
asg12
(lp726
(lp727
F1.0
aasg16
S' O'
p728
sba(ibasisset
Shell
p729
(dp730
g8
S'S'
p731
sg10
(lp732
F0.46000000000000002
asg12
(lp733
(lp734
F1.0
aasg16
S' O'
p735
sba(ibasisset
Shell
p736
(dp737
g8
S'S'
p738
sg10
(lp739
F0.18290000000000001
asg12
(lp740
(lp741
F1.0
aasg16
S' O'
p742
sba(ibasisset
Shell
p743
(dp744
g8
S'P'
p745
sg10
(lp746
F195.5
aF46.159999999999997
aF14.58
aF5.2960000000000003
asg12
(lp747
(lp748
F0.00091799999999999998
aF0.0073879999999999996
aF0.034958000000000003
aF0.11543100000000001
aasg16
S' O'
p749
sba(ibasisset
Shell
p750
(dp751
g8
S'P'
p752
sg10
(lp753
F2.0939999999999999
asg12
(lp754
(lp755
F1.0
aasg16
S' O'
p756
sba(ibasisset
Shell
p757
(dp758
g8
S'P'
p759
sg10
(lp760
F0.84709999999999996
asg12
(lp761
(lp762
F1.0
aasg16
S' O'
p763
sba(ibasisset
Shell
p764
(dp765
g8
S'P'
p766
sg10
(lp767
F0.33679999999999999
asg12
(lp768
(lp769
F1.0
aasg16
S' O'
p770
sba(ibasisset
Shell
p771
(dp772
g8
S'P'
p773
sg10
(lp774
F0.1285
asg12
(lp775
(lp776
F1.0
aasg16
S' O'
p777
sba(ibasisset
Shell
p778
(dp779
g8
S'D'
p780
sg10
(lp781
F5.8789999999999996
asg12
(lp782
(lp783
F1.0
aasg16
S' O'
p784
sba(ibasisset
Shell
p785
(dp786
g8
S'D'
p787
sg10
(lp788
F2.3069999999999999
asg12
(lp789
(lp790
F1.0
aasg16
S' O'
p791
sba(ibasisset
Shell
p792
(dp793
g8
S'D'
p794
sg10
(lp795
F0.90500000000000003
asg12
(lp796
(lp797
F1.0
aasg16
S' O'
p798
sba(ibasisset
Shell
p799
(dp800
g8
S'D'
p801
sg10
(lp802
F0.35499999999999998
asg12
(lp803
(lp804
F1.0
aasg16
S' O'
p805
sba(ibasisset
Shell
p806
(dp807
g8
S'F'
p808
sg10
(lp809
F4.016
asg12
(lp810
(lp811
F1.0
aasg16
S' O'
p812
sba(ibasisset
Shell
p813
(dp814
g8
S'F'
p815
sg10
(lp816
F1.554
asg12
(lp817
(lp818
F1.0
aasg16
S' O'
p819
sba(ibasisset
Shell
p820
(dp821
g8
S'F'
p822
sg10
(lp823
F0.60099999999999998
asg12
(lp824
(lp825
F1.0
aasg16
S' O'
p826
sba(ibasisset
Shell
p827
(dp828
g8
S'G'
p829
sg10
(lp830
F3.3500000000000001
asg12
(lp831
(lp832
F1.0
aasg16
S' O'
p833
sba(ibasisset
Shell
p834
(dp835
g8
S'G'
p836
sg10
(lp837
F1.1890000000000001
asg12
(lp838
(lp839
F1.0
aasg16
S' O'
p840
sba(ibasisset
Shell
p841
(dp842
g8
S'H'
p843
sg10
(lp844
F2.319
asg12
(lp845
(lp846
F1.0
aasg16
S' O'
p847
sba(ibasisset
Shell
p848
(dp849
g8
S'S'
p850
sg10
(lp851
F0.065500000000000003
asg12
(lp852
(lp853
F1.0
aasg16
S' O'
p854
sba(ibasisset
Shell
p855
(dp856
g8
S'P'
p857
sg10
(lp858
F0.044600000000000001
asg12
(lp859
(lp860
F1.0
aasg16
S' O'
p861
sba(ibasisset
Shell
p862
(dp863
g8
S'D'
p864
sg10
(lp865
F0.13100000000000001
asg12
(lp866
(lp867
F1.0
aasg16
S' O'
p868
sba(ibasisset
Shell
p869
(dp870
g8
S'F'
p871
sg10
(lp872
F0.23699999999999999
asg12
(lp873
(lp874
F1.0
aasg16
S' O'
p875
sba(ibasisset
Shell
p876
(dp877
g8
S'G'
p878
sg10
(lp879
F0.51700000000000002
asg12
(lp880
(lp881
F1.0
aasg16
S' O'
p882
sba(ibasisset
Shell
p883
(dp884
g8
S'H'
p885
sg10
(lp886
F1.024
asg12
(lp887
(lp888
F1.0
aasg16
S' O'
p889
sbasS'N'
p890
(lp891
(ibasisset
Shell
p892
(dp893
g8
S'S'
p894
sg10
(lp895
F129200.0
aF19350.0
aF4404.0
aF1248.0
aF408.0
aF148.19999999999999
aF58.5
aF24.59
aF10.81
aF4.8819999999999997
asg12
(lp896
(lp897
F2.5000000000000001e-05
aF0.00019699999999999999
aF0.0010319999999999999
aF0.0043249999999999999
aF0.01538
aF0.046866999999999999
aF0.120116
aF0.245695
aF0.36137900000000001
aF0.28728300000000001
aa(lp898
F-6.0000000000000002e-06
aF-4.3000000000000002e-05
aF-0.00022699999999999999
aF-0.00095799999999999998
aF-0.0034160000000000002
aF-0.010666999999999999
aF-0.028278999999999999
aF-0.064019999999999994
aF-0.11393200000000001
aF-0.14699499999999999
aasg16
S' N'
p899
sba(ibasisset
Shell
p900
(dp901
g8
S'S'
p902
sg10
(lp903
F2.1949999999999998
asg12
(lp904
(lp905
F1.0
aasg16
S' N'
p906
sba(ibasisset
Shell
p907
(dp908
g8
S'S'
p909
sg10
(lp910
F0.87150000000000005
asg12
(lp911
(lp912
F1.0
aasg16
S' N'
p913
sba(ibasisset
Shell
p914
(dp915
g8
S'S'
p916
sg10
(lp917
F0.35039999999999999
asg12
(lp918
(lp919
F1.0
aasg16
S' N'
p920
sba(ibasisset
Shell
p921
(dp922
g8
S'S'
p923
sg10
(lp924
F0.13969999999999999
asg12
(lp925
(lp926
F1.0
aasg16
S' N'
p927
sba(ibasisset
Shell
p928
(dp929
g8
S'P'
p930
sg10
(lp931
F147.0
aF34.759999999999998
aF11.0
aF3.9950000000000001
asg12
(lp932
(lp933
F0.000892
aF0.0070819999999999998
aF0.032815999999999998
aF0.108209
aasg16
S' N'
p934
sba(ibasisset
Shell
p935
(dp936
g8
S'P'
p937
sg10
(lp938
F1.587
asg12
(lp939
(lp940
F1.0
aasg16
S' N'
p941
sba(ibasisset
Shell
p942
(dp943
g8
S'P'
p944
sg10
(lp945
F0.65329999999999999
asg12
(lp946
(lp947
F1.0
aasg16
S' N'
p948
sba(ibasisset
Shell
p949
(dp950
g8
S'P'
p951
sg10
(lp952
F0.26860000000000001
asg12
(lp953
(lp954
F1.0
aasg16
S' N'
p955
sba(ibasisset
Shell
p956
(dp957
g8
S'P'
p958
sg10
(lp959
F0.1067
asg12
(lp960
(lp961
F1.0
aasg16
S' N'
p962
sba(ibasisset
Shell
p963
(dp964
g8
S'D'
p965
sg10
(lp966
F4.6470000000000002
asg12
(lp967
(lp968
F1.0
aasg16
S' N'
p969
sba(ibasisset
Shell
p970
(dp971
g8
S'D'
p972
sg10
(lp973
F1.8129999999999999
asg12
(lp974
(lp975
F1.0
aasg16
S' N'
p976
sba(ibasisset
Shell
p977
(dp978
g8
S'D'
p979
sg10
(lp980
F0.70699999999999996
asg12
(lp981
(lp982
F1.0
aasg16
S' N'
p983
sba(ibasisset
Shell
p984
(dp985
g8
S'D'
p986
sg10
(lp987
F0.27600000000000002
asg12
(lp988
(lp989
F1.0
aasg16
S' N'
p990
sba(ibasisset
Shell
p991
(dp992
g8
S'F'
p993
sg10
(lp994
F2.9420000000000002
asg12
(lp995
(lp996
F1.0
aasg16
S' N'
p997
sba(ibasisset
Shell
p998
(dp999
g8
S'F'
p1000
sg10
(lp1001
F1.204
asg12
(lp1002
(lp1003
F1.0
aasg16
S' N'
p1004
sba(ibasisset
Shell
p1005
(dp1006
g8
S'F'
p1007
sg10
(lp1008
F0.49299999999999999
asg12
(lp1009
(lp1010
F1.0
aasg16
S' N'
p1011
sba(ibasisset
Shell
p1012
(dp1013
g8
S'G'
p1014
sg10
(lp1015
F2.5110000000000001
asg12
(lp1016
(lp1017
F1.0
aasg16
S' N'
p1018
sba(ibasisset
Shell
p1019
(dp1020
g8
S'G'
p1021
sg10
(lp1022
F0.94199999999999995
asg12
(lp1023
(lp1024
F1.0
aasg16
S' N'
p1025
sba(ibasisset
Shell
p1026
(dp1027
g8
S'H'
p1028
sg10
(lp1029
F1.768
asg12
(lp1030
(lp1031
F1.0
aasg16
S' N'
p1032
sba(ibasisset
Shell
p1033
(dp1034
g8
S'S'
p1035
sg10
(lp1036
F0.051799999999999999
asg12
(lp1037
(lp1038
F1.0
aasg16
S' N'
p1039
sba(ibasisset
Shell
p1040
(dp1041
g8
S'P'
p1042
sg10
(lp1043
F0.036900000000000002
asg12
(lp1044
(lp1045
F1.0
aasg16
S' N'
p1046
sba(ibasisset
Shell
p1047
(dp1048
g8
S'D'
p1049
sg10
(lp1050
F0.097100000000000006
asg12
(lp1051
(lp1052
F1.0
aasg16
S' N'
p1053
sba(ibasisset
Shell
p1054
(dp1055
g8
S'F'
p1056
sg10
(lp1057
F0.192
asg12
(lp1058
(lp1059
F1.0
aasg16
S' N'
p1060
sba(ibasisset
Shell
p1061
(dp1062
g8
S'G'
p1063
sg10
(lp1064
F0.436
asg12
(lp1065
(lp1066
F1.0
aasg16
S' N'
p1067
sba(ibasisset
Shell
p1068
(dp1069
g8
S'H'
p1070
sg10
(lp1071
F0.78800000000000003
asg12
(lp1072
(lp1073
F1.0
aasg16
S' N'
p1074
sbasS'HE'
p1075
(lp1076
(ibasisset
Shell
p1077
(dp1078
g8
S'S'
p1079
sg10
(lp1080
F1145.0
aF171.69999999999999
aF39.07
aF11.039999999999999
asg12
(lp1081
(lp1082
F0.000359
aF0.002771
aF0.014251
aF0.055565999999999997
aasg16
S'HE'
p1083
sba(ibasisset
Shell
p1084
(dp1085
g8
S'S'
p1086
sg10
(lp1087
F3.5659999999999998
asg12
(lp1088
(lp1089
F1.0
aasg16
S'HE'
p1090
sba(ibasisset
Shell
p1091
(dp1092
g8
S'S'
p1093
sg10
(lp1094
F1.24
asg12
(lp1095
(lp1096
F1.0
aasg16
S'HE'
p1097
sba(ibasisset
Shell
p1098
(dp1099
g8
S'S'
p1100
sg10
(lp1101
F0.44729999999999998
asg12
(lp1102
(lp1103
F1.0
aasg16
S'HE'
p1104
sba(ibasisset
Shell
p1105
(dp1106
g8
S'S'
p1107
sg10
(lp1108
F0.16400000000000001
asg12
(lp1109
(lp1110
F1.0
aasg16
S'HE'
p1111
sba(ibasisset
Shell
p1112
(dp1113
g8
S'P'
p1114
sg10
(lp1115
F10.153
asg12
(lp1116
(lp1117
F1.0
aasg16
S'HE'
p1118
sba(ibasisset
Shell
p1119
(dp1120
g8
S'P'
p1121
sg10
(lp1122
F3.6269999999999998
asg12
(lp1123
(lp1124
F1.0
aasg16
S'HE'
p1125
sba(ibasisset
Shell
p1126
(dp1127
g8
S'P'
p1128
sg10
(lp1129
F1.296
asg12
(lp1130
(lp1131
F1.0
aasg16
S'HE'
p1132
sba(ibasisset
Shell
p1133
(dp1134
g8
S'P'
p1135
sg10
(lp1136
F0.46300000000000002
asg12
(lp1137
(lp1138
F1.0
aasg16
S'HE'
p1139
sba(ibasisset
Shell
p1140
(dp1141
g8
S'D'
p1142
sg10
(lp1143
F7.6660000000000004
asg12
(lp1144
(lp1145
F1.0
aasg16
S'HE'
p1146
sba(ibasisset
Shell
p1147
(dp1148
g8
S'D'
p1149
sg10
(lp1150
F2.6469999999999998
asg12
(lp1151
(lp1152
F1.0
aasg16
S'HE'
p1153
sba(ibasisset
Shell
p1154
(dp1155
g8
S'D'
p1156
sg10
(lp1157
F0.91400000000000003
asg12
(lp1158
(lp1159
F1.0
aasg16
S'HE'
p1160
sba(ibasisset
Shell
p1161
(dp1162
g8
S'F'
p1163
sg10
(lp1164
F5.4109999999999996
asg12
(lp1165
(lp1166
F1.0
aasg16
S'HE'
p1167
sba(ibasisset
Shell
p1168
(dp1169
g8
S'F'
p1170
sg10
(lp1171
F1.7070000000000001
asg12
(lp1172
(lp1173
F1.0
aasg16
S'HE'
p1174
sba(ibasisset
Shell
p1175
(dp1176
g8
S'G'
p1177
sg10
(lp1178
F3.4300000000000002
asg12
(lp1179
(lp1180
F1.0
aasg16
S'HE'
p1181
sba(ibasisset
Shell
p1182
(dp1183
g8
S'S'
p1184
sg10
(lp1185
F0.046640000000000001
asg12
(lp1186
(lp1187
F1.0
aasg16
S'HE'
p1188
sba(ibasisset
Shell
p1189
(dp1190
g8
S'P'
p1191
sg10
(lp1192
F0.14000000000000001
asg12
(lp1193
(lp1194
F1.0
aasg16
S'HE'
p1195
sba(ibasisset
Shell
p1196
(dp1197
g8
S'D'
p1198
sg10
(lp1199
F0.28920000000000001
asg12
(lp1200
(lp1201
F1.0
aasg16
S'HE'
p1202
sba(ibasisset
Shell
p1203
(dp1204
g8
S'F'
p1205
sg10
(lp1206
F0.53449999999999998
asg12
(lp1207
(lp1208
F1.0
aasg16
S'HE'
p1209
sba(ibasisset
Shell
p1210
(dp1211
g8
S'G'
p1212
sg10
(lp1213
F0.78990000000000005
asg12
(lp1214
(lp1215
F1.0
aasg16
S'HE'
p1216
sbassb.