(ibasisset
BasisSet
p0
(dp1
S'basisDictionary'
p2
(dp3
S'C'
p4
(lp5
(ibasisset
Shell
p6
(dp7
S'angularMomentum'
p8
S'S'
p9
sS'exponents'
p10
(lp11
F33980.0
aF5089.0
aF1157.0
aF326.60000000000002
aF106.09999999999999
aF38.109999999999999
aF14.75
aF6.0350000000000001
aF2.5299999999999998
asS'coefficients'
p12
(lp13
(lp14
F9.1000000000000003e-05
aF0.00070399999999999998
aF0.0036930000000000001
aF0.01536
aF0.052928999999999997
aF0.14704300000000001
aF0.30563099999999999
aF0.39934500000000001
aF0.21705099999999999
aa(lp15
F-1.9000000000000001e-05
aF-0.00015100000000000001
aF-0.000785
aF-0.0033240000000000001
aF-0.011512
aF-0.034160000000000003
aF-0.077173000000000005
aF-0.14149300000000001
aF-0.118019
aasS'atom'
p16
S' C'
p17
sba(ibasisset
Shell
p18
(dp19
g8
S'S'
p20
sg10
(lp21
F0.73550000000000004
asg12
(lp22
(lp23
F1.0
aasg16
S' C'
p24
sba(ibasisset
Shell
p25
(dp26
g8
S'S'
p27
sg10
(lp28
F0.29049999999999998
asg12
(lp29
(lp30
F1.0
aasg16
S' C'
p31
sba(ibasisset
Shell
p32
(dp33
g8
S'S'
p34
sg10
(lp35
F0.1111
asg12
(lp36
(lp37
F1.0
aasg16
S' C'
p38
sba(ibasisset
Shell
p39
(dp40
g8
S'P'
p41
sg10
(lp42
F34.509999999999998
aF7.915
aF2.3679999999999999
asg12
(lp43
(lp44
F0.005378
aF0.036131999999999997
aF0.14249300000000001
aasg16
S' C'
p45
sba(ibasisset
Shell
p46
(dp47
g8
S'P'
p48
sg10
(lp49
F0.81320000000000003
asg12
(lp50
(lp51
F1.0
aasg16
S' C'
p52
sba(ibasisset
Shell
p53
(dp54
g8
S'P'
p55
sg10
(lp56
F0.28899999999999998
asg12
(lp57
(lp58
F1.0
aasg16
S' C'
p59
sba(ibasisset
Shell
p60
(dp61
g8
S'P'
p62
sg10
(lp63
F0.1007
asg12
(lp64
(lp65
F1.0
aasg16
S' C'
p66
sba(ibasisset
Shell
p67
(dp68
g8
S'D'
p69
sg10
(lp70
F1.8480000000000001
asg12
(lp71
(lp72
F1.0
aasg16
S' C'
p73
sba(ibasisset
Shell
p74
(dp75
g8
S'D'
p76
sg10
(lp77
F0.64900000000000002
asg12
(lp78
(lp79
F1.0
aasg16
S' C'
p80
sba(ibasisset
Shell
p81
(dp82
g8
S'D'
p83
sg10
(lp84
F0.22800000000000001
asg12
(lp85
(lp86
F1.0
aasg16
S' C'
p87
sba(ibasisset
Shell
p88
(dp89
g8
S'F'
p90
sg10
(lp91
F1.419
asg12
(lp92
(lp93
F1.0
aasg16
S' C'
p94
sba(ibasisset
Shell
p95
(dp96
g8
S'F'
p97
sg10
(lp98
F0.48499999999999999
asg12
(lp99
(lp100
F1.0
aasg16
S' C'
p101
sba(ibasisset
Shell
p102
(dp103
g8
S'G'
p104
sg10
(lp105
F1.0109999999999999
asg12
(lp106
(lp107
F1.0
aasg16
S' C'
p108
sba(ibasisset
Shell
p109
(dp110
g8
S'S'
p111
sg10
(lp112
F0.041450000000000001
asg12
(lp113
(lp114
F1.0
aasg16
S' C'
p115
sba(ibasisset
Shell
p116
(dp117
g8
S'P'
p118
sg10
(lp119
F0.03218
asg12
(lp120
(lp121
F1.0
aasg16
S' C'
p122
sba(ibasisset
Shell
p123
(dp124
g8
S'D'
p125
sg10
(lp126
F0.076600000000000001
asg12
(lp127
(lp128
F1.0
aasg16
S' C'
p129
sba(ibasisset
Shell
p130
(dp131
g8
S'F'
p132
sg10
(lp133
F0.187
asg12
(lp134
(lp135
F1.0
aasg16
S' C'
p136
sba(ibasisset
Shell
p137
(dp138
g8
S'G'
p139
sg10
(lp140
F0.42399999999999999
asg12
(lp141
(lp142
F1.0
aasg16
S' C'
p143
sbasS'F'
p144
(lp145
(ibasisset
Shell
p146
(dp147
g8
S'S'
p148
sg10
(lp149
F74530.0
aF11170.0
aF2543.0
aF721.0
aF235.90000000000001
aF85.599999999999994
aF33.549999999999997
aF13.93
aF5.915
asg12
(lp150
(lp151
F9.5000000000000005e-05
aF0.00073800000000000005
aF0.0038579999999999999
aF0.015925999999999999
aF0.054288999999999997
aF0.14951300000000001
aF0.30825200000000003
aF0.39485300000000001
aF0.211031
aa(lp152
F-2.1999999999999999e-05
aF-0.00017200000000000001
aF-0.00089099999999999997
aF-0.003748
aF-0.012862
aF-0.038060999999999998
aF-0.086238999999999996
aF-0.155865
aF-0.110914
aasg16
S' F'
p153
sba(ibasisset
Shell
p154
(dp155
g8
S'S'
p156
sg10
(lp157
F1.843
asg12
(lp158
(lp159
F1.0
aasg16
S' F'
p160
sba(ibasisset
Shell
p161
(dp162
g8
S'S'
p163
sg10
(lp164
F0.71240000000000003
asg12
(lp165
(lp166
F1.0
aasg16
S' F'
p167
sba(ibasisset
Shell
p168
(dp169
g8
S'S'
p170
sg10
(lp171
F0.26369999999999999
asg12
(lp172
(lp173
F1.0
aasg16
S' F'
p174
sba(ibasisset
Shell
p175
(dp176
g8
S'P'
p177
sg10
(lp178
F80.390000000000001
aF18.629999999999999
aF5.694
asg12
(lp179
(lp180
F0.0063470000000000002
aF0.044204
aF0.168514
aasg16
S' F'
p181
sba(ibasisset
Shell
p182
(dp183
g8
S'P'
p184
sg10
(lp185
F1.9530000000000001
asg12
(lp186
(lp187
F1.0
aasg16
S' F'
p188
sba(ibasisset
Shell
p189
(dp190
g8
S'P'
p191
sg10
(lp192
F0.67020000000000002
asg12
(lp193
(lp194
F1.0
aasg16
S' F'
p195
sba(ibasisset
Shell
p196
(dp197
g8
S'P'
p198
sg10
(lp199
F0.21659999999999999
asg12
(lp200
(lp201
F1.0
aasg16
S' F'
p202
sba(ibasisset
Shell
p203
(dp204
g8
S'D'
p205
sg10
(lp206
F5.0140000000000002
asg12
(lp207
(lp208
F1.0
aasg16
S' F'
p209
sba(ibasisset
Shell
p210
(dp211
g8
S'D'
p212
sg10
(lp213
F1.7250000000000001
asg12
(lp214
(lp215
F1.0
aasg16
S' F'
p216
sba(ibasisset
Shell
p217
(dp218
g8
S'D'
p219
sg10
(lp220
F0.58599999999999997
asg12
(lp221
(lp222
F1.0
aasg16
S' F'
p223
sba(ibasisset
Shell
p224
(dp225
g8
S'F'
p226
sg10
(lp227
F3.5619999999999998
asg12
(lp228
(lp229
F1.0
aasg16
S' F'
p230
sba(ibasisset
Shell
p231
(dp232
g8
S'F'
p233
sg10
(lp234
F1.1479999999999999
asg12
(lp235
(lp236
F1.0
aasg16
S' F'
p237
sba(ibasisset
Shell
p238
(dp239
g8
S'G'
p240
sg10
(lp241
F2.3759999999999999
asg12
(lp242
(lp243
F1.0
aasg16
S' F'
p244
sba(ibasisset
Shell
p245
(dp246
g8
S'S'
p247
sg10
(lp248
F0.085940000000000003
asg12
(lp249
(lp250
F1.0
aasg16
S' F'
p251
sba(ibasisset
Shell
p252
(dp253
g8
S'P'
p254
sg10
(lp255
F0.065680000000000002
asg12
(lp256
(lp257
F1.0
aasg16
S' F'
p258
sba(ibasisset
Shell
p259
(dp260
g8
S'D'
p261
sg10
(lp262
F0.20699999999999999
asg12
(lp263
(lp264
F1.0
aasg16
S' F'
p265
sba(ibasisset
Shell
p266
(dp267
g8
S'F'
p268
sg10
(lp269
F0.46000000000000002
asg12
(lp270
(lp271
F1.0
aasg16
S' F'
p272
sba(ibasisset
Shell
p273
(dp274
g8
S'G'
p275
sg10
(lp276
F0.92400000000000004
asg12
(lp277
(lp278
F1.0
aasg16
S' F'
p279
sbasS'H'
p280
(lp281
(ibasisset
Shell
p282
(dp283
g8
S'S'
p284
sg10
(lp285
F82.640000000000001
aF12.41
aF2.8239999999999998
asg12
(lp286
(lp287
F0.002006
aF0.015343000000000001
aF0.075578999999999993
aasg16
S' H'
p288
sba(ibasisset
Shell
p289
(dp290
g8
S'S'
p291
sg10
(lp292
F0.79769999999999996
asg12
(lp293
(lp294
F1.0
aasg16
S' H'
p295
sba(ibasisset
Shell
p296
(dp297
g8
S'S'
p298
sg10
(lp299
F0.2581
asg12
(lp300
(lp301
F1.0
aasg16
S' H'
p302
sba(ibasisset
Shell
p303
(dp304
g8
S'S'
p305
sg10
(lp306
F0.089889999999999998
asg12
(lp307
(lp308
F1.0
aasg16
S' H'
p309
sba(ibasisset
Shell
p310
(dp311
g8
S'P'
p312
sg10
(lp313
F2.2919999999999998
asg12
(lp314
(lp315
F1.0
aasg16
S' H'
p316
sba(ibasisset
Shell
p317
(dp318
g8
S'P'
p319
sg10
(lp320
F0.83799999999999997
asg12
(lp321
(lp322
F1.0
aasg16
S' H'
p323
sba(ibasisset
Shell
p324
(dp325
g8
S'P'
p326
sg10
(lp327
F0.29199999999999998
asg12
(lp328
(lp329
F1.0
aasg16
S' H'
p330
sba(ibasisset
Shell
p331
(dp332
g8
S'D'
p333
sg10
(lp334
F2.0619999999999998
asg12
(lp335
(lp336
F1.0
aasg16
S' H'
p337
sba(ibasisset
Shell
p338
(dp339
g8
S'D'
p340
sg10
(lp341
F0.66200000000000003
asg12
(lp342
(lp343
F1.0
aasg16
S' H'
p344
sba(ibasisset
Shell
p345
(dp346
g8
S'F'
p347
sg10
(lp348
F1.397
asg12
(lp349
(lp350
F1.0
aasg16
S' H'
p351
sba(ibasisset
Shell
p352
(dp353
g8
S'S'
p354
sg10
(lp355
F0.023630000000000002
asg12
(lp356
(lp357
F1.0
aasg16
S' H'
p358
sba(ibasisset
Shell
p359
(dp360
g8
S'P'
p361
sg10
(lp362
F0.0848
asg12
(lp363
(lp364
F1.0
aasg16
S' H'
p365
sba(ibasisset
Shell
p366
(dp367
g8
S'D'
p368
sg10
(lp369
F0.19
asg12
(lp370
(lp371
F1.0
aasg16
S' H'
p372
sba(ibasisset
Shell
p373
(dp374
g8
S'F'
p375
sg10
(lp376
F0.35999999999999999
asg12
(lp377
(lp378
F1.0
aasg16
S' H'
p379
sbasS'NE'
p380
(lp381
(ibasisset
Shell
p382
(dp383
g8
S'S'
p384
sg10
(lp385
F99920.0
aF14960.0
aF3399.0
aF958.89999999999998
aF311.19999999999999
aF111.7
aF43.32
aF17.800000000000001
aF7.5030000000000001
asg12
(lp386
(lp387
F8.6000000000000003e-05
aF0.000669
aF0.0035179999999999999
aF0.014666999999999999
aF0.050962
aF0.14374400000000001
aF0.304562
aF0.40010499999999999
aF0.21864400000000001
aa(lp388
F-2.0000000000000002e-05
aF-0.00015799999999999999
aF-0.00082399999999999997
aF-0.0035000000000000001
aF-0.012233000000000001
aF-0.037017000000000001
aF-0.086112999999999995
aF-0.15838099999999999
aF-0.114288
aasg16
S'NE'
p389
sba(ibasisset
Shell
p390
(dp391
g8
S'S'
p392
sg10
(lp393
F2.3370000000000002
asg12
(lp394
(lp395
F1.0
aasg16
S'NE'
p396
sba(ibasisset
Shell
p397
(dp398
g8
S'S'
p399
sg10
(lp400
F0.90010000000000001
asg12
(lp401
(lp402
F1.0
aasg16
S'NE'
p403
sba(ibasisset
Shell
p404
(dp405
g8
S'S'
p406
sg10
(lp407
F0.3301
asg12
(lp408
(lp409
F1.0
aasg16
S'NE'
p410
sba(ibasisset
Shell
p411
(dp412
g8
S'P'
p413
sg10
(lp414
F99.680000000000007
aF23.149999999999999
aF7.1079999999999997
asg12
(lp415
(lp416
F0.0065659999999999998
aF0.045978999999999999
aF0.17341899999999999
aasg16
S'NE'
p417
sba(ibasisset
Shell
p418
(dp419
g8
S'P'
p420
sg10
(lp421
F2.4409999999999998
asg12
(lp422
(lp423
F1.0
aasg16
S'NE'
p424
sba(ibasisset
Shell
p425
(dp426
g8
S'P'
p427
sg10
(lp428
F0.83389999999999997
asg12
(lp429
(lp430
F1.0
aasg16
S'NE'
p431
sba(ibasisset
Shell
p432
(dp433
g8
S'P'
p434
sg10
(lp435
F0.26619999999999999
asg12
(lp436
(lp437
F1.0
aasg16
S'NE'
p438
sba(ibasisset
Shell
p439
(dp440
g8
S'D'
p441
sg10
(lp442
F6.4710000000000001
asg12
(lp443
(lp444
F1.0
aasg16
S'NE'
p445
sba(ibasisset
Shell
p446
(dp447
g8
S'D'
p448
sg10
(lp449
F2.2130000000000001
asg12
(lp450
(lp451
F1.0
aasg16
S'NE'
p452
sba(ibasisset
Shell
p453
(dp454
g8
S'D'
p455
sg10
(lp456
F0.747
asg12
(lp457
(lp458
F1.0
aasg16
S'NE'
p459
sba(ibasisset
Shell
p460
(dp461
g8
S'F'
p462
sg10
(lp463
F4.657
asg12
(lp464
(lp465
F1.0
aasg16
S'NE'
p466
sba(ibasisset
Shell
p467
(dp468
g8
S'F'
p469
sg10
(lp470
F1.524
asg12
(lp471
(lp472
F1.0
aasg16
S'NE'
p473
sba(ibasisset
Shell
p474
(dp475
g8
S'G'
p476
sg10
(lp477
F2.9830000000000001
asg12
(lp478
(lp479
F1.0
aasg16
S'NE'
p480
sba(ibasisset
Shell
p481
(dp482
g8
S'S'
p483
sg10
(lp484
F0.10539999999999999
asg12
(lp485
(lp486
F1.0
aasg16
S'NE'
p487
sba(ibasisset
Shell
p488
(dp489
g8
S'P'
p490
sg10
(lp491
F0.081780000000000005
asg12
(lp492
(lp493
F1.0
aasg16
S'NE'
p494
sba(ibasisset
Shell
p495
(dp496
g8
S'D'
p497
sg10
(lp498
F0.27300000000000002
asg12
(lp499
(lp500
F1.0
aasg16
S'NE'
p501
sba(ibasisset
Shell
p502
(dp503
g8
S'F'
p504
sg10
(lp505
F0.68899999999999995
asg12
(lp506
(lp507
F1.0
aasg16
S'NE'
p508
sba(ibasisset
Shell
p509
(dp510
g8
S'G'
p511
sg10
(lp512
F1.224
asg12
(lp513
(lp514
F1.0
aasg16
S'NE'
p515
sbasS'O'
p516
(lp517
(ibasisset
Shell
p518
(dp519
g8
S'S'
p520
sg10
(lp521
F61420.0
aF9199.0
aF2091.0
aF590.89999999999998
aF192.30000000000001
aF69.319999999999993
aF26.969999999999999
aF11.1
aF4.6820000000000004
asg12
(lp522
(lp523
F9.0000000000000006e-05
aF0.00069800000000000005
aF0.0036640000000000002
aF0.015218000000000001
aF0.052422999999999997
aF0.145921
aF0.30525799999999997
aF0.39850799999999997
aF0.21698000000000001
aa(lp524
F-2.0000000000000002e-05
aF-0.00015899999999999999
aF-0.00082899999999999998
aF-0.0035079999999999998
aF-0.012156
aF-0.036261000000000002
aF-0.082991999999999996
aF-0.15209
aF-0.115331
aasg16
S' O'
p525
sba(ibasisset
Shell
p526
(dp527
g8
S'S'
p528
sg10
(lp529
F1.4279999999999999
asg12
(lp530
(lp531
F1.0
aasg16
S' O'
p532
sba(ibasisset
Shell
p533
(dp534
g8
S'S'
p535
sg10
(lp536
F0.55469999999999997
asg12
(lp537
(lp538
F1.0
aasg16
S' O'
p539
sba(ibasisset
Shell
p540
(dp541
g8
S'S'
p542
sg10
(lp543
F0.20669999999999999
asg12
(lp544
(lp545
F1.0
aasg16
S' O'
p546
sba(ibasisset
Shell
p547
(dp548
g8
S'P'
p549
sg10
(lp550
F63.420000000000002
aF14.66
aF4.4589999999999996
asg12
(lp551
(lp552
F0.0060439999999999999
aF0.041799000000000003
aF0.16114300000000001
aasg16
S' O'
p553
sba(ibasisset
Shell
p554
(dp555
g8
S'P'
p556
sg10
(lp557
F1.5309999999999999
asg12
(lp558
(lp559
F1.0
aasg16
S' O'
p560
sba(ibasisset
Shell
p561
(dp562
g8
S'P'
p563
sg10
(lp564
F0.5302
asg12
(lp565
(lp566
F1.0
aasg16
S' O'
p567
sba(ibasisset
Shell
p568
(dp569
g8
S'P'
p570
sg10
(lp571
F0.17499999999999999
asg12
(lp572
(lp573
F1.0
aasg16
S' O'
p574
sba(ibasisset
Shell
p575
(dp576
g8
S'D'
p577
sg10
(lp578
F3.7749999999999999
asg12
(lp579
(lp580
F1.0
aasg16
S' O'
p581
sba(ibasisset
Shell
p582
(dp583
g8
S'D'
p584
sg10
(lp585
F1.3
asg12
(lp586
(lp587
F1.0
aasg16
S' O'
p588
sba(ibasisset
Shell
p589
(dp590
g8
S'D'
p591
sg10
(lp592
F0.44400000000000001
asg12
(lp593
(lp594
F1.0
aasg16
S' O'
p595
sba(ibasisset
Shell
p596
(dp597
g8
S'F'
p598
sg10
(lp599
F2.6659999999999999
asg12
(lp600
(lp601
F1.0
aasg16
S' O'
p602
sba(ibasisset
Shell
p603
(dp604
g8
S'F'
p605
sg10
(lp606
F0.85899999999999999
asg12
(lp607
(lp608
F1.0
aasg16
S' O'
p609
sba(ibasisset
Shell
p610
(dp611
g8
S'G'
p612
sg10
(lp613
F1.8460000000000001
asg12
(lp614
(lp615
F1.0
aasg16
S' O'
p616
sba(ibasisset
Shell
p617
(dp618
g8
S'S'
p619
sg10
(lp620
F0.069589999999999999
asg12
(lp621
(lp622
F1.0
aasg16
S' O'
p623
sba(ibasisset
Shell
p624
(dp625
g8
S'P'
p626
sg10
(lp627
F0.05348
asg12
(lp628
(lp629
F1.0
aasg16
S' O'
p630
sba(ibasisset
Shell
p631
(dp632
g8
S'D'
p633
sg10
(lp634
F0.154
asg12
(lp635
(lp636
F1.0
aasg16
S' O'
p637
sba(ibasisset
Shell
p638
(dp639
g8
S'F'
p640
sg10
(lp641
F0.32400000000000001
asg12
(lp642
(lp643
F1.0
aasg16
S' O'
p644
sba(ibasisset
Shell
p645
(dp646
g8
S'G'
p647
sg10
(lp648
F0.71399999999999997
asg12
(lp649
(lp650
F1.0
aasg16
S' O'
p651
sbasS'N'
p652
(lp653
(ibasisset
Shell
p654
(dp655
g8
S'S'
p656
sg10
(lp657
F45840.0
aF6868.0
aF1563.0
aF442.39999999999998
aF144.30000000000001
aF52.18
aF20.34
aF8.3810000000000002
aF3.5289999999999999
asg12
(lp658
(lp659
F9.2e-05
aF0.00071699999999999997
aF0.0037490000000000002
aF0.015532000000000001
aF0.053145999999999999
aF0.146787
aF0.30466300000000002
aF0.39768399999999998
aF0.217641
aa(lp660
F-2.0000000000000002e-05
aF-0.00015899999999999999
aF-0.00082399999999999997
aF-0.0034780000000000002
aF-0.011965999999999999
aF-0.035388000000000003
aF-0.080076999999999995
aF-0.14672199999999999
aF-0.11636000000000001
aasg16
S' N'
p661
sba(ibasisset
Shell
p662
(dp663
g8
S'S'
p664
sg10
(lp665
F1.054
asg12
(lp666
(lp667
F1.0
aasg16
S' N'
p668
sba(ibasisset
Shell
p669
(dp670
g8
S'S'
p671
sg10
(lp672
F0.4118
asg12
(lp673
(lp674
F1.0
aasg16
S' N'
p675
sba(ibasisset
Shell
p676
(dp677
g8
S'S'
p678
sg10
(lp679
F0.1552
asg12
(lp680
(lp681
F1.0
aasg16
S' N'
p682
sba(ibasisset
Shell
p683
(dp684
g8
S'P'
p685
sg10
(lp686
F49.329999999999998
aF11.369999999999999
aF3.4350000000000001
asg12
(lp687
(lp688
F0.0055329999999999997
aF0.037962000000000003
aF0.14902799999999999
aasg16
S' N'
p689
sba(ibasisset
Shell
p690
(dp691
g8
S'P'
p692
sg10
(lp693
F1.1819999999999999
asg12
(lp694
(lp695
F1.0
aasg16
S' N'
p696
sba(ibasisset
Shell
p697
(dp698
g8
S'P'
p699
sg10
(lp700
F0.4173
asg12
(lp701
(lp702
F1.0
aasg16
S' N'
p703
sba(ibasisset
Shell
p704
(dp705
g8
S'P'
p706
sg10
(lp707
F0.14280000000000001
asg12
(lp708
(lp709
F1.0
aasg16
S' N'
p710
sba(ibasisset
Shell
p711
(dp712
g8
S'D'
p713
sg10
(lp714
F2.8370000000000002
asg12
(lp715
(lp716
F1.0
aasg16
S' N'
p717
sba(ibasisset
Shell
p718
(dp719
g8
S'D'
p720
sg10
(lp721
F0.96799999999999997
asg12
(lp722
(lp723
F1.0
aasg16
S' N'
p724
sba(ibasisset
Shell
p725
(dp726
g8
S'D'
p727
sg10
(lp728
F0.33500000000000002
asg12
(lp729
(lp730
F1.0
aasg16
S' N'
p731
sba(ibasisset
Shell
p732
(dp733
g8
S'F'
p734
sg10
(lp735
F2.0270000000000001
asg12
(lp736
(lp737
F1.0
aasg16
S' N'
p738
sba(ibasisset
Shell
p739
(dp740
g8
S'F'
p741
sg10
(lp742
F0.68500000000000005
asg12
(lp743
(lp744
F1.0
aasg16
S' N'
p745
sba(ibasisset
Shell
p746
(dp747
g8
S'G'
p748
sg10
(lp749
F1.427
asg12
(lp750
(lp751
F1.0
aasg16
S' N'
p752
sba(ibasisset
Shell
p753
(dp754
g8
S'S'
p755
sg10
(lp756
F0.054640000000000001
asg12
(lp757
(lp758
F1.0
aasg16
S' N'
p759
sba(ibasisset
Shell
p760
(dp761
g8
S'P'
p762
sg10
(lp763
F0.044019999999999997
asg12
(lp764
(lp765
F1.0
aasg16
S' N'
p766
sba(ibasisset
Shell
p767
(dp768
g8
S'D'
p769
sg10
(lp770
F0.111
asg12
(lp771
(lp772
F1.0
aasg16
S' N'
p773
sba(ibasisset
Shell
p774
(dp775
g8
S'F'
p776
sg10
(lp777
F0.245
asg12
(lp778
(lp779
F1.0
aasg16
S' N'
p780
sba(ibasisset
Shell
p781
(dp782
g8
S'G'
p783
sg10
(lp784
F0.55900000000000005
asg12
(lp785
(lp786
F1.0
aasg16
S' N'
p787
sbasS'HE'
p788
(lp789
(ibasisset
Shell
p790
(dp791
g8
S'S'
p792
sg10
(lp793
F528.5
aF79.310000000000002
aF18.050000000000001
aF5.085
asg12
(lp794
(lp795
F0.00093999999999999997
aF0.0072139999999999999
aF0.035975
aF0.12778200000000001
aasg16
S'HE'
p796
sba(ibasisset
Shell
p797
(dp798
g8
S'S'
p799
sg10
(lp800
F1.609
asg12
(lp801
(lp802
F1.0
aasg16
S'HE'
p803
sba(ibasisset
Shell
p804
(dp805
g8
S'S'
p806
sg10
(lp807
F0.5363
asg12
(lp808
(lp809
F1.0
aasg16
S'HE'
p810
sba(ibasisset
Shell
p811
(dp812
g8
S'S'
p813
sg10
(lp814
F0.18329999999999999
asg12
(lp815
(lp816
F1.0
aasg16
S'HE'
p817
sba(ibasisset
Shell
p818
(dp819
g8
S'P'
p820
sg10
(lp821
F5.9939999999999998
asg12
(lp822
(lp823
F1.0
aasg16
S'HE'
p824
sba(ibasisset
Shell
p825
(dp826
g8
S'P'
p827
sg10
(lp828
F1.7450000000000001
asg12
(lp829
(lp830
F1.0
aasg16
S'HE'
p831
sba(ibasisset
Shell
p832
(dp833
g8
S'P'
p834
sg10
(lp835
F0.56000000000000005
asg12
(lp836
(lp837
F1.0
aasg16
S'HE'
p838
sba(ibasisset
Shell
p839
(dp840
g8
S'D'
p841
sg10
(lp842
F4.2990000000000004
asg12
(lp843
(lp844
F1.0
aasg16
S'HE'
p845
sba(ibasisset
Shell
p846
(dp847
g8
S'D'
p848
sg10
(lp849
F1.2230000000000001
asg12
(lp850
(lp851
F1.0
aasg16
S'HE'
p852
sba(ibasisset
Shell
p853
(dp854
g8
S'F'
p855
sg10
(lp856
F2.6800000000000002
asg12
(lp857
(lp858
F1.0
aasg16
S'HE'
p859
sba(ibasisset
Shell
p860
(dp861
g8
S'S'
p862
sg10
(lp863
F0.048189999999999997
asg12
(lp864
(lp865
F1.0
aasg16
S'HE'
p866
sba(ibasisset
Shell
p867
(dp868
g8
S'P'
p869
sg10
(lp870
F0.16259999999999999
asg12
(lp871
(lp872
F1.0
aasg16
S'HE'
p873
sba(ibasisset
Shell
p874
(dp875
g8
S'D'
p876
sg10
(lp877
F0.35099999999999998
asg12
(lp878
(lp879
F1.0
aasg16
S'HE'
p880
sba(ibasisset
Shell
p881
(dp882
g8
S'F'
p883
sg10
(lp884
F0.69059999999999999
asg12
(lp885
(lp886
F1.0
aasg16
S'HE'
p887
sbassb.