(ibasisset
BasisSet
p0
(dp1
S'basisDictionary'
p2
(dp3
S'C'
p4
(lp5
(ibasisset
Shell
p6
(dp7
S'angularMomentum'
p8
S'S'
p9
sS'exponents'
p10
(lp11
F8236.0
aF1235.0
aF280.80000000000001
aF79.269999999999996
aF25.59
aF8.9969999999999999
aF3.319
aF0.36430000000000001
asS'coefficients'
p12
(lp13
(lp14
F0.000531
aF0.0041079999999999997
aF0.021087000000000002
aF0.081852999999999995
aF0.234817
aF0.43440099999999998
aF0.34612900000000002
aF-0.0089829999999999997
aa(lp15
F-0.000113
aF-0.00087799999999999998
aF-0.0045399999999999998
aF-0.018133
aF-0.055759999999999997
aF-0.12689500000000001
aF-0.170352
aF0.59868399999999999
aasS'atom'
p16
S' C'
p17
sba(ibasisset
Shell
p18
(dp19
g8
S'S'
p20
sg10
(lp21
F0.90590000000000004
asg12
(lp22
(lp23
F1.0
aasg16
S' C'
p24
sba(ibasisset
Shell
p25
(dp26
g8
S'S'
p27
sg10
(lp28
F0.1285
asg12
(lp29
(lp30
F1.0
aasg16
S' C'
p31
sba(ibasisset
Shell
p32
(dp33
g8
S'P'
p34
sg10
(lp35
F18.710000000000001
aF4.133
aF1.2
asg12
(lp36
(lp37
F0.014031
aF0.086865999999999999
aF0.29021599999999997
aasg16
S' C'
p38
sba(ibasisset
Shell
p39
(dp40
g8
S'P'
p41
sg10
(lp42
F0.38269999999999998
asg12
(lp43
(lp44
F1.0
aasg16
S' C'
p45
sba(ibasisset
Shell
p46
(dp47
g8
S'P'
p48
sg10
(lp49
F0.12089999999999999
asg12
(lp50
(lp51
F1.0
aasg16
S' C'
p52
sba(ibasisset
Shell
p53
(dp54
g8
S'D'
p55
sg10
(lp56
F1.097
asg12
(lp57
(lp58
F1.0
aasg16
S' C'
p59
sba(ibasisset
Shell
p60
(dp61
g8
S'D'
p62
sg10
(lp63
F0.318
asg12
(lp64
(lp65
F1.0
aasg16
S' C'
p66
sba(ibasisset
Shell
p67
(dp68
g8
S'F'
p69
sg10
(lp70
F0.76100000000000001
asg12
(lp71
(lp72
F1.0
aasg16
S' C'
p73
sba(ibasisset
Shell
p74
(dp75
g8
S'S'
p76
sg10
(lp77
F4.2919999999999998
asg12
(lp78
(lp79
F1.0
aasg16
S' C'
p80
sba(ibasisset
Shell
p81
(dp82
g8
S'S'
p83
sg10
(lp84
F11.875999999999999
asg12
(lp85
(lp86
F1.0
aasg16
S' C'
p87
sba(ibasisset
Shell
p88
(dp89
g8
S'P'
p90
sg10
(lp91
F8.7780000000000005
asg12
(lp92
(lp93
F1.0
aasg16
S' C'
p94
sba(ibasisset
Shell
p95
(dp96
g8
S'P'
p97
sg10
(lp98
F33.189999999999998
asg12
(lp99
(lp100
F1.0
aasg16
S' C'
p101
sba(ibasisset
Shell
p102
(dp103
g8
S'D'
p104
sg10
(lp105
F14.839
asg12
(lp106
(lp107
F1.0
aasg16
S' C'
p108
sba(ibasisset
Shell
p109
(dp110
g8
S'S'
p111
sg10
(lp112
F0.044019999999999997
asg12
(lp113
(lp114
F1.0
aasg16
S' C'
p115
sba(ibasisset
Shell
p116
(dp117
g8
S'P'
p118
sg10
(lp119
F0.03569
asg12
(lp120
(lp121
F1.0
aasg16
S' C'
p122
sba(ibasisset
Shell
p123
(dp124
g8
S'D'
p125
sg10
(lp126
F0.10000000000000001
asg12
(lp127
(lp128
F1.0
aasg16
S' C'
p129
sba(ibasisset
Shell
p130
(dp131
g8
S'F'
p132
sg10
(lp133
F0.26800000000000002
asg12
(lp134
(lp135
F1.0
aasg16
S' C'
p136
sbasS'H'
p137
(lp138
(ibasisset
Shell
p139
(dp140
g8
S'S'
p141
sg10
(lp142
F33.869999999999997
aF5.0949999999999998
aF1.159
asg12
(lp143
(lp144
F0.0060679999999999996
aF0.045308000000000001
aF0.202822
aasg16
S' H'
p145
sba(ibasisset
Shell
p146
(dp147
g8
S'S'
p148
sg10
(lp149
F0.32579999999999998
asg12
(lp150
(lp151
F1.0
aasg16
S' H'
p152
sba(ibasisset
Shell
p153
(dp154
g8
S'S'
p155
sg10
(lp156
F0.1027
asg12
(lp157
(lp158
F1.0
aasg16
S' H'
p159
sba(ibasisset
Shell
p160
(dp161
g8
S'P'
p162
sg10
(lp163
F1.407
asg12
(lp164
(lp165
F1.0
aasg16
S' H'
p166
sba(ibasisset
Shell
p167
(dp168
g8
S'P'
p169
sg10
(lp170
F0.38800000000000001
asg12
(lp171
(lp172
F1.0
aasg16
S' H'
p173
sba(ibasisset
Shell
p174
(dp175
g8
S'D'
p176
sg10
(lp177
F1.0569999999999999
asg12
(lp178
(lp179
F1.0
aasg16
S' H'
p180
sba(ibasisset
Shell
p181
(dp182
g8
S'S'
p183
sg10
(lp184
F0.025260000000000001
asg12
(lp185
(lp186
F1.0
aasg16
S' H'
p187
sba(ibasisset
Shell
p188
(dp189
g8
S'P'
p190
sg10
(lp191
F0.10199999999999999
asg12
(lp192
(lp193
F1.0
aasg16
S' H'
p194
sba(ibasisset
Shell
p195
(dp196
g8
S'D'
p197
sg10
(lp198
F0.247
asg12
(lp199
(lp200
F1.0
aasg16
S' H'
p201
sbasS'NE'
p202
(lp203
(ibasisset
Shell
p204
(dp205
S'angularMomentum'
p206
S'S'
p207
sS'exponents'
p208
(lp209
F24350.0
aF3650.0
aF829.60000000000002
aF234.0
aF75.609999999999999
aF26.73
aF9.9269999999999996
aF1.1020000000000001
asS'coefficients'
p210
(lp211
(lp212
F0.00050199999999999995
aF0.0038809999999999999
aF0.019997000000000001
aF0.078418000000000002
aF0.22967599999999999
aF0.432722
aF0.35064200000000001
aF-0.0076449999999999999
aa(lp213
F-0.000118
aF-0.00091500000000000001
aF-0.0047369999999999999
aF-0.019233
aF-0.060368999999999999
aF-0.142508
aF-0.17771000000000001
aF0.60583600000000004
aasS'atom'
p214
S'NE'
p215
sba(ibasisset
Shell
p216
(dp217
g206
S'S'
p218
sg208
(lp219
F2.8359999999999999
asg210
(lp220
(lp221
F1.0
aasg214
S'NE'
p222
sba(ibasisset
Shell
p223
(dp224
g206
S'S'
p225
sg208
(lp226
F0.37819999999999998
asg210
(lp227
(lp228
F1.0
aasg214
S'NE'
p229
sba(ibasisset
Shell
p230
(dp231
g206
S'P'
p232
sg208
(lp233
F54.700000000000003
aF12.43
aF3.6789999999999998
asg210
(lp234
(lp235
F0.017151
aF0.107656
aF0.32168099999999999
aasg214
S'NE'
p236
sba(ibasisset
Shell
p237
(dp238
g206
S'P'
p239
sg208
(lp240
F1.143
asg210
(lp241
(lp242
F1.0
aasg214
S'NE'
p243
sba(ibasisset
Shell
p244
(dp245
g206
S'P'
p246
sg208
(lp247
F0.33000000000000002
asg210
(lp248
(lp249
F1.0
aasg214
S'NE'
p250
sba(ibasisset
Shell
p251
(dp252
g206
S'D'
p253
sg208
(lp254
F4.0140000000000002
asg210
(lp255
(lp256
F1.0
aasg214
S'NE'
p257
sba(ibasisset
Shell
p258
(dp259
g206
S'D'
p260
sg208
(lp261
F1.0960000000000001
asg210
(lp262
(lp263
F1.0
aasg214
S'NE'
p264
sba(ibasisset
Shell
p265
(dp266
g206
S'F'
p267
sg208
(lp268
F2.544
asg210
(lp269
(lp270
F1.0
aasg214
S'NE'
p271
sba(ibasisset
Shell
p272
(dp273
g206
S'S'
p274
sg208
(lp275
F0.1133
asg210
(lp276
(lp277
F1.0
aasg214
S'NE'
p278
sba(ibasisset
Shell
p279
(dp280
g206
S'P'
p281
sg208
(lp282
F0.091749999999999998
asg210
(lp283
(lp284
F1.0
aasg214
S'NE'
p285
sba(ibasisset
Shell
p286
(dp287
g206
S'D'
p288
sg208
(lp289
F0.38600000000000001
asg210
(lp290
(lp291
F1.0
aasg214
S'NE'
p292
sba(ibasisset
Shell
p293
(dp294
g206
S'F'
p295
sg208
(lp296
F1.0840000000000001
asg210
(lp297
(lp298
F1.0
aasg214
S'NE'
p299
sbasS'O'
p300
(lp301
(ibasisset
Shell
p302
(dp303
g8
S'S'
p304
sg10
(lp305
F15330.0
aF2299.0
aF522.39999999999998
aF147.30000000000001
aF47.549999999999997
aF16.760000000000002
aF6.2069999999999999
aF0.68820000000000003
asg12
(lp306
(lp307
F0.00050799999999999999
aF0.0039290000000000002
aF0.020243000000000001
aF0.079181000000000001
aF0.230687
aF0.433118
aF0.35026000000000002
aF-0.0081539999999999998
aa(lp308
F-0.000115
aF-0.00089499999999999996
aF-0.0046360000000000004
aF-0.018724000000000001
aF-0.058463000000000001
aF-0.136463
aF-0.17574000000000001
aF0.60341800000000001
aasg16
S' O'
p309
sba(ibasisset
Shell
p310
(dp311
g8
S'S'
p312
sg10
(lp313
F1.752
asg12
(lp314
(lp315
F1.0
aasg16
S' O'
p316
sba(ibasisset
Shell
p317
(dp318
g8
S'S'
p319
sg10
(lp320
F0.2384
asg12
(lp321
(lp322
F1.0
aasg16
S' O'
p323
sba(ibasisset
Shell
p324
(dp325
g8
S'P'
p326
sg10
(lp327
F34.460000000000001
aF7.7489999999999997
aF2.2799999999999998
asg12
(lp328
(lp329
F0.015928000000000001
aF0.099739999999999995
aF0.31049199999999999
aasg16
S' O'
p330
sba(ibasisset
Shell
p331
(dp332
g8
S'P'
p333
sg10
(lp334
F0.71560000000000001
asg12
(lp335
(lp336
F1.0
aasg16
S' O'
p337
sba(ibasisset
Shell
p338
(dp339
g8
S'P'
p340
sg10
(lp341
F0.214
asg12
(lp342
(lp343
F1.0
aa(lp344
F1.0
aasg16
S' O'
p345
sba(ibasisset
Shell
p346
(dp347
g8
S'D'
p348
sg10
(lp349
F2.3140000000000001
asg12
(lp350
(lp351
F1.0
aasg16
S' O'
p352
sba(ibasisset
Shell
p353
(dp354
g8
S'D'
p355
sg10
(lp356
F0.64500000000000002
asg12
(lp357
(lp358
F1.0
aasg16
S' O'
p359
sba(ibasisset
Shell
p360
(dp361
g8
S'F'
p362
sg10
(lp363
F1.4279999999999999
asg12
(lp364
(lp365
F1.0
aasg16
S' O'
p366
sba(ibasisset
Shell
p367
(dp368
g8
S'S'
p369
sg10
(lp370
F7.8449999999999998
asg12
(lp371
(lp372
F1.0
aasg16
S' O'
p373
sba(ibasisset
Shell
p374
(dp375
g8
S'S'
p376
sg10
(lp377
F21.032
asg12
(lp378
(lp379
F1.0
aasg16
S' O'
p380
sba(ibasisset
Shell
p381
(dp382
g8
S'P'
p383
sg10
(lp384
F15.159000000000001
asg12
(lp385
(lp386
F1.0
aasg16
S' O'
p387
sba(ibasisset
Shell
p388
(dp389
g8
S'P'
p390
sg10
(lp391
F57.436999999999998
asg12
(lp392
(lp393
F1.0
aasg16
S' O'
p394
sba(ibasisset
Shell
p395
(dp396
g8
S'D'
p397
sg10
(lp398
F15.858000000000001
asg12
(lp399
(lp400
F1.0
aasg16
S' O'
p401
sba(ibasisset
Shell
p402
(dp403
g8
S'S'
p404
sg10
(lp405
F0.073760000000000006
asg12
(lp406
(lp407
F1.0
aasg16
S' O'
p408
sba(ibasisset
Shell
p409
(dp410
g8
S'P'
p411
sg10
(lp412
F0.059740000000000001
asg12
(lp413
(lp414
F1.0
aasg16
S' O'
p415
sba(ibasisset
Shell
p416
(dp417
g8
S'F'
p418
sg10
(lp419
F0.5
asg12
(lp420
(lp421
F1.0
aasg16
S' O'
p422
sbasS'N'
p423
(lp424
(ibasisset
Shell
p425
(dp426
g8
S'S'
p427
sg10
(lp428
F11420.0
aF1712.0
aF389.30000000000001
aF110.0
aF35.57
aF12.539999999999999
aF4.6440000000000001
aF0.51180000000000003
asg12
(lp429
(lp430
F0.00052300000000000003
aF0.004045
aF0.020774999999999998
aF0.080726999999999993
aF0.233074
aF0.43350100000000003
aF0.347472
aF-0.0085079999999999999
aa(lp431
F-0.000115
aF-0.00089499999999999996
aF-0.0046239999999999996
aF-0.018527999999999999
aF-0.057339000000000001
aF-0.132076
aF-0.17251
aF0.59994400000000003
aasg16
S' N'
p432
sba(ibasisset
Shell
p433
(dp434
g8
S'S'
p435
sg10
(lp436
F1.2929999999999999
asg12
(lp437
(lp438
F1.0
aasg16
S' N'
p439
sba(ibasisset
Shell
p440
(dp441
g8
S'S'
p442
sg10
(lp443
F0.1787
asg12
(lp444
(lp445
F1.0
aasg16
S' N'
p446
sba(ibasisset
Shell
p447
(dp448
g8
S'P'
p449
sg10
(lp450
F26.629999999999999
aF5.9480000000000004
aF1.742
asg12
(lp451
(lp452
F0.014670000000000001
aF0.091763999999999998
aF0.29868299999999998
aasg16
S' N'
p453
sba(ibasisset
Shell
p454
(dp455
g8
S'P'
p456
sg10
(lp457
F0.55500000000000005
asg12
(lp458
(lp459
F1.0
aasg16
S' N'
p460
sba(ibasisset
Shell
p461
(dp462
g8
S'P'
p463
sg10
(lp464
F0.17249999999999999
asg12
(lp465
(lp466
F1.0
aasg16
S' N'
p467
sba(ibasisset
Shell
p468
(dp469
g8
S'D'
p470
sg10
(lp471
F1.6539999999999999
asg12
(lp472
(lp473
F1.0
aasg16
S' N'
p474
sba(ibasisset
Shell
p475
(dp476
g8
S'D'
p477
sg10
(lp478
F0.46899999999999997
asg12
(lp479
(lp480
F1.0
aasg16
S' N'
p481
sba(ibasisset
Shell
p482
(dp483
g8
S'F'
p484
sg10
(lp485
F1.093
asg12
(lp486
(lp487
F1.0
aasg16
S' N'
p488
sba(ibasisset
Shell
p489
(dp490
g8
S'S'
p491
sg10
(lp492
F5.952
asg12
(lp493
(lp494
F1.0
aasg16
S' N'
p495
sba(ibasisset
Shell
p496
(dp497
g8
S'S'
p498
sg10
(lp499
F16.201000000000001
asg12
(lp500
(lp501
F1.0
aasg16
S' N'
p502
sba(ibasisset
Shell
p503
(dp504
g8
S'P'
p505
sg10
(lp506
F11.871
asg12
(lp507
(lp508
F1.0
aasg16
S' N'
p509
sba(ibasisset
Shell
p510
(dp511
g8
S'P'
p512
sg10
(lp513
F44.848999999999997
asg12
(lp514
(lp515
F1.0
aasg16
S' N'
p516
sba(ibasisset
Shell
p517
(dp518
g8
S'D'
p519
sg10
(lp520
F14.199999999999999
asg12
(lp521
(lp522
F1.0
aasg16
S' N'
p523
sba(ibasisset
Shell
p524
(dp525
g8
S'S'
p526
sg10
(lp527
F0.057599999999999998
asg12
(lp528
(lp529
F1.0
aasg16
S' N'
p530
sba(ibasisset
Shell
p531
(dp532
g8
S'P'
p533
sg10
(lp534
F0.049099999999999998
asg12
(lp535
(lp536
F1.0
aasg16
S' N'
p537
sba(ibasisset
Shell
p538
(dp539
g8
S'D'
p540
sg10
(lp541
F0.151
asg12
(lp542
(lp543
F1.0
aasg16
S' N'
p544
sba(ibasisset
Shell
p545
(dp546
g8
S'F'
p547
sg10
(lp548
F0.36399999999999999
asg12
(lp549
(lp550
F1.0
aasg16
S' N'
p551
sbasS'S'
p552
(lp553
(ibasisset
Shell
p554
(dp555
g8
S'S'
p556
sg10
(lp557
F374100.0
aF56050.0
aF12760.0
aF3615.0
aF1183.0
aF428.80000000000001
aF167.80000000000001
aF69.469999999999999
aF29.84
aF12.720000000000001
aF5.2439999999999998
aF2.2189999999999999
aF0.34899999999999998
asg12
(lp558
(lp559
F5.4214e-05
aF0.00042085499999999998
aF0.0022069799999999999
aF0.0091925800000000005
aF0.032112300000000003
aF0.094668299999999997
aF0.22363
aF0.37439299999999998
aF0.32910800000000001
aF0.084703799999999996
aF0.00044085100000000002
aF0.0016482700000000001
aF0.00030130599999999999
aa(lp560
F-1.49837e-05
aF-0.000116198
aF-0.00061158299999999996
aF-0.0025536999999999999
aF-0.0090870800000000009
aF-0.0277045
aF-0.072001999999999997
aF-0.14643900000000001
aF-0.19514999999999999
aF0.00819193
aF0.51660099999999998
aF0.54217800000000005
aF-0.0091807199999999999
aa(lp561
F4.3506600000000003e-06
aF3.3714000000000003e-05
aF0.00017767400000000001
aF0.000741116
aF0.00264591
aF0.0080748699999999996
aF0.021227599999999999
aF0.043832299999999998
aF0.061271600000000002
aF-0.0036151
aF-0.20451
aF-0.38187100000000002
aF0.71414699999999998
aasg16
S' S'
p562
sba(ibasisset
Shell
p563
(dp564
g8
S'S'
p565
sg10
(lp566
F0.77669999999999995
asg12
(lp567
(lp568
F1.0
aasg16
S' S'
p569
sba(ibasisset
Shell
p570
(dp571
g8
S'S'
p572
sg10
(lp573
F0.13220000000000001
asg12
(lp574
(lp575
F1.0
aasg16
S' S'
p576
sba(ibasisset
Shell
p577
(dp578
g8
S'P'
p579
sg10
(lp580
F574.39999999999998
aF135.80000000000001
aF43.189999999999998
aF15.869999999999999
aF6.2080000000000002
aF2.4830000000000001
aF0.32290000000000002
asg12
(lp581
(lp582
F0.0024226400000000002
aF0.019279600000000001
aF0.088540099999999997
aF0.25465399999999999
aF0.43398399999999998
aF0.35495300000000002
aF-0.0050297700000000002
aa(lp583
F-0.00062010199999999998
aF-0.00493882
aF-0.023264699999999999
aF-0.068519499999999997
aF-0.12389600000000001
aF-0.096949900000000006
aF0.56939399999999996
aasg16
S' S'
p584
sba(ibasisset
Shell
p585
(dp586
g8
S'P'
p587
sg10
(lp588
F0.86880000000000002
asg12
(lp589
(lp590
F1.0
aasg16
S' S'
p591
sba(ibasisset
Shell
p592
(dp593
g8
S'P'
p594
sg10
(lp595
F0.10979999999999999
asg12
(lp596
(lp597
F1.0
aasg16
S' S'
p598
sba(ibasisset
Shell
p599
(dp600
g8
S'D'
p601
sg10
(lp602
F0.26900000000000002
asg12
(lp603
(lp604
F1.0
aasg16
S' S'
p605
sba(ibasisset
Shell
p606
(dp607
g8
S'D'
p608
sg10
(lp609
F0.81899999999999995
asg12
(lp610
(lp611
F1.0
aasg16
S' S'
p612
sba(ibasisset
Shell
p613
(dp614
g8
S'F'
p615
sg10
(lp616
F0.55700000000000005
asg12
(lp617
(lp618
F1.0
aasg16
S' S'
p619
sba(ibasisset
Shell
p620
(dp621
g8
S'S'
p622
sg10
(lp623
F12.928000000000001
asg12
(lp624
(lp625
F1.0
aasg16
S' S'
p626
sba(ibasisset
Shell
p627
(dp628
g8
S'S'
p629
sg10
(lp630
F2.4129999999999998
asg12
(lp631
(lp632
F1.0
aasg16
S' S'
p633
sba(ibasisset
Shell
p634
(dp635
g8
S'P'
p636
sg10
(lp637
F8.1140000000000008
asg12
(lp638
(lp639
F1.0
aasg16
S' S'
p640
sba(ibasisset
Shell
p641
(dp642
g8
S'P'
p643
sg10
(lp644
F3.1059999999999999
asg12
(lp645
(lp646
F1.0
aasg16
S' S'
p647
sba(ibasisset
Shell
p648
(dp649
g8
S'D'
p650
sg10
(lp651
F15.254
asg12
(lp652
(lp653
F1.0
aasg16
S' S'
p654
sba(ibasisset
Shell
p655
(dp656
g8
S'D'
p657
sg10
(lp658
F4.8449999999999998
asg12
(lp659
(lp660
F1.0
aasg16
S' S'
p661
sba(ibasisset
Shell
p662
(dp663
g8
S'F'
p664
sg10
(lp665
F10.052
asg12
(lp666
(lp667
F1.0
aasg16
S' S'
p668
sba(ibasisset
Shell
p669
(dp670
g8
S'S'
p671
sg10
(lp672
F0.049700000000000001
asg12
(lp673
(lp674
F1.0
aasg16
S' S'
p675
sba(ibasisset
Shell
p676
(dp677
g8
S'P'
p678
sg10
(lp679
F0.035099999999999999
asg12
(lp680
(lp681
F1.0
aasg16
S' S'
p682
sba(ibasisset
Shell
p683
(dp684
g8
S'D'
p685
sg10
(lp686
F0.10100000000000001
asg12
(lp687
(lp688
F1.0
aasg16
S' S'
p689
sba(ibasisset
Shell
p690
(dp691
g8
S'F'
p692
sg10
(lp693
F0.218
asg12
(lp694
(lp695
F1.0
aasg16
S' S'
p696
sbasS'HE'
p697
(lp698
(ibasisset
Shell
p699
(dp700
S'angularMomentum'
p701
S'S'
p702
sS'exponents'
p703
(lp704
F234.0
aF35.159999999999997
aF7.9889999999999999
aF2.2120000000000002
asS'coefficients'
p705
(lp706
(lp707
F0.0025869999999999999
aF0.019532999999999998
aF0.090997999999999996
aF0.27205000000000001
aasS'atom'
p708
S'HE'
p709
sba(ibasisset
Shell
p710
(dp711
g701
S'S'
p712
sg703
(lp713
F0.66690000000000005
asg705
(lp714
(lp715
F1.0
aasg708
S'HE'
p716
sba(ibasisset
Shell
p717
(dp718
g701
S'S'
p719
sg703
(lp720
F0.2089
asg705
(lp721
(lp722
F1.0
aasg708
S'HE'
p723
sba(ibasisset
Shell
p724
(dp725
g701
S'P'
p726
sg703
(lp727
F3.044
asg705
(lp728
(lp729
F1.0
aasg708
S'HE'
p730
sba(ibasisset
Shell
p731
(dp732
g701
S'P'
p733
sg703
(lp734
F0.75800000000000001
asg705
(lp735
(lp736
F1.0
aasg708
S'HE'
p737
sba(ibasisset
Shell
p738
(dp739
g701
S'D'
p740
sg703
(lp741
F1.9650000000000001
asg705
(lp742
(lp743
F1.0
aasg708
S'HE'
p744
sba(ibasisset
Shell
p745
(dp746
g701
S'S'
p747
sg703
(lp748
F0.051380000000000002
asg705
(lp749
(lp750
F1.0
aasg708
S'HE'
p751
sba(ibasisset
Shell
p752
(dp753
g701
S'P'
p754
sg703
(lp755
F0.1993
asg705
(lp756
(lp757
F1.0
aasg708
S'HE'
p758
sba(ibasisset
Shell
p759
(dp760
g701
S'D'
p761
sg703
(lp762
F0.4592
asg705
(lp763
(lp764
F1.0
aasg708
S'HE'
p765
sbassb.