ccopy_reg
_reconstructor
p0
(cbasisset
BasisSet
p1
c__builtin__
object
p2
Ntp3
Rp4
(dp5
S'basisDictionary'
p6
(dp7
S'H'
p8
(lp9
g0
(cbasisset
Shell
p10
g2
Ntp11
Rp12
(dp13
S'angularMomentum'
p14
S'S'
p15
sS'exponents'
p16
(lp17
F33.869999999999997
aF5.0949999999999998
aF1.159
asS'coefficients'
p18
(lp19
(lp20
F0.0060679999999999996
aF0.045308000000000001
aF0.202822
aasS'atom'
p21
S' H'
p22
sbag0
(g10
g2
Ntp23
Rp24
(dp25
g14
S'S'
p26
sg16
(lp27
F0.32579999999999998
asg18
(lp28
(lp29
F1.0
aasg21
S' H'
p30
sbag0
(g10
g2
Ntp31
Rp32
(dp33
g14
S'S'
p34
sg16
(lp35
F0.1027
asg18
(lp36
(lp37
F1.0
aasg21
S' H'
p38
sbag0
(g10
g2
Ntp39
Rp40
(dp41
g14
S'P'
p42
sg16
(lp43
F1.407
asg18
(lp44
(lp45
F1.0
aasg21
S' H'
p46
sbag0
(g10
g2
Ntp47
Rp48
(dp49
g14
S'P'
p50
sg16
(lp51
F0.38800000000000001
asg18
(lp52
(lp53
F1.0
aasg21
S' H'
p54
sbag0
(g10
g2
Ntp55
Rp56
(dp57
g14
S'D'
p58
sg16
(lp59
F1.0569999999999999
asg18
(lp60
(lp61
F1.0
aasg21
S' H'
p62
sbag0
(g10
g2
Ntp63
Rp64
(dp65
g14
S'S'
p66
sg16
(lp67
F0.025260000000000001
asg18
(lp68
(lp69
F1.0
aasg21
S' H'
p70
sbag0
(g10
g2
Ntp71
Rp72
(dp73
g14
S'P'
p74
sg16
(lp75
F0.10199999999999999
asg18
(lp76
(lp77
F1.0
aasg21
S' H'
p78
sbag0
(g10
g2
Ntp79
Rp80
(dp81
g14
S'D'
p82
sg16
(lp83
F0.247
asg18
(lp84
(lp85
F1.0
aasg21
S' H'
p86
sbasS'S'
p87
(lp88
g0
(g10
g2
Ntp89
Rp90
(dp91
g14
S'S'
p92
sg16
(lp93
F374100.0
aF56050.0
aF12760.0
aF3615.0
aF1183.0
aF428.80000000000001
aF167.80000000000001
aF69.469999999999999
aF29.84
aF12.720000000000001
aF5.2439999999999998
aF2.2189999999999999
aF0.34899999999999998
asg18
(lp94
(lp95
F5.4214e-05
aF0.00042085499999999998
aF0.0022069799999999999
aF0.0091925800000000005
aF0.032112300000000003
aF0.094668299999999997
aF0.22363
aF0.37439299999999998
aF0.32910800000000001
aF0.084703799999999996
aF0.00044085100000000002
aF0.0016482700000000001
aF0.00030130599999999999
aa(lp96
F-1.49837e-05
aF-0.000116198
aF-0.00061158299999999996
aF-0.0025536999999999999
aF-0.0090870800000000009
aF-0.0277045
aF-0.072001999999999997
aF-0.14643900000000001
aF-0.19514999999999999
aF0.00819193
aF0.51660099999999998
aF0.54217800000000005
aF-0.0091807199999999999
aa(lp97
F4.3506600000000003e-06
aF3.3714000000000003e-05
aF0.00017767400000000001
aF0.000741116
aF0.00264591
aF0.0080748699999999996
aF0.021227599999999999
aF0.043832299999999998
aF0.061271600000000002
aF-0.0036151
aF-0.20451
aF-0.38187100000000002
aF0.71414699999999998
aasg21
S' S'
p98
sbag0
(g10
g2
Ntp99
Rp100
(dp101
g14
S'S'
p102
sg16
(lp103
F0.77669999999999995
asg18
(lp104
(lp105
F1.0
aasg21
S' S'
p106
sbag0
(g10
g2
Ntp107
Rp108
(dp109
g14
S'S'
p110
sg16
(lp111
F0.13220000000000001
asg18
(lp112
(lp113
F1.0
aasg21
S' S'
p114
sbag0
(g10
g2
Ntp115
Rp116
(dp117
g14
S'P'
p118
sg16
(lp119
F574.39999999999998
aF135.80000000000001
aF43.189999999999998
aF15.869999999999999
aF6.2080000000000002
aF2.4830000000000001
aF0.32290000000000002
asg18
(lp120
(lp121
F0.0024226400000000002
aF0.019279600000000001
aF0.088540099999999997
aF0.25465399999999999
aF0.43398399999999998
aF0.35495300000000002
aF-0.0050297700000000002
aa(lp122
F-0.00062010199999999998
aF-0.00493882
aF-0.023264699999999999
aF-0.068519499999999997
aF-0.12389600000000001
aF-0.096949900000000006
aF0.56939399999999996
aasg21
S' S'
p123
sbag0
(g10
g2
Ntp124
Rp125
(dp126
g14
S'P'
p127
sg16
(lp128
F0.86880000000000002
asg18
(lp129
(lp130
F1.0
aasg21
S' S'
p131
sbag0
(g10
g2
Ntp132
Rp133
(dp134
g14
S'P'
p135
sg16
(lp136
F0.10979999999999999
asg18
(lp137
(lp138
F1.0
aasg21
S' S'
p139
sbag0
(g10
g2
Ntp140
Rp141
(dp142
g14
S'D'
p143
sg16
(lp144
F0.26900000000000002
asg18
(lp145
(lp146
F1.0
aasg21
S' S'
p147
sbag0
(g10
g2
Ntp148
Rp149
(dp150
g14
S'D'
p151
sg16
(lp152
F0.81899999999999995
asg18
(lp153
(lp154
F1.0
aasg21
S' S'
p155
sbag0
(g10
g2
Ntp156
Rp157
(dp158
g14
S'F'
p159
sg16
(lp160
F0.55700000000000005
asg18
(lp161
(lp162
F1.0
aasg21
S' S'
p163
sbag0
(g10
g2
Ntp164
Rp165
(dp166
g14
S'S'
p167
sg16
(lp168
F12.928000000000001
asg18
(lp169
(lp170
F1.0
aasg21
S' S'
p171
sbag0
(g10
g2
Ntp172
Rp173
(dp174
g14
S'S'
p175
sg16
(lp176
F2.4129999999999998
asg18
(lp177
(lp178
F1.0
aasg21
S' S'
p179
sbag0
(g10
g2
Ntp180
Rp181
(dp182
g14
S'P'
p183
sg16
(lp184
F8.1140000000000008
asg18
(lp185
(lp186
F1.0
aasg21
S' S'
p187
sbag0
(g10
g2
Ntp188
Rp189
(dp190
g14
S'P'
p191
sg16
(lp192
F3.1059999999999999
asg18
(lp193
(lp194
F1.0
aasg21
S' S'
p195
sbag0
(g10
g2
Ntp196
Rp197
(dp198
g14
S'D'
p199
sg16
(lp200
F15.254
asg18
(lp201
(lp202
F1.0
aasg21
S' S'
p203
sbag0
(g10
g2
Ntp204
Rp205
(dp206
g14
S'D'
p207
sg16
(lp208
F4.8449999999999998
asg18
(lp209
(lp210
F1.0
aasg21
S' S'
p211
sbag0
(g10
g2
Ntp212
Rp213
(dp214
g14
S'F'
p215
sg16
(lp216
F10.052
asg18
(lp217
(lp218
F1.0
aasg21
S' S'
p219
sbag0
(g10
g2
Ntp220
Rp221
(dp222
g14
S'S'
p223
sg16
(lp224
F0.049700000000000001
asg18
(lp225
(lp226
F1.0
aasg21
S' S'
p227
sbag0
(g10
g2
Ntp228
Rp229
(dp230
g14
S'P'
p231
sg16
(lp232
F0.035099999999999999
asg18
(lp233
(lp234
F1.0
aasg21
S' S'
p235
sbag0
(g10
g2
Ntp236
Rp237
(dp238
g14
S'D'
p239
sg16
(lp240
F0.10100000000000001
asg18
(lp241
(lp242
F1.0
aasg21
S' S'
p243
sbag0
(g10
g2
Ntp244
Rp245
(dp246
g14
S'F'
p247
sg16
(lp248
F0.218
asg18
(lp249
(lp250
F1.0
aasg21
S' S'
p251
sbasS'C'
p252
(lp253
g0
(g10
g2
Ntp254
Rp255
(dp256
g14
S'S'
p257
sg16
(lp258
F8236.0
aF1235.0
aF280.80000000000001
aF79.269999999999996
aF25.59
aF8.9969999999999999
aF3.319
aF0.36430000000000001
asg18
(lp259
(lp260
F0.000531
aF0.0041079999999999997
aF0.021087000000000002
aF0.081852999999999995
aF0.234817
aF0.43440099999999998
aF0.34612900000000002
aF-0.0089829999999999997
aa(lp261
F-0.000113
aF-0.00087799999999999998
aF-0.0045399999999999998
aF-0.018133
aF-0.055759999999999997
aF-0.12689500000000001
aF-0.170352
aF0.59868399999999999
aasg21
S' C'
p262
sbag0
(g10
g2
Ntp263
Rp264
(dp265
g14
S'S'
p266
sg16
(lp267
F0.90590000000000004
asg18
(lp268
(lp269
F1.0
aasg21
S' C'
p270
sbag0
(g10
g2
Ntp271
Rp272
(dp273
g14
S'S'
p274
sg16
(lp275
F0.1285
asg18
(lp276
(lp277
F1.0
aasg21
S' C'
p278
sbag0
(g10
g2
Ntp279
Rp280
(dp281
g14
S'P'
p282
sg16
(lp283
F18.710000000000001
aF4.133
aF1.2
asg18
(lp284
(lp285
F0.014031
aF0.086865999999999999
aF0.29021599999999997
aasg21
S' C'
p286
sbag0
(g10
g2
Ntp287
Rp288
(dp289
g14
S'P'
p290
sg16
(lp291
F0.38269999999999998
asg18
(lp292
(lp293
F1.0
aasg21
S' C'
p294
sbag0
(g10
g2
Ntp295
Rp296
(dp297
g14
S'P'
p298
sg16
(lp299
F0.12089999999999999
asg18
(lp300
(lp301
F1.0
aasg21
S' C'
p302
sbag0
(g10
g2
Ntp303
Rp304
(dp305
g14
S'D'
p306
sg16
(lp307
F1.097
asg18
(lp308
(lp309
F1.0
aasg21
S' C'
p310
sbag0
(g10
g2
Ntp311
Rp312
(dp313
g14
S'D'
p314
sg16
(lp315
F0.318
asg18
(lp316
(lp317
F1.0
aasg21
S' C'
p318
sbag0
(g10
g2
Ntp319
Rp320
(dp321
g14
S'F'
p322
sg16
(lp323
F0.76100000000000001
asg18
(lp324
(lp325
F1.0
aasg21
S' C'
p326
sbag0
(g10
g2
Ntp327
Rp328
(dp329
g14
S'S'
p330
sg16
(lp331
F4.2919999999999998
asg18
(lp332
(lp333
F1.0
aasg21
S' C'
p334
sbag0
(g10
g2
Ntp335
Rp336
(dp337
g14
S'S'
p338
sg16
(lp339
F11.875999999999999
asg18
(lp340
(lp341
F1.0
aasg21
S' C'
p342
sbag0
(g10
g2
Ntp343
Rp344
(dp345
g14
S'P'
p346
sg16
(lp347
F8.7780000000000005
asg18
(lp348
(lp349
F1.0
aasg21
S' C'
p350
sbag0
(g10
g2
Ntp351
Rp352
(dp353
g14
S'P'
p354
sg16
(lp355
F33.189999999999998
asg18
(lp356
(lp357
F1.0
aasg21
S' C'
p358
sbag0
(g10
g2
Ntp359
Rp360
(dp361
g14
S'D'
p362
sg16
(lp363
F14.839
asg18
(lp364
(lp365
F1.0
aasg21
S' C'
p366
sbag0
(g10
g2
Ntp367
Rp368
(dp369
g14
S'S'
p370
sg16
(lp371
F0.044019999999999997
asg18
(lp372
(lp373
F1.0
aasg21
S' C'
p374
sbag0
(g10
g2
Ntp375
Rp376
(dp377
g14
S'P'
p378
sg16
(lp379
F0.03569
asg18
(lp380
(lp381
F1.0
aasg21
S' C'
p382
sbag0
(g10
g2
Ntp383
Rp384
(dp385
g14
S'D'
p386
sg16
(lp387
F0.10000000000000001
asg18
(lp388
(lp389
F1.0
aasg21
S' C'
p390
sbag0
(g10
g2
Ntp391
Rp392
(dp393
g14
S'F'
p394
sg16
(lp395
F0.26800000000000002
asg18
(lp396
(lp397
F1.0
aasg21
S' C'
p398
sbassb.