(ibasisset
BasisSet
p0
(dp1
S'basisDictionary'
p2
(dp3
S'C'
p4
(iBasisSets
AtomBasis
p5
(dp6
S'basisDictionary'
p7
(dp8
S'D'
p9
(lp10
(iBasisSets
BasisFunction
p11
(dp12
S'coefficientList'
p13
(lp14
F1.0
asS'primitiveList'
p15
(lp16
(iBasisSets
PrimitiveFunction
p17
(dp18
S'exponent'
p19
F3.1339999999999999
sS'angularMomentum'
p20
S'D'
p21
sbasg20
S'D'
p22
sba(iBasisSets
BasisFunction
p23
(dp24
g13
(lp25
F1.0
asg15
(lp26
(iBasisSets
PrimitiveFunction
p27
(dp28
g19
F1.2330000000000001
sg20
S'D'
p29
sbasg20
S'D'
p30
sba(iBasisSets
BasisFunction
p31
(dp32
g13
(lp33
F1.0
asg15
(lp34
(iBasisSets
PrimitiveFunction
p35
(dp36
g19
F0.48499999999999999
sg20
S'D'
p37
sbasg20
S'D'
p38
sba(iBasisSets
BasisFunction
p39
(dp40
g13
(lp41
F1.0
asg15
(lp42
(iBasisSets
PrimitiveFunction
p43
(dp44
g19
F0.191
sg20
S'D'
p45
sbasg20
S'D'
p46
sba(iBasisSets
BasisFunction
p47
(dp48
g13
(lp49
F1.0
asg15
(lp50
(iBasisSets
PrimitiveFunction
p51
(dp52
g19
F0.070099999999999996
sg20
S'D'
p53
sbasg20
S'D'
p54
sbasS'G'
p55
(lp56
(iBasisSets
BasisFunction
p57
(dp58
g13
(lp59
F1.0
asg15
(lp60
(iBasisSets
PrimitiveFunction
p61
(dp62
g19
F1.7529999999999999
sg20
S'G'
p63
sbasg20
S'G'
p64
sba(iBasisSets
BasisFunction
p65
(dp66
g13
(lp67
F1.0
asg15
(lp68
(iBasisSets
PrimitiveFunction
p69
(dp70
g19
F0.67800000000000005
sg20
S'G'
p71
sbasg20
S'G'
p72
sba(iBasisSets
BasisFunction
p73
(dp74
g13
(lp75
F1.0
asg15
(lp76
(iBasisSets
PrimitiveFunction
p77
(dp78
g19
F0.31900000000000001
sg20
S'G'
p79
sbasg20
S'G'
p80
sbasS'F'
p81
(lp82
(iBasisSets
BasisFunction
p83
(dp84
g13
(lp85
F1.0
asg15
(lp86
(iBasisSets
PrimitiveFunction
p87
(dp88
g19
F2.0059999999999998
sg20
S'F'
p89
sbasg20
S'F'
p90
sba(iBasisSets
BasisFunction
p91
(dp92
g13
(lp93
F1.0
asg15
(lp94
(iBasisSets
PrimitiveFunction
p95
(dp96
g19
F0.83799999999999997
sg20
S'F'
p97
sbasg20
S'F'
p98
sba(iBasisSets
BasisFunction
p99
(dp100
g13
(lp101
F1.0
asg15
(lp102
(iBasisSets
PrimitiveFunction
p103
(dp104
g19
F0.34999999999999998
sg20
S'F'
p105
sbasg20
S'F'
p106
sba(iBasisSets
BasisFunction
p107
(dp108
g13
(lp109
F1.0
asg15
(lp110
(iBasisSets
PrimitiveFunction
p111
(dp112
g19
F0.13800000000000001
sg20
S'F'
p113
sbasg20
S'F'
p114
sbasS'H'
p115
(lp116
(iBasisSets
BasisFunction
p117
(dp118
g13
(lp119
F1.0
asg15
(lp120
(iBasisSets
PrimitiveFunction
p121
(dp122
g19
F1.2589999999999999
sg20
S'H'
p123
sbasg20
S'H'
p124
sba(iBasisSets
BasisFunction
p125
(dp126
g13
(lp127
F1.0
asg15
(lp128
(iBasisSets
PrimitiveFunction
p129
(dp130
g19
F0.58599999999999997
sg20
S'H'
p131
sbasg20
S'H'
p132
sbasS'P'
p133
(lp134
(iBasisSets
BasisFunction
p135
(dp136
g13
(lp137
F1.0
asg15
(lp138
(iBasisSets
PrimitiveFunction
p139
(dp140
g19
F101.8
sg20
S'P'
p141
sbasg20
S'P'
p142
sba(iBasisSets
BasisFunction
p143
(dp144
g13
(lp145
F1.0
asg15
(lp146
(iBasisSets
PrimitiveFunction
p147
(dp148
g19
F24.039999999999999
sg20
S'P'
p149
sbasg20
S'P'
p150
sba(iBasisSets
BasisFunction
p151
(dp152
g13
(lp153
F1.0
asg15
(lp154
(iBasisSets
PrimitiveFunction
p155
(dp156
g19
F7.5709999999999997
sg20
S'P'
p157
sbasg20
S'P'
p158
sba(iBasisSets
BasisFunction
p159
(dp160
g13
(lp161
F1.0
asg15
(lp162
(iBasisSets
PrimitiveFunction
p163
(dp164
g19
F2.7320000000000002
sg20
S'P'
p165
sbasg20
S'P'
p166
sba(iBasisSets
BasisFunction
p167
(dp168
g13
(lp169
F1.0
asg15
(lp170
(iBasisSets
PrimitiveFunction
p171
(dp172
g19
F1.085
sg20
S'P'
p173
sbasg20
S'P'
p174
sba(iBasisSets
BasisFunction
p175
(dp176
g13
(lp177
F1.0
asg15
(lp178
(iBasisSets
PrimitiveFunction
p179
(dp180
g19
F0.4496
sg20
S'P'
p181
sbasg20
S'P'
p182
sba(iBasisSets
BasisFunction
p183
(dp184
g13
(lp185
F1.0
asg15
(lp186
(iBasisSets
PrimitiveFunction
p187
(dp188
g19
F0.18759999999999999
sg20
S'P'
p189
sbasg20
S'P'
p190
sba(iBasisSets
BasisFunction
p191
(dp192
g13
(lp193
F1.0
asg15
(lp194
(iBasisSets
PrimitiveFunction
p195
(dp196
g19
F0.076060000000000003
sg20
S'P'
p197
sbasg20
S'P'
p198
sba(iBasisSets
BasisFunction
p199
(dp200
g13
(lp201
F1.0
asg15
(lp202
(iBasisSets
PrimitiveFunction
p203
(dp204
g19
F0.027199999999999998
sg20
S'P'
p205
sbasg20
S'P'
p206
sbasS'S'
p207
(lp208
(iBasisSets
BasisFunction
p209
(dp210
g13
(lp211
F1.0
asg15
(lp212
(iBasisSets
PrimitiveFunction
p213
(dp214
g19
F96770.0
sg20
S'S'
p215
sbasg20
S'S'
p216
sba(iBasisSets
BasisFunction
p217
(dp218
g13
(lp219
F1.0
asg15
(lp220
(iBasisSets
PrimitiveFunction
p221
(dp222
g19
F14500.0
sg20
S'S'
p223
sbasg20
S'S'
p224
sba(iBasisSets
BasisFunction
p225
(dp226
g13
(lp227
F1.0
asg15
(lp228
(iBasisSets
PrimitiveFunction
p229
(dp230
g19
F3300.0
sg20
S'S'
p231
sbasg20
S'S'
p232
sba(iBasisSets
BasisFunction
p233
(dp234
g13
(lp235
F1.0
asg15
(lp236
(iBasisSets
PrimitiveFunction
p237
(dp238
g19
F935.79999999999995
sg20
S'S'
p239
sbasg20
S'S'
p240
sba(iBasisSets
BasisFunction
p241
(dp242
g13
(lp243
F1.0
asg15
(lp244
(iBasisSets
PrimitiveFunction
p245
(dp246
g19
F306.19999999999999
sg20
S'S'
p247
sbasg20
S'S'
p248
sba(iBasisSets
BasisFunction
p249
(dp250
g13
(lp251
F1.0
asg15
(lp252
(iBasisSets
PrimitiveFunction
p253
(dp254
g19
F111.3
sg20
S'S'
p255
sbasg20
S'S'
p256
sba(iBasisSets
BasisFunction
p257
(dp258
g13
(lp259
F1.0
asg15
(lp260
(iBasisSets
PrimitiveFunction
p261
(dp262
g19
F43.899999999999999
sg20
S'S'
p263
sbasg20
S'S'
p264
sba(iBasisSets
BasisFunction
p265
(dp266
g13
(lp267
F1.0
asg15
(lp268
(iBasisSets
PrimitiveFunction
p269
(dp270
g19
F18.399999999999999
sg20
S'S'
p271
sbasg20
S'S'
p272
sba(iBasisSets
BasisFunction
p273
(dp274
g13
(lp275
F1.0
asg15
(lp276
(iBasisSets
PrimitiveFunction
p277
(dp278
g19
F8.0540000000000003
sg20
S'S'
p279
sbasg20
S'S'
p280
sba(iBasisSets
BasisFunction
p281
(dp282
g13
(lp283
F1.0
asg15
(lp284
(iBasisSets
PrimitiveFunction
p285
(dp286
g19
F3.637
sg20
S'S'
p287
sbasg20
S'S'
p288
sba(iBasisSets
BasisFunction
p289
(dp290
g13
(lp291
F1.0
asg15
(lp292
(iBasisSets
PrimitiveFunction
p293
(dp294
g19
F1.6559999999999999
sg20
S'S'
p295
sbasg20
S'S'
p296
sba(iBasisSets
BasisFunction
p297
(dp298
g13
(lp299
F1.0
asg15
(lp300
(iBasisSets
PrimitiveFunction
p301
(dp302
g19
F0.63329999999999997
sg20
S'S'
p303
sbasg20
S'S'
p304
sba(iBasisSets
BasisFunction
p305
(dp306
g13
(lp307
F1.0
asg15
(lp308
(iBasisSets
PrimitiveFunction
p309
(dp310
g19
F0.2545
sg20
S'S'
p311
sbasg20
S'S'
p312
sba(iBasisSets
BasisFunction
p313
(dp314
g13
(lp315
F1.0
asg15
(lp316
(iBasisSets
PrimitiveFunction
p317
(dp318
g19
F0.1019
sg20
S'S'
p319
sbasg20
S'S'
p320
sba(iBasisSets
BasisFunction
p321
(dp322
g13
(lp323
F1.0
asg15
(lp324
(iBasisSets
PrimitiveFunction
p325
(dp326
g19
F0.039399999999999998
sg20
S'S'
p327
sbasg20
S'S'
p328
sbassbsS'B'
p329
(iBasisSets
AtomBasis
p330
(dp331
g7
(dp332
g9
(lp333
(iBasisSets
BasisFunction
p334
(dp335
g13
(lp336
F1.0
asg15
(lp337
(iBasisSets
PrimitiveFunction
p338
(dp339
g19
F2.0099999999999998
sg20
S'D'
p340
sbasg20
S'D'
p341
sba(iBasisSets
BasisFunction
p342
(dp343
g13
(lp344
F1.0
asg15
(lp345
(iBasisSets
PrimitiveFunction
p346
(dp347
g19
F0.79600000000000004
sg20
S'D'
p348
sbasg20
S'D'
p349
sba(iBasisSets
BasisFunction
p350
(dp351
g13
(lp352
F1.0
asg15
(lp353
(iBasisSets
PrimitiveFunction
p354
(dp355
g19
F0.316
sg20
S'D'
p356
sbasg20
S'D'
p357
sba(iBasisSets
BasisFunction
p358
(dp359
g13
(lp360
F1.0
asg15
(lp361
(iBasisSets
PrimitiveFunction
p362
(dp363
g19
F0.125
sg20
S'D'
p364
sbasg20
S'D'
p365
sba(iBasisSets
BasisFunction
p366
(dp367
g13
(lp368
F1.0
asg15
(lp369
(iBasisSets
PrimitiveFunction
p370
(dp371
g19
F0.043099999999999999
sg20
S'D'
p372
sbasg20
S'D'
p373
sbasg55
(lp374
(iBasisSets
BasisFunction
p375
(dp376
g13
(lp377
F1.0
asg15
(lp378
(iBasisSets
PrimitiveFunction
p379
(dp380
g19
F1.1240000000000001
sg20
S'G'
p381
sbasg20
S'G'
p382
sba(iBasisSets
BasisFunction
p383
(dp384
g13
(lp385
F1.0
asg15
(lp386
(iBasisSets
PrimitiveFunction
p387
(dp388
g19
F0.46100000000000002
sg20
S'G'
p389
sbasg20
S'G'
p390
sba(iBasisSets
BasisFunction
p391
(dp392
g13
(lp393
F1.0
asg15
(lp394
(iBasisSets
PrimitiveFunction
p395
(dp396
g19
F0.20200000000000001
sg20
S'G'
p397
sbasg20
S'G'
p398
sbasg81
(lp399
(iBasisSets
BasisFunction
p400
(dp401
g13
(lp402
F1.0
asg15
(lp403
(iBasisSets
PrimitiveFunction
p404
(dp405
g19
F1.2150000000000001
sg20
S'F'
p406
sbasg20
S'F'
p407
sba(iBasisSets
BasisFunction
p408
(dp409
g13
(lp410
F1.0
asg15
(lp411
(iBasisSets
PrimitiveFunction
p412
(dp413
g19
F0.52500000000000002
sg20
S'F'
p414
sbasg20
S'F'
p415
sba(iBasisSets
BasisFunction
p416
(dp417
g13
(lp418
F1.0
asg15
(lp419
(iBasisSets
PrimitiveFunction
p420
(dp421
g19
F0.22700000000000001
sg20
S'F'
p422
sbasg20
S'F'
p423
sba(iBasisSets
BasisFunction
p424
(dp425
g13
(lp426
F1.0
asg15
(lp427
(iBasisSets
PrimitiveFunction
p428
(dp429
g19
F0.0843
sg20
S'F'
p430
sbasg20
S'F'
p431
sbasg115
(lp432
(iBasisSets
BasisFunction
p433
(dp434
g13
(lp435
F1.0
asg15
(lp436
(iBasisSets
PrimitiveFunction
p437
(dp438
g19
F0.83399999999999996
sg20
S'H'
p439
sbasg20
S'H'
p440
sba(iBasisSets
BasisFunction
p441
(dp442
g13
(lp443
F1.0
asg15
(lp444
(iBasisSets
PrimitiveFunction
p445
(dp446
g19
F0.38400000000000001
sg20
S'H'
p447
sbasg20
S'H'
p448
sbasg133
(lp449
(iBasisSets
BasisFunction
p450
(dp451
g13
(lp452
F1.0
asg15
(lp453
(iBasisSets
PrimitiveFunction
p454
(dp455
g19
F66.439999999999998
sg20
S'P'
p456
sbasg20
S'P'
p457
sba(iBasisSets
BasisFunction
p458
(dp459
g13
(lp460
F1.0
asg15
(lp461
(iBasisSets
PrimitiveFunction
p462
(dp463
g19
F15.710000000000001
sg20
S'P'
p464
sbasg20
S'P'
p465
sba(iBasisSets
BasisFunction
p466
(dp467
g13
(lp468
F1.0
asg15
(lp469
(iBasisSets
PrimitiveFunction
p470
(dp471
g19
F4.9359999999999999
sg20
S'P'
p472
sbasg20
S'P'
p473
sba(iBasisSets
BasisFunction
p474
(dp475
g13
(lp476
F1.0
asg15
(lp477
(iBasisSets
PrimitiveFunction
p478
(dp479
g19
F1.77
sg20
S'P'
p480
sbasg20
S'P'
p481
sba(iBasisSets
BasisFunction
p482
(dp483
g13
(lp484
F1.0
asg15
(lp485
(iBasisSets
PrimitiveFunction
p486
(dp487
g19
F0.70079999999999998
sg20
S'P'
p488
sbasg20
S'P'
p489
sba(iBasisSets
BasisFunction
p490
(dp491
g13
(lp492
F1.0
asg15
(lp493
(iBasisSets
PrimitiveFunction
p494
(dp495
g19
F0.29010000000000002
sg20
S'P'
p496
sbasg20
S'P'
p497
sba(iBasisSets
BasisFunction
p498
(dp499
g13
(lp500
F1.0
asg15
(lp501
(iBasisSets
PrimitiveFunction
p502
(dp503
g19
F0.1211
sg20
S'P'
p504
sbasg20
S'P'
p505
sba(iBasisSets
BasisFunction
p506
(dp507
g13
(lp508
F1.0
asg15
(lp509
(iBasisSets
PrimitiveFunction
p510
(dp511
g19
F0.049730000000000003
sg20
S'P'
p512
sbasg20
S'P'
p513
sba(iBasisSets
BasisFunction
p514
(dp515
g13
(lp516
F1.0
asg15
(lp517
(iBasisSets
PrimitiveFunction
p518
(dp519
g19
F0.015699999999999999
sg20
S'P'
p520
sbasg20
S'P'
p521
sbasg207
(lp522
(iBasisSets
BasisFunction
p523
(dp524
g13
(lp525
F1.0
asg15
(lp526
(iBasisSets
PrimitiveFunction
p527
(dp528
g19
F68260.0
sg20
S'S'
p529
sbasg20
S'S'
p530
sba(iBasisSets
BasisFunction
p531
(dp532
g13
(lp533
F1.0
asg15
(lp534
(iBasisSets
PrimitiveFunction
p535
(dp536
g19
F10230.0
sg20
S'S'
p537
sbasg20
S'S'
p538
sba(iBasisSets
BasisFunction
p539
(dp540
g13
(lp541
F1.0
asg15
(lp542
(iBasisSets
PrimitiveFunction
p543
(dp544
g19
F2328.0
sg20
S'S'
p545
sbasg20
S'S'
p546
sba(iBasisSets
BasisFunction
p547
(dp548
g13
(lp549
F1.0
asg15
(lp550
(iBasisSets
PrimitiveFunction
p551
(dp552
g19
F660.39999999999998
sg20
S'S'
p553
sbasg20
S'S'
p554
sba(iBasisSets
BasisFunction
p555
(dp556
g13
(lp557
F1.0
asg15
(lp558
(iBasisSets
PrimitiveFunction
p559
(dp560
g19
F216.19999999999999
sg20
S'S'
p561
sbasg20
S'S'
p562
sba(iBasisSets
BasisFunction
p563
(dp564
g13
(lp565
F1.0
asg15
(lp566
(iBasisSets
PrimitiveFunction
p567
(dp568
g19
F78.599999999999994
sg20
S'S'
p569
sbasg20
S'S'
p570
sba(iBasisSets
BasisFunction
p571
(dp572
g13
(lp573
F1.0
asg15
(lp574
(iBasisSets
PrimitiveFunction
p575
(dp576
g19
F30.98
sg20
S'S'
p577
sbasg20
S'S'
p578
sba(iBasisSets
BasisFunction
p579
(dp580
g13
(lp581
F1.0
asg15
(lp582
(iBasisSets
PrimitiveFunction
p583
(dp584
g19
F12.960000000000001
sg20
S'S'
p585
sbasg20
S'S'
p586
sba(iBasisSets
BasisFunction
p587
(dp588
g13
(lp589
F1.0
asg15
(lp590
(iBasisSets
PrimitiveFunction
p591
(dp592
g19
F5.6589999999999998
sg20
S'S'
p593
sbasg20
S'S'
p594
sba(iBasisSets
BasisFunction
p595
(dp596
g13
(lp597
F1.0
asg15
(lp598
(iBasisSets
PrimitiveFunction
p599
(dp600
g19
F2.556
sg20
S'S'
p601
sbasg20
S'S'
p602
sba(iBasisSets
BasisFunction
p603
(dp604
g13
(lp605
F1.0
asg15
(lp606
(iBasisSets
PrimitiveFunction
p607
(dp608
g19
F1.175
sg20
S'S'
p609
sbasg20
S'S'
p610
sba(iBasisSets
BasisFunction
p611
(dp612
g13
(lp613
F1.0
asg15
(lp614
(iBasisSets
PrimitiveFunction
p615
(dp616
g19
F0.4249
sg20
S'S'
p617
sbasg20
S'S'
p618
sba(iBasisSets
BasisFunction
p619
(dp620
g13
(lp621
F1.0
asg15
(lp622
(iBasisSets
PrimitiveFunction
p623
(dp624
g19
F0.17119999999999999
sg20
S'S'
p625
sbasg20
S'S'
p626
sba(iBasisSets
BasisFunction
p627
(dp628
g13
(lp629
F1.0
asg15
(lp630
(iBasisSets
PrimitiveFunction
p631
(dp632
g19
F0.069129999999999997
sg20
S'S'
p633
sbasg20
S'S'
p634
sba(iBasisSets
BasisFunction
p635
(dp636
g13
(lp637
F1.0
asg15
(lp638
(iBasisSets
PrimitiveFunction
p639
(dp640
g19
F0.026100000000000002
sg20
S'S'
p641
sbasg20
S'S'
p642
sbassbsg81
(iBasisSets
AtomBasis
p643
(dp644
g7
(dp645
g9
(lp646
(iBasisSets
BasisFunction
p647
(dp648
g13
(lp649
F1.0
asg15
(lp650
(iBasisSets
PrimitiveFunction
p651
(dp652
g19
F7.7599999999999998
sg20
S'D'
p653
sbasg20
S'D'
p654
sba(iBasisSets
BasisFunction
p655
(dp656
g13
(lp657
F1.0
asg15
(lp658
(iBasisSets
PrimitiveFunction
p659
(dp660
g19
F3.032
sg20
S'D'
p661
sbasg20
S'D'
p662
sba(iBasisSets
BasisFunction
p663
(dp664
g13
(lp665
F1.0
asg15
(lp666
(iBasisSets
PrimitiveFunction
p667
(dp668
g19
F1.1850000000000001
sg20
S'D'
p669
sbasg20
S'D'
p670
sba(iBasisSets
BasisFunction
p671
(dp672
g13
(lp673
F1.0
asg15
(lp674
(iBasisSets
PrimitiveFunction
p675
(dp676
g19
F0.46300000000000002
sg20
S'D'
p677
sbasg20
S'D'
p678
sba(iBasisSets
BasisFunction
p679
(dp680
g13
(lp681
F1.0
asg15
(lp682
(iBasisSets
PrimitiveFunction
p683
(dp684
g19
F0.17199999999999999
sg20
S'D'
p685
sbasg20
S'D'
p686
sbasg55
(lp687
(iBasisSets
BasisFunction
p688
(dp689
g13
(lp690
F1.0
asg15
(lp691
(iBasisSets
PrimitiveFunction
p692
(dp693
g19
F4.3380000000000001
sg20
S'G'
p694
sbasg20
S'G'
p695
sba(iBasisSets
BasisFunction
p696
(dp697
g13
(lp698
F1.0
asg15
(lp699
(iBasisSets
PrimitiveFunction
p700
(dp701
g19
F1.5129999999999999
sg20
S'G'
p702
sbasg20
S'G'
p703
sba(iBasisSets
BasisFunction
p704
(dp705
g13
(lp706
F1.0
asg15
(lp707
(iBasisSets
PrimitiveFunction
p708
(dp709
g19
F0.66300000000000003
sg20
S'G'
p710
sbasg20
S'G'
p711
sbasg81
(lp712
(iBasisSets
BasisFunction
p713
(dp714
g13
(lp715
F1.0
asg15
(lp716
(iBasisSets
PrimitiveFunction
p717
(dp718
g19
F5.3979999999999997
sg20
S'F'
p719
sbasg20
S'F'
p720
sba(iBasisSets
BasisFunction
p721
(dp722
g13
(lp723
F1.0
asg15
(lp724
(iBasisSets
PrimitiveFunction
p725
(dp726
g19
F2.0779999999999998
sg20
S'F'
p727
sbasg20
S'F'
p728
sba(iBasisSets
BasisFunction
p729
(dp730
g13
(lp731
F1.0
asg15
(lp732
(iBasisSets
PrimitiveFunction
p733
(dp734
g19
F0.80000000000000004
sg20
S'F'
p735
sbasg20
S'F'
p736
sba(iBasisSets
BasisFunction
p737
(dp738
g13
(lp739
F1.0
asg15
(lp740
(iBasisSets
PrimitiveFunction
p741
(dp742
g19
F0.33100000000000002
sg20
S'F'
p743
sbasg20
S'F'
p744
sbasg115
(lp745
(iBasisSets
BasisFunction
p746
(dp747
g13
(lp748
F1.0
asg15
(lp749
(iBasisSets
PrimitiveFunction
p750
(dp751
g19
F2.9950000000000001
sg20
S'H'
p752
sbasg20
S'H'
p753
sba(iBasisSets
BasisFunction
p754
(dp755
g13
(lp756
F1.0
asg15
(lp757
(iBasisSets
PrimitiveFunction
p758
(dp759
g19
F1.3260000000000001
sg20
S'H'
p760
sbasg20
S'H'
p761
sbasg133
(lp762
(iBasisSets
BasisFunction
p763
(dp764
g13
(lp765
F1.0
asg15
(lp766
(iBasisSets
PrimitiveFunction
p767
(dp768
g19
F241.90000000000001
sg20
S'P'
p769
sbasg20
S'P'
p770
sba(iBasisSets
BasisFunction
p771
(dp772
g13
(lp773
F1.0
asg15
(lp774
(iBasisSets
PrimitiveFunction
p775
(dp776
g19
F57.170000000000002
sg20
S'P'
p777
sbasg20
S'P'
p778
sba(iBasisSets
BasisFunction
p779
(dp780
g13
(lp781
F1.0
asg15
(lp782
(iBasisSets
PrimitiveFunction
p783
(dp784
g19
F18.129999999999999
sg20
S'P'
p785
sbasg20
S'P'
p786
sba(iBasisSets
BasisFunction
p787
(dp788
g13
(lp789
F1.0
asg15
(lp790
(iBasisSets
PrimitiveFunction
p791
(dp792
g19
F6.6239999999999997
sg20
S'P'
p793
sbasg20
S'P'
p794
sba(iBasisSets
BasisFunction
p795
(dp796
g13
(lp797
F1.0
asg15
(lp798
(iBasisSets
PrimitiveFunction
p799
(dp800
g19
F2.6219999999999999
sg20
S'P'
p801
sbasg20
S'P'
p802
sba(iBasisSets
BasisFunction
p803
(dp804
g13
(lp805
F1.0
asg15
(lp806
(iBasisSets
PrimitiveFunction
p807
(dp808
g19
F1.0569999999999999
sg20
S'P'
p809
sbasg20
S'P'
p810
sba(iBasisSets
BasisFunction
p811
(dp812
g13
(lp813
F1.0
asg15
(lp814
(iBasisSets
PrimitiveFunction
p815
(dp816
g19
F0.41760000000000003
sg20
S'P'
p817
sbasg20
S'P'
p818
sba(iBasisSets
BasisFunction
p819
(dp820
g13
(lp821
F1.0
asg15
(lp822
(iBasisSets
PrimitiveFunction
p823
(dp824
g19
F0.15740000000000001
sg20
S'P'
p825
sbasg20
S'P'
p826
sba(iBasisSets
BasisFunction
p827
(dp828
g13
(lp829
F1.0
asg15
(lp830
(iBasisSets
PrimitiveFunction
p831
(dp832
g19
F0.055
sg20
S'P'
p833
sbasg20
S'P'
p834
sbasg207
(lp835
(iBasisSets
BasisFunction
p836
(dp837
g13
(lp838
F1.0
asg15
(lp839
(iBasisSets
PrimitiveFunction
p840
(dp841
g19
F211400.0
sg20
S'S'
p842
sbasg20
S'S'
p843
sba(iBasisSets
BasisFunction
p844
(dp845
g13
(lp846
F1.0
asg15
(lp847
(iBasisSets
PrimitiveFunction
p848
(dp849
g19
F31660.0
sg20
S'S'
p850
sbasg20
S'S'
p851
sba(iBasisSets
BasisFunction
p852
(dp853
g13
(lp854
F1.0
asg15
(lp855
(iBasisSets
PrimitiveFunction
p856
(dp857
g19
F7202.0
sg20
S'S'
p858
sbasg20
S'S'
p859
sba(iBasisSets
BasisFunction
p860
(dp861
g13
(lp862
F1.0
asg15
(lp863
(iBasisSets
PrimitiveFunction
p864
(dp865
g19
F2040.0
sg20
S'S'
p866
sbasg20
S'S'
p867
sba(iBasisSets
BasisFunction
p868
(dp869
g13
(lp870
F1.0
asg15
(lp871
(iBasisSets
PrimitiveFunction
p872
(dp873
g19
F666.39999999999998
sg20
S'S'
p874
sbasg20
S'S'
p875
sba(iBasisSets
BasisFunction
p876
(dp877
g13
(lp878
F1.0
asg15
(lp879
(iBasisSets
PrimitiveFunction
p880
(dp881
g19
F242.0
sg20
S'S'
p882
sbasg20
S'S'
p883
sba(iBasisSets
BasisFunction
p884
(dp885
g13
(lp886
F1.0
asg15
(lp887
(iBasisSets
PrimitiveFunction
p888
(dp889
g19
F95.530000000000001
sg20
S'S'
p890
sbasg20
S'S'
p891
sba(iBasisSets
BasisFunction
p892
(dp893
g13
(lp894
F1.0
asg15
(lp895
(iBasisSets
PrimitiveFunction
p896
(dp897
g19
F40.229999999999997
sg20
S'S'
p898
sbasg20
S'S'
p899
sba(iBasisSets
BasisFunction
p900
(dp901
g13
(lp902
F1.0
asg15
(lp903
(iBasisSets
PrimitiveFunction
p904
(dp905
g19
F17.719999999999999
sg20
S'S'
p906
sbasg20
S'S'
p907
sba(iBasisSets
BasisFunction
p908
(dp909
g13
(lp910
F1.0
asg15
(lp911
(iBasisSets
PrimitiveFunction
p912
(dp913
g19
F8.0050000000000008
sg20
S'S'
p914
sbasg20
S'S'
p915
sba(iBasisSets
BasisFunction
p916
(dp917
g13
(lp918
F1.0
asg15
(lp919
(iBasisSets
PrimitiveFunction
p920
(dp921
g19
F3.5379999999999998
sg20
S'S'
p922
sbasg20
S'S'
p923
sba(iBasisSets
BasisFunction
p924
(dp925
g13
(lp926
F1.0
asg15
(lp927
(iBasisSets
PrimitiveFunction
p928
(dp929
g19
F1.458
sg20
S'S'
p930
sbasg20
S'S'
p931
sba(iBasisSets
BasisFunction
p932
(dp933
g13
(lp934
F1.0
asg15
(lp935
(iBasisSets
PrimitiveFunction
p936
(dp937
g19
F0.5887
sg20
S'S'
p938
sbasg20
S'S'
p939
sba(iBasisSets
BasisFunction
p940
(dp941
g13
(lp942
F1.0
asg15
(lp943
(iBasisSets
PrimitiveFunction
p944
(dp945
g19
F0.2324
sg20
S'S'
p946
sbasg20
S'S'
p947
sba(iBasisSets
BasisFunction
p948
(dp949
g13
(lp950
F1.0
asg15
(lp951
(iBasisSets
PrimitiveFunction
p952
(dp953
g19
F0.080600000000000005
sg20
S'S'
p954
sbasg20
S'S'
p955
sbassbsg115
(iBasisSets
AtomBasis
p956
(dp957
g7
(dp958
g133
(lp959
(iBasisSets
BasisFunction
p960
(dp961
g13
(lp962
F1.0
asg15
(lp963
(iBasisSets
PrimitiveFunction
p964
(dp965
g19
F4.516
sg20
S'P'
p966
sbasg20
S'P'
p967
sba(iBasisSets
BasisFunction
p968
(dp969
g13
(lp970
F1.0
asg15
(lp971
(iBasisSets
PrimitiveFunction
p972
(dp973
g19
F1.712
sg20
S'P'
p974
sbasg20
S'P'
p975
sba(iBasisSets
BasisFunction
p976
(dp977
g13
(lp978
F1.0
asg15
(lp979
(iBasisSets
PrimitiveFunction
p980
(dp981
g19
F0.64900000000000002
sg20
S'P'
p982
sbasg20
S'P'
p983
sba(iBasisSets
BasisFunction
p984
(dp985
g13
(lp986
F1.0
asg15
(lp987
(iBasisSets
PrimitiveFunction
p988
(dp989
g19
F0.246
sg20
S'P'
p990
sbasg20
S'P'
p991
sba(iBasisSets
BasisFunction
p992
(dp993
g13
(lp994
F1.0
asg15
(lp995
(iBasisSets
PrimitiveFunction
p996
(dp997
g19
F0.074399999999999994
sg20
S'P'
p998
sbasg20
S'P'
p999
sbasg207
(lp1000
(iBasisSets
BasisFunction
p1001
(dp1002
g13
(lp1003
F1.0
asg15
(lp1004
(iBasisSets
PrimitiveFunction
p1005
(dp1006
g19
F402.0
sg20
S'S'
p1007
sbasg20
S'S'
p1008
sba(iBasisSets
BasisFunction
p1009
(dp1010
g13
(lp1011
F1.0
asg15
(lp1012
(iBasisSets
PrimitiveFunction
p1013
(dp1014
g19
F60.240000000000002
sg20
S'S'
p1015
sbasg20
S'S'
p1016
sba(iBasisSets
BasisFunction
p1017
(dp1018
g13
(lp1019
F1.0
asg15
(lp1020
(iBasisSets
PrimitiveFunction
p1021
(dp1022
g19
F13.73
sg20
S'S'
p1023
sbasg20
S'S'
p1024
sba(iBasisSets
BasisFunction
p1025
(dp1026
g13
(lp1027
F1.0
asg15
(lp1028
(iBasisSets
PrimitiveFunction
p1029
(dp1030
g19
F3.9049999999999998
sg20
S'S'
p1031
sbasg20
S'S'
p1032
sba(iBasisSets
BasisFunction
p1033
(dp1034
g13
(lp1035
F1.0
asg15
(lp1036
(iBasisSets
PrimitiveFunction
p1037
(dp1038
g19
F1.2829999999999999
sg20
S'S'
p1039
sbasg20
S'S'
p1040
sba(iBasisSets
BasisFunction
p1041
(dp1042
g13
(lp1043
F1.0
asg15
(lp1044
(iBasisSets
PrimitiveFunction
p1045
(dp1046
g19
F0.46550000000000002
sg20
S'S'
p1047
sbasg20
S'S'
p1048
sba(iBasisSets
BasisFunction
p1049
(dp1050
g13
(lp1051
F1.0
asg15
(lp1052
(iBasisSets
PrimitiveFunction
p1053
(dp1054
g19
F0.18110000000000001
sg20
S'S'
p1055
sbasg20
S'S'
p1056
sba(iBasisSets
BasisFunction
p1057
(dp1058
g13
(lp1059
F1.0
asg15
(lp1060
(iBasisSets
PrimitiveFunction
p1061
(dp1062
g19
F0.072789999999999994
sg20
S'S'
p1063
sbasg20
S'S'
p1064
sba(iBasisSets
BasisFunction
p1065
(dp1066
g13
(lp1067
F1.0
asg15
(lp1068
(iBasisSets
PrimitiveFunction
p1069
(dp1070
g19
F0.0207
sg20
S'S'
p1071
sbasg20
S'S'
p1072
sbasg9
(lp1073
(iBasisSets
BasisFunction
p1074
(dp1075
g13
(lp1076
F1.0
asg15
(lp1077
(iBasisSets
PrimitiveFunction
p1078
(dp1079
g19
F2.9500000000000002
sg20
S'D'
p1080
sbasg20
S'D'
p1081
sba(iBasisSets
BasisFunction
p1082
(dp1083
g13
(lp1084
F1.0
asg15
(lp1085
(iBasisSets
PrimitiveFunction
p1086
(dp1087
g19
F1.206
sg20
S'D'
p1088
sbasg20
S'D'
p1089
sba(iBasisSets
BasisFunction
p1090
(dp1091
g13
(lp1092
F1.0
asg15
(lp1093
(iBasisSets
PrimitiveFunction
p1094
(dp1095
g19
F0.49299999999999999
sg20
S'D'
p1096
sbasg20
S'D'
p1097
sba(iBasisSets
BasisFunction
p1098
(dp1099
g13
(lp1100
F1.0
asg15
(lp1101
(iBasisSets
PrimitiveFunction
p1102
(dp1103
g19
F0.156
sg20
S'D'
p1104
sbasg20
S'D'
p1105
sbasg55
(lp1106
(iBasisSets
BasisFunction
p1107
(dp1108
g13
(lp1109
F1.0
asg15
(lp1110
(iBasisSets
PrimitiveFunction
p1111
(dp1112
g19
F2.3580000000000001
sg20
S'G'
p1113
sbasg20
S'G'
p1114
sba(iBasisSets
BasisFunction
p1115
(dp1116
g13
(lp1117
F1.0
asg15
(lp1118
(iBasisSets
PrimitiveFunction
p1119
(dp1120
g19
F0.54300000000000004
sg20
S'G'
p1121
sbasg20
S'G'
p1122
sbasg81
(lp1123
(iBasisSets
BasisFunction
p1124
(dp1125
g13
(lp1126
F1.0
asg15
(lp1127
(iBasisSets
PrimitiveFunction
p1128
(dp1129
g19
F2.5059999999999998
sg20
S'F'
p1130
sbasg20
S'F'
p1131
sba(iBasisSets
BasisFunction
p1132
(dp1133
g13
(lp1134
F1.0
asg15
(lp1135
(iBasisSets
PrimitiveFunction
p1136
(dp1137
g19
F0.875
sg20
S'F'
p1138
sbasg20
S'F'
p1139
sba(iBasisSets
BasisFunction
p1140
(dp1141
g13
(lp1142
F1.0
asg15
(lp1143
(iBasisSets
PrimitiveFunction
p1144
(dp1145
g19
F0.27400000000000002
sg20
S'F'
p1146
sbasg20
S'F'
p1147
sbassbsS'NE'
p1148
(iBasisSets
AtomBasis
p1149
(dp1150
g7
(dp1151
g9
(lp1152
(iBasisSets
BasisFunction
p1153
(dp1154
g13
(lp1155
F1.0
asg15
(lp1156
(iBasisSets
PrimitiveFunction
p1157
(dp1158
g19
F9.8369999999999997
sg20
S'D'
p1159
sbasg20
S'D'
p1160
sba(iBasisSets
BasisFunction
p1161
(dp1162
g13
(lp1163
F1.0
asg15
(lp1164
(iBasisSets
PrimitiveFunction
p1165
(dp1166
g19
F3.8439999999999999
sg20
S'D'
p1167
sbasg20
S'D'
p1168
sba(iBasisSets
BasisFunction
p1169
(dp1170
g13
(lp1171
F1.0
asg15
(lp1172
(iBasisSets
PrimitiveFunction
p1173
(dp1174
g19
F1.502
sg20
S'D'
p1175
sbasg20
S'D'
p1176
sba(iBasisSets
BasisFunction
p1177
(dp1178
g13
(lp1179
F1.0
asg15
(lp1180
(iBasisSets
PrimitiveFunction
p1181
(dp1182
g19
F0.58699999999999997
sg20
S'D'
p1183
sbasg20
S'D'
p1184
sba(iBasisSets
BasisFunction
p1185
(dp1186
g13
(lp1187
F1.0
asg15
(lp1188
(iBasisSets
PrimitiveFunction
p1189
(dp1190
g19
F0.21299999999999999
sg20
S'D'
p1191
sbasg20
S'D'
p1192
sbasg55
(lp1193
(iBasisSets
BasisFunction
p1194
(dp1195
g13
(lp1196
F1.0
asg15
(lp1197
(iBasisSets
PrimitiveFunction
p1198
(dp1199
g19
F5.46
sg20
S'G'
p1200
sbasg20
S'G'
p1201
sba(iBasisSets
BasisFunction
p1202
(dp1203
g13
(lp1204
F1.0
asg15
(lp1205
(iBasisSets
PrimitiveFunction
p1206
(dp1207
g19
F1.8799999999999999
sg20
S'G'
p1208
sbasg20
S'G'
p1209
sba(iBasisSets
BasisFunction
p1210
(dp1211
g13
(lp1212
F1.0
asg15
(lp1213
(iBasisSets
PrimitiveFunction
p1214
(dp1215
g19
F0.80900000000000005
sg20
S'G'
p1216
sbasg20
S'G'
p1217
sbasg81
(lp1218
(iBasisSets
BasisFunction
p1219
(dp1220
g13
(lp1221
F1.0
asg15
(lp1222
(iBasisSets
PrimitiveFunction
p1223
(dp1224
g19
F7.0899999999999999
sg20
S'F'
p1225
sbasg20
S'F'
p1226
sba(iBasisSets
BasisFunction
p1227
(dp1228
g13
(lp1229
F1.0
asg15
(lp1230
(iBasisSets
PrimitiveFunction
p1231
(dp1232
g19
F2.738
sg20
S'F'
p1233
sbasg20
S'F'
p1234
sba(iBasisSets
BasisFunction
p1235
(dp1236
g13
(lp1237
F1.0
asg15
(lp1238
(iBasisSets
PrimitiveFunction
p1239
(dp1240
g19
F1.0569999999999999
sg20
S'F'
p1241
sbasg20
S'F'
p1242
sba(iBasisSets
BasisFunction
p1243
(dp1244
g13
(lp1245
F1.0
asg15
(lp1246
(iBasisSets
PrimitiveFunction
p1247
(dp1248
g19
F0.42499999999999999
sg20
S'F'
p1249
sbasg20
S'F'
p1250
sbasg115
(lp1251
(iBasisSets
BasisFunction
p1252
(dp1253
g13
(lp1254
F1.0
asg15
(lp1255
(iBasisSets
PrimitiveFunction
p1256
(dp1257
g19
F3.7759999999999998
sg20
S'H'
p1258
sbasg20
S'H'
p1259
sba(iBasisSets
BasisFunction
p1260
(dp1261
g13
(lp1262
F1.0
asg15
(lp1263
(iBasisSets
PrimitiveFunction
p1264
(dp1265
g19
F1.6279999999999999
sg20
S'H'
p1266
sbasg20
S'H'
p1267
sbasg133
(lp1268
(iBasisSets
BasisFunction
p1269
(dp1270
g13
(lp1271
F1.0
asg15
(lp1272
(iBasisSets
PrimitiveFunction
p1273
(dp1274
g19
F299.10000000000002
sg20
S'P'
p1275
sbasg20
S'P'
p1276
sba(iBasisSets
BasisFunction
p1277
(dp1278
g13
(lp1279
F1.0
asg15
(lp1280
(iBasisSets
PrimitiveFunction
p1281
(dp1282
g19
F70.730000000000004
sg20
S'P'
p1283
sbasg20
S'P'
p1284
sba(iBasisSets
BasisFunction
p1285
(dp1286
g13
(lp1287
F1.0
asg15
(lp1288
(iBasisSets
PrimitiveFunction
p1289
(dp1290
g19
F22.48
sg20
S'P'
p1291
sbasg20
S'P'
p1292
sba(iBasisSets
BasisFunction
p1293
(dp1294
g13
(lp1295
F1.0
asg15
(lp1296
(iBasisSets
PrimitiveFunction
p1297
(dp1298
g19
F8.2460000000000004
sg20
S'P'
p1299
sbasg20
S'P'
p1300
sba(iBasisSets
BasisFunction
p1301
(dp1302
g13
(lp1303
F1.0
asg15
(lp1304
(iBasisSets
PrimitiveFunction
p1305
(dp1306
g19
F3.2690000000000001
sg20
S'P'
p1307
sbasg20
S'P'
p1308
sba(iBasisSets
BasisFunction
p1309
(dp1310
g13
(lp1311
F1.0
asg15
(lp1312
(iBasisSets
PrimitiveFunction
p1313
(dp1314
g19
F1.3149999999999999
sg20
S'P'
p1315
sbasg20
S'P'
p1316
sba(iBasisSets
BasisFunction
p1317
(dp1318
g13
(lp1319
F1.0
asg15
(lp1320
(iBasisSets
PrimitiveFunction
p1321
(dp1322
g19
F0.51580000000000004
sg20
S'P'
p1323
sbasg20
S'P'
p1324
sba(iBasisSets
BasisFunction
p1325
(dp1326
g13
(lp1327
F1.0
asg15
(lp1328
(iBasisSets
PrimitiveFunction
p1329
(dp1330
g19
F0.1918
sg20
S'P'
p1331
sbasg20
S'P'
p1332
sba(iBasisSets
BasisFunction
p1333
(dp1334
g13
(lp1335
F1.0
asg15
(lp1336
(iBasisSets
PrimitiveFunction
p1337
(dp1338
g19
F0.0654
sg20
S'P'
p1339
sbasg20
S'P'
p1340
sbasg207
(lp1341
(iBasisSets
BasisFunction
p1342
(dp1343
g13
(lp1344
F1.0
asg15
(lp1345
(iBasisSets
PrimitiveFunction
p1346
(dp1347
g19
F262700.0
sg20
S'S'
p1348
sbasg20
S'S'
p1349
sba(iBasisSets
BasisFunction
p1350
(dp1351
g13
(lp1352
F1.0
asg15
(lp1353
(iBasisSets
PrimitiveFunction
p1354
(dp1355
g19
F39350.0
sg20
S'S'
p1356
sbasg20
S'S'
p1357
sba(iBasisSets
BasisFunction
p1358
(dp1359
g13
(lp1360
F1.0
asg15
(lp1361
(iBasisSets
PrimitiveFunction
p1362
(dp1363
g19
F8955.0
sg20
S'S'
p1364
sbasg20
S'S'
p1365
sba(iBasisSets
BasisFunction
p1366
(dp1367
g13
(lp1368
F1.0
asg15
(lp1369
(iBasisSets
PrimitiveFunction
p1370
(dp1371
g19
F2538.0
sg20
S'S'
p1372
sbasg20
S'S'
p1373
sba(iBasisSets
BasisFunction
p1374
(dp1375
g13
(lp1376
F1.0
asg15
(lp1377
(iBasisSets
PrimitiveFunction
p1378
(dp1379
g19
F829.89999999999998
sg20
S'S'
p1380
sbasg20
S'S'
p1381
sba(iBasisSets
BasisFunction
p1382
(dp1383
g13
(lp1384
F1.0
asg15
(lp1385
(iBasisSets
PrimitiveFunction
p1386
(dp1387
g19
F301.5
sg20
S'S'
p1388
sbasg20
S'S'
p1389
sba(iBasisSets
BasisFunction
p1390
(dp1391
g13
(lp1392
F1.0
asg15
(lp1393
(iBasisSets
PrimitiveFunction
p1394
(dp1395
g19
F119.0
sg20
S'S'
p1396
sbasg20
S'S'
p1397
sba(iBasisSets
BasisFunction
p1398
(dp1399
g13
(lp1400
F1.0
asg15
(lp1401
(iBasisSets
PrimitiveFunction
p1402
(dp1403
g19
F50.0
sg20
S'S'
p1404
sbasg20
S'S'
p1405
sba(iBasisSets
BasisFunction
p1406
(dp1407
g13
(lp1408
F1.0
asg15
(lp1409
(iBasisSets
PrimitiveFunction
p1410
(dp1411
g19
F21.98
sg20
S'S'
p1412
sbasg20
S'S'
p1413
sba(iBasisSets
BasisFunction
p1414
(dp1415
g13
(lp1416
F1.0
asg15
(lp1417
(iBasisSets
PrimitiveFunction
p1418
(dp1419
g19
F9.891
sg20
S'S'
p1420
sbasg20
S'S'
p1421
sba(iBasisSets
BasisFunction
p1422
(dp1423
g13
(lp1424
F1.0
asg15
(lp1425
(iBasisSets
PrimitiveFunction
p1426
(dp1427
g19
F4.327
sg20
S'S'
p1428
sbasg20
S'S'
p1429
sba(iBasisSets
BasisFunction
p1430
(dp1431
g13
(lp1432
F1.0
asg15
(lp1433
(iBasisSets
PrimitiveFunction
p1434
(dp1435
g19
F1.804
sg20
S'S'
p1436
sbasg20
S'S'
p1437
sba(iBasisSets
BasisFunction
p1438
(dp1439
g13
(lp1440
F1.0
asg15
(lp1441
(iBasisSets
PrimitiveFunction
p1442
(dp1443
g19
F0.7288
sg20
S'S'
p1444
sbasg20
S'S'
p1445
sba(iBasisSets
BasisFunction
p1446
(dp1447
g13
(lp1448
F1.0
asg15
(lp1449
(iBasisSets
PrimitiveFunction
p1450
(dp1451
g19
F0.28670000000000001
sg20
S'S'
p1452
sbasg20
S'S'
p1453
sba(iBasisSets
BasisFunction
p1454
(dp1455
g13
(lp1456
F1.0
asg15
(lp1457
(iBasisSets
PrimitiveFunction
p1458
(dp1459
g19
F0.095699999999999993
sg20
S'S'
p1460
sbasg20
S'S'
p1461
sbassbsS'O'
p1462
(iBasisSets
AtomBasis
p1463
(dp1464
g7
(dp1465
g9
(lp1466
(iBasisSets
BasisFunction
p1467
(dp1468
g13
(lp1469
F1.0
asg15
(lp1470
(iBasisSets
PrimitiveFunction
p1471
(dp1472
g19
F5.8789999999999996
sg20
S'D'
p1473
sbasg20
S'D'
p1474
sba(iBasisSets
BasisFunction
p1475
(dp1476
g13
(lp1477
F1.0
asg15
(lp1478
(iBasisSets
PrimitiveFunction
p1479
(dp1480
g19
F2.3069999999999999
sg20
S'D'
p1481
sbasg20
S'D'
p1482
sba(iBasisSets
BasisFunction
p1483
(dp1484
g13
(lp1485
F1.0
asg15
(lp1486
(iBasisSets
PrimitiveFunction
p1487
(dp1488
g19
F0.90500000000000003
sg20
S'D'
p1489
sbasg20
S'D'
p1490
sba(iBasisSets
BasisFunction
p1491
(dp1492
g13
(lp1493
F1.0
asg15
(lp1494
(iBasisSets
PrimitiveFunction
p1495
(dp1496
g19
F0.35499999999999998
sg20
S'D'
p1497
sbasg20
S'D'
p1498
sba(iBasisSets
BasisFunction
p1499
(dp1500
g13
(lp1501
F1.0
asg15
(lp1502
(iBasisSets
PrimitiveFunction
p1503
(dp1504
g19
F0.13100000000000001
sg20
S'D'
p1505
sbasg20
S'D'
p1506
sbasg55
(lp1507
(iBasisSets
BasisFunction
p1508
(dp1509
g13
(lp1510
F1.0
asg15
(lp1511
(iBasisSets
PrimitiveFunction
p1512
(dp1513
g19
F3.3500000000000001
sg20
S'G'
p1514
sbasg20
S'G'
p1515
sba(iBasisSets
BasisFunction
p1516
(dp1517
g13
(lp1518
F1.0
asg15
(lp1519
(iBasisSets
PrimitiveFunction
p1520
(dp1521
g19
F1.1890000000000001
sg20
S'G'
p1522
sbasg20
S'G'
p1523
sba(iBasisSets
BasisFunction
p1524
(dp1525
g13
(lp1526
F1.0
asg15
(lp1527
(iBasisSets
PrimitiveFunction
p1528
(dp1529
g19
F0.51700000000000002
sg20
S'G'
p1530
sbasg20
S'G'
p1531
sbasg81
(lp1532
(iBasisSets
BasisFunction
p1533
(dp1534
g13
(lp1535
F1.0
asg15
(lp1536
(iBasisSets
PrimitiveFunction
p1537
(dp1538
g19
F4.016
sg20
S'F'
p1539
sbasg20
S'F'
p1540
sba(iBasisSets
BasisFunction
p1541
(dp1542
g13
(lp1543
F1.0
asg15
(lp1544
(iBasisSets
PrimitiveFunction
p1545
(dp1546
g19
F1.554
sg20
S'F'
p1547
sbasg20
S'F'
p1548
sba(iBasisSets
BasisFunction
p1549
(dp1550
g13
(lp1551
F1.0
asg15
(lp1552
(iBasisSets
PrimitiveFunction
p1553
(dp1554
g19
F0.60099999999999998
sg20
S'F'
p1555
sbasg20
S'F'
p1556
sba(iBasisSets
BasisFunction
p1557
(dp1558
g13
(lp1559
F1.0
asg15
(lp1560
(iBasisSets
PrimitiveFunction
p1561
(dp1562
g19
F0.23699999999999999
sg20
S'F'
p1563
sbasg20
S'F'
p1564
sbasg115
(lp1565
(iBasisSets
BasisFunction
p1566
(dp1567
g13
(lp1568
F1.0
asg15
(lp1569
(iBasisSets
PrimitiveFunction
p1570
(dp1571
g19
F2.319
sg20
S'H'
p1572
sbasg20
S'H'
p1573
sba(iBasisSets
BasisFunction
p1574
(dp1575
g13
(lp1576
F1.0
asg15
(lp1577
(iBasisSets
PrimitiveFunction
p1578
(dp1579
g19
F1.024
sg20
S'H'
p1580
sbasg20
S'H'
p1581
sbasg133
(lp1582
(iBasisSets
BasisFunction
p1583
(dp1584
g13
(lp1585
F1.0
asg15
(lp1586
(iBasisSets
PrimitiveFunction
p1587
(dp1588
g19
F195.5
sg20
S'P'
p1589
sbasg20
S'P'
p1590
sba(iBasisSets
BasisFunction
p1591
(dp1592
g13
(lp1593
F1.0
asg15
(lp1594
(iBasisSets
PrimitiveFunction
p1595
(dp1596
g19
F46.159999999999997
sg20
S'P'
p1597
sbasg20
S'P'
p1598
sba(iBasisSets
BasisFunction
p1599
(dp1600
g13
(lp1601
F1.0
asg15
(lp1602
(iBasisSets
PrimitiveFunction
p1603
(dp1604
g19
F14.58
sg20
S'P'
p1605
sbasg20
S'P'
p1606
sba(iBasisSets
BasisFunction
p1607
(dp1608
g13
(lp1609
F1.0
asg15
(lp1610
(iBasisSets
PrimitiveFunction
p1611
(dp1612
g19
F5.2960000000000003
sg20
S'P'
p1613
sbasg20
S'P'
p1614
sba(iBasisSets
BasisFunction
p1615
(dp1616
g13
(lp1617
F1.0
asg15
(lp1618
(iBasisSets
PrimitiveFunction
p1619
(dp1620
g19
F2.0939999999999999
sg20
S'P'
p1621
sbasg20
S'P'
p1622
sba(iBasisSets
BasisFunction
p1623
(dp1624
g13
(lp1625
F1.0
asg15
(lp1626
(iBasisSets
PrimitiveFunction
p1627
(dp1628
g19
F0.84709999999999996
sg20
S'P'
p1629
sbasg20
S'P'
p1630
sba(iBasisSets
BasisFunction
p1631
(dp1632
g13
(lp1633
F1.0
asg15
(lp1634
(iBasisSets
PrimitiveFunction
p1635
(dp1636
g19
F0.33679999999999999
sg20
S'P'
p1637
sbasg20
S'P'
p1638
sba(iBasisSets
BasisFunction
p1639
(dp1640
g13
(lp1641
F1.0
asg15
(lp1642
(iBasisSets
PrimitiveFunction
p1643
(dp1644
g19
F0.1285
sg20
S'P'
p1645
sbasg20
S'P'
p1646
sba(iBasisSets
BasisFunction
p1647
(dp1648
g13
(lp1649
F1.0
asg15
(lp1650
(iBasisSets
PrimitiveFunction
p1651
(dp1652
g19
F0.044600000000000001
sg20
S'P'
p1653
sbasg20
S'P'
p1654
sbasg207
(lp1655
(iBasisSets
BasisFunction
p1656
(dp1657
g13
(lp1658
F1.0
asg15
(lp1659
(iBasisSets
PrimitiveFunction
p1660
(dp1661
g19
F164200.0
sg20
S'S'
p1662
sbasg20
S'S'
p1663
sba(iBasisSets
BasisFunction
p1664
(dp1665
g13
(lp1666
F1.0
asg15
(lp1667
(iBasisSets
PrimitiveFunction
p1668
(dp1669
g19
F24590.0
sg20
S'S'
p1670
sbasg20
S'S'
p1671
sba(iBasisSets
BasisFunction
p1672
(dp1673
g13
(lp1674
F1.0
asg15
(lp1675
(iBasisSets
PrimitiveFunction
p1676
(dp1677
g19
F5592.0
sg20
S'S'
p1678
sbasg20
S'S'
p1679
sba(iBasisSets
BasisFunction
p1680
(dp1681
g13
(lp1682
F1.0
asg15
(lp1683
(iBasisSets
PrimitiveFunction
p1684
(dp1685
g19
F1582.0
sg20
S'S'
p1686
sbasg20
S'S'
p1687
sba(iBasisSets
BasisFunction
p1688
(dp1689
g13
(lp1690
F1.0
asg15
(lp1691
(iBasisSets
PrimitiveFunction
p1692
(dp1693
g19
F516.10000000000002
sg20
S'S'
p1694
sbasg20
S'S'
p1695
sba(iBasisSets
BasisFunction
p1696
(dp1697
g13
(lp1698
F1.0
asg15
(lp1699
(iBasisSets
PrimitiveFunction
p1700
(dp1701
g19
F187.19999999999999
sg20
S'S'
p1702
sbasg20
S'S'
p1703
sba(iBasisSets
BasisFunction
p1704
(dp1705
g13
(lp1706
F1.0
asg15
(lp1707
(iBasisSets
PrimitiveFunction
p1708
(dp1709
g19
F73.930000000000007
sg20
S'S'
p1710
sbasg20
S'S'
p1711
sba(iBasisSets
BasisFunction
p1712
(dp1713
g13
(lp1714
F1.0
asg15
(lp1715
(iBasisSets
PrimitiveFunction
p1716
(dp1717
g19
F31.219999999999999
sg20
S'S'
p1718
sbasg20
S'S'
p1719
sba(iBasisSets
BasisFunction
p1720
(dp1721
g13
(lp1722
F1.0
asg15
(lp1723
(iBasisSets
PrimitiveFunction
p1724
(dp1725
g19
F13.81
sg20
S'S'
p1726
sbasg20
S'S'
p1727
sba(iBasisSets
BasisFunction
p1728
(dp1729
g13
(lp1730
F1.0
asg15
(lp1731
(iBasisSets
PrimitiveFunction
p1732
(dp1733
g19
F6.2560000000000002
sg20
S'S'
p1734
sbasg20
S'S'
p1735
sba(iBasisSets
BasisFunction
p1736
(dp1737
g13
(lp1738
F1.0
asg15
(lp1739
(iBasisSets
PrimitiveFunction
p1740
(dp1741
g19
F2.7759999999999998
sg20
S'S'
p1742
sbasg20
S'S'
p1743
sba(iBasisSets
BasisFunction
p1744
(dp1745
g13
(lp1746
F1.0
asg15
(lp1747
(iBasisSets
PrimitiveFunction
p1748
(dp1749
g19
F1.1379999999999999
sg20
S'S'
p1750
sbasg20
S'S'
p1751
sba(iBasisSets
BasisFunction
p1752
(dp1753
g13
(lp1754
F1.0
asg15
(lp1755
(iBasisSets
PrimitiveFunction
p1756
(dp1757
g19
F0.46000000000000002
sg20
S'S'
p1758
sbasg20
S'S'
p1759
sba(iBasisSets
BasisFunction
p1760
(dp1761
g13
(lp1762
F1.0
asg15
(lp1763
(iBasisSets
PrimitiveFunction
p1764
(dp1765
g19
F0.18290000000000001
sg20
S'S'
p1766
sbasg20
S'S'
p1767
sba(iBasisSets
BasisFunction
p1768
(dp1769
g13
(lp1770
F1.0
asg15
(lp1771
(iBasisSets
PrimitiveFunction
p1772
(dp1773
g19
F0.065500000000000003
sg20
S'S'
p1774
sbasg20
S'S'
p1775
sbassbsS'N'
p1776
(iBasisSets
AtomBasis
p1777
(dp1778
g7
(dp1779
g9
(lp1780
(iBasisSets
BasisFunction
p1781
(dp1782
g13
(lp1783
F1.0
asg15
(lp1784
(iBasisSets
PrimitiveFunction
p1785
(dp1786
g19
F4.6470000000000002
sg20
S'D'
p1787
sbasg20
S'D'
p1788
sba(iBasisSets
BasisFunction
p1789
(dp1790
g13
(lp1791
F1.0
asg15
(lp1792
(iBasisSets
PrimitiveFunction
p1793
(dp1794
g19
F1.8129999999999999
sg20
S'D'
p1795
sbasg20
S'D'
p1796
sba(iBasisSets
BasisFunction
p1797
(dp1798
g13
(lp1799
F1.0
asg15
(lp1800
(iBasisSets
PrimitiveFunction
p1801
(dp1802
g19
F0.70699999999999996
sg20
S'D'
p1803
sbasg20
S'D'
p1804
sba(iBasisSets
BasisFunction
p1805
(dp1806
g13
(lp1807
F1.0
asg15
(lp1808
(iBasisSets
PrimitiveFunction
p1809
(dp1810
g19
F0.27600000000000002
sg20
S'D'
p1811
sbasg20
S'D'
p1812
sba(iBasisSets
BasisFunction
p1813
(dp1814
g13
(lp1815
F1.0
asg15
(lp1816
(iBasisSets
PrimitiveFunction
p1817
(dp1818
g19
F0.097100000000000006
sg20
S'D'
p1819
sbasg20
S'D'
p1820
sbasg55
(lp1821
(iBasisSets
BasisFunction
p1822
(dp1823
g13
(lp1824
F1.0
asg15
(lp1825
(iBasisSets
PrimitiveFunction
p1826
(dp1827
g19
F2.5110000000000001
sg20
S'G'
p1828
sbasg20
S'G'
p1829
sba(iBasisSets
BasisFunction
p1830
(dp1831
g13
(lp1832
F1.0
asg15
(lp1833
(iBasisSets
PrimitiveFunction
p1834
(dp1835
g19
F0.94199999999999995
sg20
S'G'
p1836
sbasg20
S'G'
p1837
sba(iBasisSets
BasisFunction
p1838
(dp1839
g13
(lp1840
F1.0
asg15
(lp1841
(iBasisSets
PrimitiveFunction
p1842
(dp1843
g19
F0.436
sg20
S'G'
p1844
sbasg20
S'G'
p1845
sbasg81
(lp1846
(iBasisSets
BasisFunction
p1847
(dp1848
g13
(lp1849
F1.0
asg15
(lp1850
(iBasisSets
PrimitiveFunction
p1851
(dp1852
g19
F2.9420000000000002
sg20
S'F'
p1853
sbasg20
S'F'
p1854
sba(iBasisSets
BasisFunction
p1855
(dp1856
g13
(lp1857
F1.0
asg15
(lp1858
(iBasisSets
PrimitiveFunction
p1859
(dp1860
g19
F1.204
sg20
S'F'
p1861
sbasg20
S'F'
p1862
sba(iBasisSets
BasisFunction
p1863
(dp1864
g13
(lp1865
F1.0
asg15
(lp1866
(iBasisSets
PrimitiveFunction
p1867
(dp1868
g19
F0.49299999999999999
sg20
S'F'
p1869
sbasg20
S'F'
p1870
sba(iBasisSets
BasisFunction
p1871
(dp1872
g13
(lp1873
F1.0
asg15
(lp1874
(iBasisSets
PrimitiveFunction
p1875
(dp1876
g19
F0.192
sg20
S'F'
p1877
sbasg20
S'F'
p1878
sbasg115
(lp1879
(iBasisSets
BasisFunction
p1880
(dp1881
g13
(lp1882
F1.0
asg15
(lp1883
(iBasisSets
PrimitiveFunction
p1884
(dp1885
g19
F1.768
sg20
S'H'
p1886
sbasg20
S'H'
p1887
sba(iBasisSets
BasisFunction
p1888
(dp1889
g13
(lp1890
F1.0
asg15
(lp1891
(iBasisSets
PrimitiveFunction
p1892
(dp1893
g19
F0.78800000000000003
sg20
S'H'
p1894
sbasg20
S'H'
p1895
sbasg133
(lp1896
(iBasisSets
BasisFunction
p1897
(dp1898
g13
(lp1899
F1.0
asg15
(lp1900
(iBasisSets
PrimitiveFunction
p1901
(dp1902
g19
F147.0
sg20
S'P'
p1903
sbasg20
S'P'
p1904
sba(iBasisSets
BasisFunction
p1905
(dp1906
g13
(lp1907
F1.0
asg15
(lp1908
(iBasisSets
PrimitiveFunction
p1909
(dp1910
g19
F34.759999999999998
sg20
S'P'
p1911
sbasg20
S'P'
p1912
sba(iBasisSets
BasisFunction
p1913
(dp1914
g13
(lp1915
F1.0
asg15
(lp1916
(iBasisSets
PrimitiveFunction
p1917
(dp1918
g19
F11.0
sg20
S'P'
p1919
sbasg20
S'P'
p1920
sba(iBasisSets
BasisFunction
p1921
(dp1922
g13
(lp1923
F1.0
asg15
(lp1924
(iBasisSets
PrimitiveFunction
p1925
(dp1926
g19
F3.9950000000000001
sg20
S'P'
p1927
sbasg20
S'P'
p1928
sba(iBasisSets
BasisFunction
p1929
(dp1930
g13
(lp1931
F1.0
asg15
(lp1932
(iBasisSets
PrimitiveFunction
p1933
(dp1934
g19
F1.587
sg20
S'P'
p1935
sbasg20
S'P'
p1936
sba(iBasisSets
BasisFunction
p1937
(dp1938
g13
(lp1939
F1.0
asg15
(lp1940
(iBasisSets
PrimitiveFunction
p1941
(dp1942
g19
F0.65329999999999999
sg20
S'P'
p1943
sbasg20
S'P'
p1944
sba(iBasisSets
BasisFunction
p1945
(dp1946
g13
(lp1947
F1.0
asg15
(lp1948
(iBasisSets
PrimitiveFunction
p1949
(dp1950
g19
F0.26860000000000001
sg20
S'P'
p1951
sbasg20
S'P'
p1952
sba(iBasisSets
BasisFunction
p1953
(dp1954
g13
(lp1955
F1.0
asg15
(lp1956
(iBasisSets
PrimitiveFunction
p1957
(dp1958
g19
F0.1067
sg20
S'P'
p1959
sbasg20
S'P'
p1960
sba(iBasisSets
BasisFunction
p1961
(dp1962
g13
(lp1963
F1.0
asg15
(lp1964
(iBasisSets
PrimitiveFunction
p1965
(dp1966
g19
F0.036900000000000002
sg20
S'P'
p1967
sbasg20
S'P'
p1968
sbasg207
(lp1969
(iBasisSets
BasisFunction
p1970
(dp1971
g13
(lp1972
F1.0
asg15
(lp1973
(iBasisSets
PrimitiveFunction
p1974
(dp1975
g19
F129200.0
sg20
S'S'
p1976
sbasg20
S'S'
p1977
sba(iBasisSets
BasisFunction
p1978
(dp1979
g13
(lp1980
F1.0
asg15
(lp1981
(iBasisSets
PrimitiveFunction
p1982
(dp1983
g19
F19350.0
sg20
S'S'
p1984
sbasg20
S'S'
p1985
sba(iBasisSets
BasisFunction
p1986
(dp1987
g13
(lp1988
F1.0
asg15
(lp1989
(iBasisSets
PrimitiveFunction
p1990
(dp1991
g19
F4404.0
sg20
S'S'
p1992
sbasg20
S'S'
p1993
sba(iBasisSets
BasisFunction
p1994
(dp1995
g13
(lp1996
F1.0
asg15
(lp1997
(iBasisSets
PrimitiveFunction
p1998
(dp1999
g19
F1248.0
sg20
S'S'
p2000
sbasg20
S'S'
p2001
sba(iBasisSets
BasisFunction
p2002
(dp2003
g13
(lp2004
F1.0
asg15
(lp2005
(iBasisSets
PrimitiveFunction
p2006
(dp2007
g19
F408.0
sg20
S'S'
p2008
sbasg20
S'S'
p2009
sba(iBasisSets
BasisFunction
p2010
(dp2011
g13
(lp2012
F1.0
asg15
(lp2013
(iBasisSets
PrimitiveFunction
p2014
(dp2015
g19
F148.19999999999999
sg20
S'S'
p2016
sbasg20
S'S'
p2017
sba(iBasisSets
BasisFunction
p2018
(dp2019
g13
(lp2020
F1.0
asg15
(lp2021
(iBasisSets
PrimitiveFunction
p2022
(dp2023
g19
F58.5
sg20
S'S'
p2024
sbasg20
S'S'
p2025
sba(iBasisSets
BasisFunction
p2026
(dp2027
g13
(lp2028
F1.0
asg15
(lp2029
(iBasisSets
PrimitiveFunction
p2030
(dp2031
g19
F24.59
sg20
S'S'
p2032
sbasg20
S'S'
p2033
sba(iBasisSets
BasisFunction
p2034
(dp2035
g13
(lp2036
F1.0
asg15
(lp2037
(iBasisSets
PrimitiveFunction
p2038
(dp2039
g19
F10.81
sg20
S'S'
p2040
sbasg20
S'S'
p2041
sba(iBasisSets
BasisFunction
p2042
(dp2043
g13
(lp2044
F1.0
asg15
(lp2045
(iBasisSets
PrimitiveFunction
p2046
(dp2047
g19
F4.8819999999999997
sg20
S'S'
p2048
sbasg20
S'S'
p2049
sba(iBasisSets
BasisFunction
p2050
(dp2051
g13
(lp2052
F1.0
asg15
(lp2053
(iBasisSets
PrimitiveFunction
p2054
(dp2055
g19
F2.1949999999999998
sg20
S'S'
p2056
sbasg20
S'S'
p2057
sba(iBasisSets
BasisFunction
p2058
(dp2059
g13
(lp2060
F1.0
asg15
(lp2061
(iBasisSets
PrimitiveFunction
p2062
(dp2063
g19
F0.87150000000000005
sg20
S'S'
p2064
sbasg20
S'S'
p2065
sba(iBasisSets
BasisFunction
p2066
(dp2067
g13
(lp2068
F1.0
asg15
(lp2069
(iBasisSets
PrimitiveFunction
p2070
(dp2071
g19
F0.35039999999999999
sg20
S'S'
p2072
sbasg20
S'S'
p2073
sba(iBasisSets
BasisFunction
p2074
(dp2075
g13
(lp2076
F1.0
asg15
(lp2077
(iBasisSets
PrimitiveFunction
p2078
(dp2079
g19
F0.13969999999999999
sg20
S'S'
p2080
sbasg20
S'S'
p2081
sba(iBasisSets
BasisFunction
p2082
(dp2083
g13
(lp2084
F1.0
asg15
(lp2085
(iBasisSets
PrimitiveFunction
p2086
(dp2087
g19
F0.051799999999999999
sg20
S'S'
p2088
sbasg20
S'S'
p2089
sbassbsS'HE'
p2090
(iBasisSets
AtomBasis
p2091
(dp2092
g7
(dp2093
g133
(lp2094
(iBasisSets
BasisFunction
p2095
(dp2096
g13
(lp2097
F1.0
asg15
(lp2098
(iBasisSets
PrimitiveFunction
p2099
(dp2100
g19
F10.153
sg20
S'P'
p2101
sbasg20
S'P'
p2102
sba(iBasisSets
BasisFunction
p2103
(dp2104
g13
(lp2105
F1.0
asg15
(lp2106
(iBasisSets
PrimitiveFunction
p2107
(dp2108
g19
F3.6269999999999998
sg20
S'P'
p2109
sbasg20
S'P'
p2110
sba(iBasisSets
BasisFunction
p2111
(dp2112
g13
(lp2113
F1.0
asg15
(lp2114
(iBasisSets
PrimitiveFunction
p2115
(dp2116
g19
F1.296
sg20
S'P'
p2117
sbasg20
S'P'
p2118
sba(iBasisSets
BasisFunction
p2119
(dp2120
g13
(lp2121
F1.0
asg15
(lp2122
(iBasisSets
PrimitiveFunction
p2123
(dp2124
g19
F0.46300000000000002
sg20
S'P'
p2125
sbasg20
S'P'
p2126
sba(iBasisSets
BasisFunction
p2127
(dp2128
g13
(lp2129
F1.0
asg15
(lp2130
(iBasisSets
PrimitiveFunction
p2131
(dp2132
g19
F0.14000000000000001
sg20
S'P'
p2133
sbasg20
S'P'
p2134
sbasg207
(lp2135
(iBasisSets
BasisFunction
p2136
(dp2137
g13
(lp2138
F1.0
asg15
(lp2139
(iBasisSets
PrimitiveFunction
p2140
(dp2141
g19
F1145.0
sg20
S'S'
p2142
sbasg20
S'S'
p2143
sba(iBasisSets
BasisFunction
p2144
(dp2145
g13
(lp2146
F1.0
asg15
(lp2147
(iBasisSets
PrimitiveFunction
p2148
(dp2149
g19
F171.69999999999999
sg20
S'S'
p2150
sbasg20
S'S'
p2151
sba(iBasisSets
BasisFunction
p2152
(dp2153
g13
(lp2154
F1.0
asg15
(lp2155
(iBasisSets
PrimitiveFunction
p2156
(dp2157
g19
F39.07
sg20
S'S'
p2158
sbasg20
S'S'
p2159
sba(iBasisSets
BasisFunction
p2160
(dp2161
g13
(lp2162
F1.0
asg15
(lp2163
(iBasisSets
PrimitiveFunction
p2164
(dp2165
g19
F11.039999999999999
sg20
S'S'
p2166
sbasg20
S'S'
p2167
sba(iBasisSets
BasisFunction
p2168
(dp2169
g13
(lp2170
F1.0
asg15
(lp2171
(iBasisSets
PrimitiveFunction
p2172
(dp2173
g19
F3.5659999999999998
sg20
S'S'
p2174
sbasg20
S'S'
p2175
sba(iBasisSets
BasisFunction
p2176
(dp2177
g13
(lp2178
F1.0
asg15
(lp2179
(iBasisSets
PrimitiveFunction
p2180
(dp2181
g19
F1.24
sg20
S'S'
p2182
sbasg20
S'S'
p2183
sba(iBasisSets
BasisFunction
p2184
(dp2185
g13
(lp2186
F1.0
asg15
(lp2187
(iBasisSets
PrimitiveFunction
p2188
(dp2189
g19
F0.44729999999999998
sg20
S'S'
p2190
sbasg20
S'S'
p2191
sba(iBasisSets
BasisFunction
p2192
(dp2193
g13
(lp2194
F1.0
asg15
(lp2195
(iBasisSets
PrimitiveFunction
p2196
(dp2197
g19
F0.16400000000000001
sg20
S'S'
p2198
sbasg20
S'S'
p2199
sba(iBasisSets
BasisFunction
p2200
(dp2201
g13
(lp2202
F1.0
asg15
(lp2203
(iBasisSets
PrimitiveFunction
p2204
(dp2205
g19
F0.046640000000000001
sg20
S'S'
p2206
sbasg20
S'S'
p2207
sbasg9
(lp2208
(iBasisSets
BasisFunction
p2209
(dp2210
g13
(lp2211
F1.0
asg15
(lp2212
(iBasisSets
PrimitiveFunction
p2213
(dp2214
g19
F7.6660000000000004
sg20
S'D'
p2215
sbasg20
S'D'
p2216
sba(iBasisSets
BasisFunction
p2217
(dp2218
g13
(lp2219
F1.0
asg15
(lp2220
(iBasisSets
PrimitiveFunction
p2221
(dp2222
g19
F2.6469999999999998
sg20
S'D'
p2223
sbasg20
S'D'
p2224
sba(iBasisSets
BasisFunction
p2225
(dp2226
g13
(lp2227
F1.0
asg15
(lp2228
(iBasisSets
PrimitiveFunction
p2229
(dp2230
g19
F0.91400000000000003
sg20
S'D'
p2231
sbasg20
S'D'
p2232
sba(iBasisSets
BasisFunction
p2233
(dp2234
g13
(lp2235
F1.0
asg15
(lp2236
(iBasisSets
PrimitiveFunction
p2237
(dp2238
g19
F0.28920000000000001
sg20
S'D'
p2239
sbasg20
S'D'
p2240
sbasg55
(lp2241
(iBasisSets
BasisFunction
p2242
(dp2243
g13
(lp2244
F1.0
asg15
(lp2245
(iBasisSets
PrimitiveFunction
p2246
(dp2247
g19
F3.4300000000000002
sg20
S'G'
p2248
sbasg20
S'G'
p2249
sba(iBasisSets
BasisFunction
p2250
(dp2251
g13
(lp2252
F1.0
asg15
(lp2253
(iBasisSets
PrimitiveFunction
p2254
(dp2255
g19
F0.78990000000000005
sg20
S'G'
p2256
sbasg20
S'G'
p2257
sbasg81
(lp2258
(iBasisSets
BasisFunction
p2259
(dp2260
g13
(lp2261
F1.0
asg15
(lp2262
(iBasisSets
PrimitiveFunction
p2263
(dp2264
g19
F5.4109999999999996
sg20
S'F'
p2265
sbasg20
S'F'
p2266
sba(iBasisSets
BasisFunction
p2267
(dp2268
g13
(lp2269
F1.0
asg15
(lp2270
(iBasisSets
PrimitiveFunction
p2271
(dp2272
g19
F1.7070000000000001
sg20
S'F'
p2273
sbasg20
S'F'
p2274
sba(iBasisSets
BasisFunction
p2275
(dp2276
g13
(lp2277
F1.0
asg15
(lp2278
(iBasisSets
PrimitiveFunction
p2279
(dp2280
g19
F0.53449999999999998
sg20
S'F'
p2281
sbasg20
S'F'
p2282
sbassbssb.