(ibasisset
BasisSet
p0
(dp1
S'basisDictionary'
p2
(dp3
S'C'
p4
(lp5
(ibasisset
Shell
p6
(dp7
S'angularMomentum'
p8
S'S'
p9
sS'exponents'
p10
(lp11
F312100.0
aF46740.0
aF10640.0
aF3013.0
aF982.79999999999995
aF354.80000000000001
aF138.40000000000001
aF57.350000000000001
aF24.920000000000002
aF11.23
aF5.2009999999999996
asS'coefficients'
p12
(lp13
(lp14
F5.6699999999999999e-06
aF4.4100000000000001e-05
aF0.0002319
aF0.00097897000000000001
aF0.0035516300000000001
aF0.01144061
aF0.032998550000000001
aF0.084053470000000005
aF0.18067612999999999
aF0.3049114
aF0.34141569999999999
aa(lp15
F-1.2100000000000001e-06
aF-9.3899999999999999e-06
aF-4.9469999999999999e-05
aF-0.00020856999999999999
aF-0.00076015000000000002
aF-0.0024546899999999998
aF-0.0072015300000000003
aF-0.018807419999999998
aF-0.043250009999999998
aF-0.082597329999999997
aF-0.12857592000000001
aasS'atom'
p16
S' C'
p17
sba(ibasisset
Shell
p18
(dp19
g8
S'S'
p20
sg10
(lp21
F2.4260000000000002
asg12
(lp22
(lp23
F1.0
aasg16
S' C'
p24
sba(ibasisset
Shell
p25
(dp26
g8
S'S'
p27
sg10
(lp28
F0.96730000000000005
asg12
(lp29
(lp30
F1.0
aasg16
S' C'
p31
sba(ibasisset
Shell
p32
(dp33
g8
S'S'
p34
sg10
(lp35
F0.4456
asg12
(lp36
(lp37
F1.0
aasg16
S' C'
p38
sba(ibasisset
Shell
p39
(dp40
g8
S'S'
p41
sg10
(lp42
F0.1971
asg12
(lp43
(lp44
F1.0
aasg16
S' C'
p45
sba(ibasisset
Shell
p46
(dp47
g8
S'S'
p48
sg10
(lp49
F0.086349999999999996
asg12
(lp50
(lp51
F1.0
aasg16
S' C'
p52
sba(ibasisset
Shell
p53
(dp54
g8
S'P'
p55
sg10
(lp56
F295.19999999999999
aF69.980000000000004
aF22.640000000000001
aF8.4849999999999994
aF3.4590000000000001
asg12
(lp57
(lp58
F0.00014249
aF0.0012201
aF0.00633696
aF0.023518750000000001
aF0.069904469999999996
aasg16
S' C'
p59
sba(ibasisset
Shell
p60
(dp61
g8
S'P'
p62
sg10
(lp63
F1.504
asg12
(lp64
(lp65
F1.0
aasg16
S' C'
p66
sba(ibasisset
Shell
p67
(dp68
g8
S'P'
p69
sg10
(lp70
F0.67830000000000001
asg12
(lp71
(lp72
F1.0
aasg16
S' C'
p73
sba(ibasisset
Shell
p74
(dp75
g8
S'P'
p76
sg10
(lp77
F0.30869999999999997
asg12
(lp78
(lp79
F1.0
aasg16
S' C'
p80
sba(ibasisset
Shell
p81
(dp82
g8
S'P'
p83
sg10
(lp84
F0.14000000000000001
asg12
(lp85
(lp86
F1.0
aasg16
S' C'
p87
sba(ibasisset
Shell
p88
(dp89
g8
S'P'
p90
sg10
(lp91
F0.061780000000000002
asg12
(lp92
(lp93
F1.0
aasg16
S' C'
p94
sba(ibasisset
Shell
p95
(dp96
g8
S'D'
p97
sg10
(lp98
F4.5419999999999998
asg12
(lp99
(lp100
F1.0
aasg16
S' C'
p101
sba(ibasisset
Shell
p102
(dp103
g8
S'D'
p104
sg10
(lp105
F1.9790000000000001
asg12
(lp106
(lp107
F1.0
aasg16
S' C'
p108
sba(ibasisset
Shell
p109
(dp110
g8
S'D'
p111
sg10
(lp112
F0.86209999999999998
asg12
(lp113
(lp114
F1.0
aasg16
S' C'
p115
sba(ibasisset
Shell
p116
(dp117
g8
S'D'
p118
sg10
(lp119
F0.37559999999999999
asg12
(lp120
(lp121
F1.0
aasg16
S' C'
p122
sba(ibasisset
Shell
p123
(dp124
g8
S'D'
p125
sg10
(lp126
F0.1636
asg12
(lp127
(lp128
F1.0
aasg16
S' C'
p129
sba(ibasisset
Shell
p130
(dp131
g8
S'F'
p132
sg10
(lp133
F2.6309999999999998
asg12
(lp134
(lp135
F1.0
aasg16
S' C'
p136
sba(ibasisset
Shell
p137
(dp138
g8
S'F'
p139
sg10
(lp140
F1.2549999999999999
asg12
(lp141
(lp142
F1.0
aasg16
S' C'
p143
sba(ibasisset
Shell
p144
(dp145
g8
S'F'
p146
sg10
(lp147
F0.5988
asg12
(lp148
(lp149
F1.0
aasg16
S' C'
p150
sba(ibasisset
Shell
p151
(dp152
g8
S'F'
p153
sg10
(lp154
F0.28570000000000001
asg12
(lp155
(lp156
F1.0
aasg16
S' C'
p157
sba(ibasisset
Shell
p158
(dp159
g8
S'G'
p160
sg10
(lp161
F2.6520000000000001
asg12
(lp162
(lp163
F1.0
aasg16
S' C'
p164
sba(ibasisset
Shell
p165
(dp166
g8
S'G'
p167
sg10
(lp168
F1.204
asg12
(lp169
(lp170
F1.0
aasg16
S' C'
p171
sba(ibasisset
Shell
p172
(dp173
g8
S'G'
p174
sg10
(lp175
F0.54700000000000004
asg12
(lp176
(lp177
F1.0
aasg16
S' C'
p178
sba(ibasisset
Shell
p179
(dp180
g8
S'H'
p181
sg10
(lp182
F2.0299999999999998
asg12
(lp183
(lp184
F1.0
aasg16
S' C'
p185
sba(ibasisset
Shell
p186
(dp187
g8
S'H'
p188
sg10
(lp189
F0.85109999999999997
asg12
(lp190
(lp191
F1.0
aasg16
S' C'
p192
sba(ibasisset
Shell
p193
(dp194
g8
S'I'
p195
sg10
(lp196
F1.4910000000000001
asg12
(lp197
(lp198
F1.0
aasg16
S' C'
p199
sba(ibasisset
Shell
p200
(dp201
g8
S'S'
p202
sg10
(lp203
F0.035400000000000001
asg12
(lp204
(lp205
F1.0
aasg16
S' C'
p206
sba(ibasisset
Shell
p207
(dp208
g8
S'P'
p209
sg10
(lp210
F0.02376
asg12
(lp211
(lp212
F1.0
aasg16
S' C'
p213
sba(ibasisset
Shell
p214
(dp215
g8
S'D'
p216
sg10
(lp217
F0.063600000000000004
asg12
(lp218
(lp219
F1.0
aasg16
S' C'
p220
sba(ibasisset
Shell
p221
(dp222
g8
S'F'
p223
sg10
(lp224
F0.11799999999999999
asg12
(lp225
(lp226
F1.0
aasg16
S' C'
p227
sba(ibasisset
Shell
p228
(dp229
g8
S'G'
p230
sg10
(lp231
F0.254
asg12
(lp232
(lp233
F1.0
aasg16
S' C'
p234
sba(ibasisset
Shell
p235
(dp236
g8
S'H'
p237
sg10
(lp238
F0.45100000000000001
asg12
(lp239
(lp240
F1.0
aasg16
S' C'
p241
sba(ibasisset
Shell
p242
(dp243
g8
S'I'
p244
sg10
(lp245
F0.77600000000000002
asg12
(lp246
(lp247
F1.0
aasg16
S' C'
p248
sbasS'F'
p249
(lp250
(ibasisset
Shell
p251
(dp252
g8
S'S'
p253
sg10
(lp254
F723500.0
aF108400.0
aF24680.0
aF6990.0
aF2282.0
aF824.60000000000002
aF321.80000000000001
aF133.5
aF58.109999999999999
aF26.280000000000001
aF12.24
asg12
(lp255
(lp256
F5.5600000000000001e-06
aF4.3180000000000003e-05
aF0.00022699999999999999
aF0.00095803000000000001
aF0.00347015
aF0.011185260000000001
aF0.032328799999999998
aF0.082795450000000007
aF0.17988024
aF0.30557831000000002
aF0.34026838999999998
aa(lp257
F-1.2899999999999999e-06
aF-9.9899999999999992e-06
aF-5.2599999999999998e-05
aF-0.00022172000000000001
aF-0.00080692000000000003
aF-0.0026081699999999999
aF-0.0076740200000000001
aF-0.020193530000000001
aF-0.047187519999999997
aF-0.091580090000000003
aF-0.14048558
aasg16
S' F'
p258
sba(ibasisset
Shell
p259
(dp260
g8
S'S'
p261
sg10
(lp262
F5.7469999999999999
asg12
(lp263
(lp264
F1.0
aasg16
S' F'
p265
sba(ibasisset
Shell
p266
(dp267
g8
S'S'
p268
sg10
(lp269
F2.3650000000000002
asg12
(lp270
(lp271
F1.0
aasg16
S' F'
p272
sba(ibasisset
Shell
p273
(dp274
g8
S'S'
p275
sg10
(lp276
F1.071
asg12
(lp277
(lp278
F1.0
aasg16
S' F'
p279
sba(ibasisset
Shell
p280
(dp281
g8
S'S'
p282
sg10
(lp283
F0.46810000000000002
asg12
(lp284
(lp285
F1.0
aasg16
S' F'
p286
sba(ibasisset
Shell
p287
(dp288
g8
S'S'
p289
sg10
(lp290
F0.19939999999999999
asg12
(lp291
(lp292
F1.0
aasg16
S' F'
p293
sba(ibasisset
Shell
p294
(dp295
g8
S'P'
p296
sg10
(lp297
F660.0
aF156.40000000000001
aF50.640000000000001
aF19.079999999999998
aF7.8719999999999999
asg12
(lp298
(lp299
F0.00017720999999999999
aF0.00152691
aF0.0080720700000000006
aF0.03074021
aF0.09011914
aasg16
S' F'
p300
sba(ibasisset
Shell
p301
(dp302
g8
S'P'
p303
sg10
(lp304
F3.4489999999999998
asg12
(lp305
(lp306
F1.0
aasg16
S' F'
p307
sba(ibasisset
Shell
p308
(dp309
g8
S'P'
p310
sg10
(lp311
F1.5449999999999999
asg12
(lp312
(lp313
F1.0
aasg16
S' F'
p314
sba(ibasisset
Shell
p315
(dp316
g8
S'P'
p317
sg10
(lp318
F0.68640000000000001
asg12
(lp319
(lp320
F1.0
aasg16
S' F'
p321
sba(ibasisset
Shell
p322
(dp323
g8
S'P'
p324
sg10
(lp325
F0.29859999999999998
asg12
(lp326
(lp327
F1.0
aasg16
S' F'
p328
sba(ibasisset
Shell
p329
(dp330
g8
S'P'
p331
sg10
(lp332
F0.1245
asg12
(lp333
(lp334
F1.0
aasg16
S' F'
p335
sba(ibasisset
Shell
p336
(dp337
g8
S'D'
p338
sg10
(lp339
F10.573
asg12
(lp340
(lp341
F1.0
aasg16
S' F'
p342
sba(ibasisset
Shell
p343
(dp344
g8
S'D'
p345
sg10
(lp346
F4.6130000000000004
asg12
(lp347
(lp348
F1.0
aasg16
S' F'
p349
sba(ibasisset
Shell
p350
(dp351
g8
S'D'
p352
sg10
(lp353
F2.0129999999999999
asg12
(lp354
(lp355
F1.0
aasg16
S' F'
p356
sba(ibasisset
Shell
p357
(dp358
g8
S'D'
p359
sg10
(lp360
F0.878
asg12
(lp361
(lp362
F1.0
aasg16
S' F'
p363
sba(ibasisset
Shell
p364
(dp365
g8
S'D'
p366
sg10
(lp367
F0.38300000000000001
asg12
(lp368
(lp369
F1.0
aasg16
S' F'
p370
sba(ibasisset
Shell
p371
(dp372
g8
S'F'
p373
sg10
(lp374
F7.5629999999999997
asg12
(lp375
(lp376
F1.0
aasg16
S' F'
p377
sba(ibasisset
Shell
p378
(dp379
g8
S'F'
p380
sg10
(lp381
F3.3300000000000001
asg12
(lp382
(lp383
F1.0
aasg16
S' F'
p384
sba(ibasisset
Shell
p385
(dp386
g8
S'F'
p387
sg10
(lp388
F1.466
asg12
(lp389
(lp390
F1.0
aasg16
S' F'
p391
sba(ibasisset
Shell
p392
(dp393
g8
S'F'
p394
sg10
(lp395
F0.64500000000000002
asg12
(lp396
(lp397
F1.0
aasg16
S' F'
p398
sba(ibasisset
Shell
p399
(dp400
g8
S'G'
p401
sg10
(lp402
F6.7350000000000003
asg12
(lp403
(lp404
F1.0
aasg16
S' F'
p405
sba(ibasisset
Shell
p406
(dp407
g8
S'G'
p408
sg10
(lp409
F2.7829999999999999
asg12
(lp410
(lp411
F1.0
aasg16
S' F'
p412
sba(ibasisset
Shell
p413
(dp414
g8
S'G'
p415
sg10
(lp416
F1.1499999999999999
asg12
(lp417
(lp418
F1.0
aasg16
S' F'
p419
sba(ibasisset
Shell
p420
(dp421
g8
S'H'
p422
sg10
(lp423
F5.0880000000000001
asg12
(lp424
(lp425
F1.0
aasg16
S' F'
p426
sba(ibasisset
Shell
p427
(dp428
g8
S'H'
p429
sg10
(lp430
F1.9370000000000001
asg12
(lp431
(lp432
F1.0
aasg16
S' F'
p433
sba(ibasisset
Shell
p434
(dp435
g8
S'I'
p436
sg10
(lp437
F3.581
asg12
(lp438
(lp439
F1.0
aasg16
S' F'
p440
sba(ibasisset
Shell
p441
(dp442
g8
S'S'
p443
sg10
(lp444
F0.073150000000000007
asg12
(lp445
(lp446
F1.0
aasg16
S' F'
p447
sba(ibasisset
Shell
p448
(dp449
g8
S'P'
p450
sg10
(lp451
F0.047600000000000003
asg12
(lp452
(lp453
F1.0
aasg16
S' F'
p454
sba(ibasisset
Shell
p455
(dp456
g8
S'D'
p457
sg10
(lp458
F0.151
asg12
(lp459
(lp460
F1.0
aasg16
S' F'
p461
sba(ibasisset
Shell
p462
(dp463
g8
S'F'
p464
sg10
(lp465
F0.27200000000000002
asg12
(lp466
(lp467
F1.0
aasg16
S' F'
p468
sba(ibasisset
Shell
p469
(dp470
g8
S'G'
p471
sg10
(lp472
F0.52000000000000002
asg12
(lp473
(lp474
F1.0
aasg16
S' F'
p475
sba(ibasisset
Shell
p476
(dp477
g8
S'H'
p478
sg10
(lp479
F0.98499999999999999
asg12
(lp480
(lp481
F1.0
aasg16
S' F'
p482
sba(ibasisset
Shell
p483
(dp484
g8
S'I'
p485
sg10
(lp486
F1.7390000000000001
asg12
(lp487
(lp488
F1.0
aasg16
S' F'
p489
sbasS'H'
p490
(lp491
(ibasisset
Shell
p492
(dp493
g8
S'S'
p494
sg10
(lp495
F1776.77556
aF254.01771199999999
aF54.698039000000001
aF15.018344000000001
aF4.9150780000000003
asg12
(lp496
(lp497
F4.3999999999999999e-05
aF0.00037199999999999999
aF0.0020939999999999999
aF0.0088629999999999994
aF0.030540000000000001
aasg16
S' H'
p498
sba(ibasisset
Shell
p499
(dp500
g8
S'S'
p501
sg10
(lp502
F1.794924
asg12
(lp503
(lp504
F1.0
aasg16
S' H'
p505
sba(ibasisset
Shell
p506
(dp507
g8
S'S'
p508
sg10
(lp509
F0.71071600000000001
asg12
(lp510
(lp511
F1.0
aasg16
S' H'
p512
sba(ibasisset
Shell
p513
(dp514
g8
S'S'
p515
sg10
(lp516
F0.30480200000000002
asg12
(lp517
(lp518
F1.0
aasg16
S' H'
p519
sba(ibasisset
Shell
p520
(dp521
g8
S'S'
p522
sg10
(lp523
F0.138046
asg12
(lp524
(lp525
F1.0
aasg16
S' H'
p526
sba(ibasisset
Shell
p527
(dp528
g8
S'S'
p529
sg10
(lp530
F0.062156999999999997
asg12
(lp531
(lp532
F1.0
aasg16
S' H'
p533
sba(ibasisset
Shell
p534
(dp535
g8
S'P'
p536
sg10
(lp537
F8.6489999999999991
asg12
(lp538
(lp539
F1.0
aasg16
S' H'
p540
sba(ibasisset
Shell
p541
(dp542
g8
S'P'
p543
sg10
(lp544
F3.4300000000000002
asg12
(lp545
(lp546
F1.0
aasg16
S' H'
p547
sba(ibasisset
Shell
p548
(dp549
g8
S'P'
p550
sg10
(lp551
F1.3600000000000001
asg12
(lp552
(lp553
F1.0
aasg16
S' H'
p554
sba(ibasisset
Shell
p555
(dp556
g8
S'P'
p557
sg10
(lp558
F0.53900000000000003
asg12
(lp559
(lp560
F1.0
aasg16
S' H'
p561
sba(ibasisset
Shell
p562
(dp563
g8
S'P'
p564
sg10
(lp565
F0.214
asg12
(lp566
(lp567
F1.0
aasg16
S' H'
p568
sba(ibasisset
Shell
p569
(dp570
g8
S'D'
p571
sg10
(lp572
F4.4530000000000003
asg12
(lp573
(lp574
F1.0
aasg16
S' H'
p575
sba(ibasisset
Shell
p576
(dp577
g8
S'D'
p578
sg10
(lp579
F1.958
asg12
(lp580
(lp581
F1.0
aasg16
S' H'
p582
sba(ibasisset
Shell
p583
(dp584
g8
S'D'
p585
sg10
(lp586
F0.86099999999999999
asg12
(lp587
(lp588
F1.0
aasg16
S' H'
p589
sba(ibasisset
Shell
p590
(dp591
g8
S'D'
p592
sg10
(lp593
F0.378
asg12
(lp594
(lp595
F1.0
aasg16
S' H'
p596
sba(ibasisset
Shell
p597
(dp598
g8
S'F'
p599
sg10
(lp600
F4.0999999999999996
asg12
(lp601
(lp602
F1.0
aasg16
S' H'
p603
sba(ibasisset
Shell
p604
(dp605
g8
S'F'
p606
sg10
(lp607
F1.78
asg12
(lp608
(lp609
F1.0
aasg16
S' H'
p610
sba(ibasisset
Shell
p611
(dp612
g8
S'F'
p613
sg10
(lp614
F0.77300000000000002
asg12
(lp615
(lp616
F1.0
aasg16
S' H'
p617
sba(ibasisset
Shell
p618
(dp619
g8
S'G'
p620
sg10
(lp621
F3.1989999999999998
asg12
(lp622
(lp623
F1.0
aasg16
S' H'
p624
sba(ibasisset
Shell
p625
(dp626
g8
S'G'
p627
sg10
(lp628
F1.3260000000000001
asg12
(lp629
(lp630
F1.0
aasg16
S' H'
p631
sba(ibasisset
Shell
p632
(dp633
g8
S'H'
p634
sg10
(lp635
F2.653
asg12
(lp636
(lp637
F1.0
aasg16
S' H'
p638
sba(ibasisset
Shell
p639
(dp640
g8
S'S'
p641
sg10
(lp642
F0.0189
asg12
(lp643
(lp644
F1.0
aasg16
S' H'
p645
sba(ibasisset
Shell
p646
(dp647
g8
S'P'
p648
sg10
(lp649
F0.067000000000000004
asg12
(lp650
(lp651
F1.0
aasg16
S' H'
p652
sba(ibasisset
Shell
p653
(dp654
g8
S'D'
p655
sg10
(lp656
F0.126
asg12
(lp657
(lp658
F1.0
aasg16
S' H'
p659
sba(ibasisset
Shell
p660
(dp661
g8
S'F'
p662
sg10
(lp663
F0.245
asg12
(lp664
(lp665
F1.0
aasg16
S' H'
p666
sba(ibasisset
Shell
p667
(dp668
g8
S'G'
p669
sg10
(lp670
F0.40699999999999997
asg12
(lp671
(lp672
F1.0
aasg16
S' H'
p673
sba(ibasisset
Shell
p674
(dp675
g8
S'H'
p676
sg10
(lp677
F0.68200000000000005
asg12
(lp678
(lp679
F1.0
aasg16
S' H'
p680
sbasS'HE'
p681
(lp682
(ibasisset
Shell
p683
(dp684
g8
S'S'
p685
sg10
(lp686
F4785.0
aF717.0
aF163.19999999999999
aF46.259999999999998
aF15.1
asg12
(lp687
(lp688
F5.9999999999999997e-07
aF4.6999999999999999e-06
aF2.44e-05
aF0.00010119999999999999
aF0.00034860000000000002
aasg16
S'HE'
p689
sba(ibasisset
Shell
p690
(dp691
g8
S'S'
p692
sg10
(lp693
F5.4370000000000003
asg12
(lp694
(lp695
F1.0
aasg16
S'HE'
p696
sba(ibasisset
Shell
p697
(dp698
g8
S'S'
p699
sg10
(lp700
F2.0880000000000001
asg12
(lp701
(lp702
F1.0
aasg16
S'HE'
p703
sba(ibasisset
Shell
p704
(dp705
g8
S'S'
p706
sg10
(lp707
F0.82969999999999999
asg12
(lp708
(lp709
F1.0
aasg16
S'HE'
p710
sba(ibasisset
Shell
p711
(dp712
g8
S'S'
p713
sg10
(lp714
F0.33660000000000001
asg12
(lp715
(lp716
F1.0
aasg16
S'HE'
p717
sba(ibasisset
Shell
p718
(dp719
g8
S'S'
p720
sg10
(lp721
F0.13689999999999999
asg12
(lp722
(lp723
F1.0
aasg16
S'HE'
p724
sba(ibasisset
Shell
p725
(dp726
g8
S'P'
p727
sg10
(lp728
F0.38700000000000001
asg12
(lp729
(lp730
F1.0
aasg16
S'HE'
p731
sba(ibasisset
Shell
p732
(dp733
g8
S'P'
p734
sg10
(lp735
F0.98399999999999999
asg12
(lp736
(lp737
F1.0
aasg16
S'HE'
p738
sba(ibasisset
Shell
p739
(dp740
g8
S'P'
p741
sg10
(lp742
F2.4980000000000002
asg12
(lp743
(lp744
F1.0
aasg16
S'HE'
p745
sba(ibasisset
Shell
p746
(dp747
g8
S'P'
p748
sg10
(lp749
F6.3419999999999996
asg12
(lp750
(lp751
F1.0
aasg16
S'HE'
p752
sba(ibasisset
Shell
p753
(dp754
g8
S'P'
p755
sg10
(lp756
F16.103999999999999
asg12
(lp757
(lp758
F1.0
aasg16
S'HE'
p759
sba(ibasisset
Shell
p760
(dp761
g8
S'D'
p762
sg10
(lp763
F0.747
asg12
(lp764
(lp765
F1.0
aasg16
S'HE'
p766
sba(ibasisset
Shell
p767
(dp768
g8
S'D'
p769
sg10
(lp770
F1.9099999999999999
asg12
(lp771
(lp772
F1.0
aasg16
S'HE'
p773
sba(ibasisset
Shell
p774
(dp775
g8
S'D'
p776
sg10
(lp777
F4.8860000000000001
asg12
(lp778
(lp779
F1.0
aasg16
S'HE'
p780
sba(ibasisset
Shell
p781
(dp782
g8
S'D'
p783
sg10
(lp784
F12.497999999999999
asg12
(lp785
(lp786
F1.0
aasg16
S'HE'
p787
sba(ibasisset
Shell
p788
(dp789
g8
S'F'
p790
sg10
(lp791
F1.292
asg12
(lp792
(lp793
F1.0
aasg16
S'HE'
p794
sba(ibasisset
Shell
p795
(dp796
g8
S'F'
p797
sg10
(lp798
F3.4620000000000002
asg12
(lp799
(lp800
F1.0
aasg16
S'HE'
p801
sba(ibasisset
Shell
p802
(dp803
g8
S'F'
p804
sg10
(lp805
F9.2759999999999998
asg12
(lp806
(lp807
F1.0
aasg16
S'HE'
p808
sba(ibasisset
Shell
p809
(dp810
g8
S'G'
p811
sg10
(lp812
F2.2360000000000002
asg12
(lp813
(lp814
F1.0
aasg16
S'HE'
p815
sba(ibasisset
Shell
p816
(dp817
g8
S'G'
p818
sg10
(lp819
F6.5860000000000003
asg12
(lp820
(lp821
F1.0
aasg16
S'HE'
p822
sba(ibasisset
Shell
p823
(dp824
g8
S'H'
p825
sg10
(lp826
F4.1589999999999998
asg12
(lp827
(lp828
F1.0
aasg16
S'HE'
p829
sba(ibasisset
Shell
p830
(dp831
g8
S'S'
p832
sg10
(lp833
F0.044729999999999999
asg12
(lp834
(lp835
F1.0
aasg16
S'HE'
p836
sba(ibasisset
Shell
p837
(dp838
g8
S'P'
p839
sg10
(lp840
F0.128
asg12
(lp841
(lp842
F1.0
aasg16
S'HE'
p843
sba(ibasisset
Shell
p844
(dp845
g8
S'D'
p846
sg10
(lp847
F0.24099999999999999
asg12
(lp848
(lp849
F1.0
aasg16
S'HE'
p850
sba(ibasisset
Shell
p851
(dp852
g8
S'F'
p853
sg10
(lp854
F0.40699999999999997
asg12
(lp855
(lp856
F1.0
aasg16
S'HE'
p857
sba(ibasisset
Shell
p858
(dp859
g8
S'G'
p860
sg10
(lp861
F0.68600000000000005
asg12
(lp862
(lp863
F1.0
aasg16
S'HE'
p864
sba(ibasisset
Shell
p865
(dp866
g8
S'H'
p867
sg10
(lp868
F1.016
asg12
(lp869
(lp870
F1.0
aasg16
S'HE'
p871
sbasS'NE'
p872
(lp873
(ibasisset
Shell
p874
(dp875
g8
S'S'
p876
sg10
(lp877
F902400.0
aF135100.0
aF30750.0
aF8710.0
aF2842.0
aF1026.0
aF400.10000000000002
aF165.90000000000001
aF72.209999999999994
aF32.659999999999997
aF15.220000000000001
asg12
(lp878
(lp879
F5.5099999999999998e-06
aF4.282e-05
aF0.00022514
aF0.00095016000000000002
aF0.0034471900000000001
aF0.01112545
aF0.03220568
aF0.082598909999999998
aF0.17990564000000001
aF0.30605208
aF0.34012558999999998
aa(lp880
F-1.2899999999999999e-06
aF-1.005e-05
aF-5.2930000000000003e-05
aF-0.00022311999999999999
aF-0.00081338000000000005
aF-0.0026323000000000002
aF-0.0077590999999999997
aF-0.020452769999999999
aF-0.047975049999999998
aF-0.093400860000000002
aF-0.14277214999999999
aasg16
S'NE'
p881
sba(ibasisset
Shell
p882
(dp883
g8
S'S'
p884
sg10
(lp885
F7.149
asg12
(lp886
(lp887
F1.0
aasg16
S'NE'
p888
sba(ibasisset
Shell
p889
(dp890
g8
S'S'
p891
sg10
(lp892
F2.9569999999999999
asg12
(lp893
(lp894
F1.0
aasg16
S'NE'
p895
sba(ibasisset
Shell
p896
(dp897
g8
S'S'
p898
sg10
(lp899
F1.335
asg12
(lp900
(lp901
F1.0
aasg16
S'NE'
p902
sba(ibasisset
Shell
p903
(dp904
g8
S'S'
p905
sg10
(lp906
F0.58160000000000001
asg12
(lp907
(lp908
F1.0
aasg16
S'NE'
p909
sba(ibasisset
Shell
p910
(dp911
g8
S'S'
p912
sg10
(lp913
F0.24629999999999999
asg12
(lp914
(lp915
F1.0
aasg16
S'NE'
p916
sba(ibasisset
Shell
p917
(dp918
g8
S'P'
p919
sg10
(lp920
F815.60000000000002
aF193.30000000000001
aF62.600000000000001
aF23.609999999999999
aF9.7620000000000005
asg12
(lp921
(lp922
F0.00018375999999999999
aF0.0015850899999999999
aF0.0084146399999999993
aF0.032200329999999999
aF0.093963900000000003
aasg16
S'NE'
p923
sba(ibasisset
Shell
p924
(dp925
g8
S'P'
p926
sg10
(lp927
F4.2809999999999997
asg12
(lp928
(lp929
F1.0
aasg16
S'NE'
p930
sba(ibasisset
Shell
p931
(dp932
g8
S'P'
p933
sg10
(lp934
F1.915
asg12
(lp935
(lp936
F1.0
aasg16
S'NE'
p937
sba(ibasisset
Shell
p938
(dp939
g8
S'P'
p940
sg10
(lp941
F0.84760000000000002
asg12
(lp942
(lp943
F1.0
aasg16
S'NE'
p944
sba(ibasisset
Shell
p945
(dp946
g8
S'P'
p947
sg10
(lp948
F0.36599999999999999
asg12
(lp949
(lp950
F1.0
aasg16
S'NE'
p951
sba(ibasisset
Shell
p952
(dp953
g8
S'P'
p954
sg10
(lp955
F0.151
asg12
(lp956
(lp957
F1.0
aasg16
S'NE'
p958
sba(ibasisset
Shell
p959
(dp960
g8
S'D'
p961
sg10
(lp962
F13.317
asg12
(lp963
(lp964
F1.0
aasg16
S'NE'
p965
sba(ibasisset
Shell
p966
(dp967
g8
S'D'
p968
sg10
(lp969
F5.8029999999999999
asg12
(lp970
(lp971
F1.0
aasg16
S'NE'
p972
sba(ibasisset
Shell
p973
(dp974
g8
S'D'
p975
sg10
(lp976
F2.5289999999999999
asg12
(lp977
(lp978
F1.0
aasg16
S'NE'
p979
sba(ibasisset
Shell
p980
(dp981
g8
S'D'
p982
sg10
(lp983
F1.1020000000000001
asg12
(lp984
(lp985
F1.0
aasg16
S'NE'
p986
sba(ibasisset
Shell
p987
(dp988
g8
S'D'
p989
sg10
(lp990
F0.47999999999999998
asg12
(lp991
(lp992
F1.0
aasg16
S'NE'
p993
sba(ibasisset
Shell
p994
(dp995
g8
S'F'
p996
sg10
(lp997
F10.356
asg12
(lp998
(lp999
F1.0
aasg16
S'NE'
p1000
sba(ibasisset
Shell
p1001
(dp1002
g8
S'F'
p1003
sg10
(lp1004
F4.5380000000000003
asg12
(lp1005
(lp1006
F1.0
aasg16
S'NE'
p1007
sba(ibasisset
Shell
p1008
(dp1009
g8
S'F'
p1010
sg10
(lp1011
F1.9890000000000001
asg12
(lp1012
(lp1013
F1.0
aasg16
S'NE'
p1014
sba(ibasisset
Shell
p1015
(dp1016
g8
S'F'
p1017
sg10
(lp1018
F0.871
asg12
(lp1019
(lp1020
F1.0
aasg16
S'NE'
p1021
sba(ibasisset
Shell
p1022
(dp1023
g8
S'G'
p1024
sg10
(lp1025
F8.3450000000000006
asg12
(lp1026
(lp1027
F1.0
aasg16
S'NE'
p1028
sba(ibasisset
Shell
p1029
(dp1030
g8
S'G'
p1031
sg10
(lp1032
F3.4169999999999998
asg12
(lp1033
(lp1034
F1.0
aasg16
S'NE'
p1035
sba(ibasisset
Shell
p1036
(dp1037
g8
S'G'
p1038
sg10
(lp1039
F1.399
asg12
(lp1040
(lp1041
F1.0
aasg16
S'NE'
p1042
sba(ibasisset
Shell
p1043
(dp1044
g8
S'H'
p1045
sg10
(lp1046
F6.5190000000000001
asg12
(lp1047
(lp1048
F1.0
aasg16
S'NE'
p1049
sba(ibasisset
Shell
p1050
(dp1051
g8
S'H'
p1052
sg10
(lp1053
F2.4470000000000001
asg12
(lp1054
(lp1055
F1.0
aasg16
S'NE'
p1056
sba(ibasisset
Shell
p1057
(dp1058
g8
S'I'
p1059
sg10
(lp1060
F4.4889999999999999
asg12
(lp1061
(lp1062
F1.0
aasg16
S'NE'
p1063
sba(ibasisset
Shell
p1064
(dp1065
g8
S'S'
p1066
sg10
(lp1067
F0.086900000000000005
asg12
(lp1068
(lp1069
F1.0
aasg16
S'NE'
p1070
sba(ibasisset
Shell
p1071
(dp1072
g8
S'P'
p1073
sg10
(lp1074
F0.056599999999999998
asg12
(lp1075
(lp1076
F1.0
aasg16
S'NE'
p1077
sba(ibasisset
Shell
p1078
(dp1079
g8
S'D'
p1080
sg10
(lp1081
F0.187
asg12
(lp1082
(lp1083
F1.0
aasg16
S'NE'
p1084
sba(ibasisset
Shell
p1085
(dp1086
g8
S'F'
p1087
sg10
(lp1088
F0.34920000000000001
asg12
(lp1089
(lp1090
F1.0
aasg16
S'NE'
p1091
sba(ibasisset
Shell
p1092
(dp1093
g8
S'G'
p1094
sg10
(lp1095
F0.63449999999999995
asg12
(lp1096
(lp1097
F1.0
aasg16
S'NE'
p1098
sba(ibasisset
Shell
p1099
(dp1100
g8
S'H'
p1101
sg10
(lp1102
F1.2093
asg12
(lp1103
(lp1104
F1.0
aasg16
S'NE'
p1105
sba(ibasisset
Shell
p1106
(dp1107
g8
S'I'
p1108
sg10
(lp1109
F2.1215000000000002
asg12
(lp1110
(lp1111
F1.0
aasg16
S'NE'
p1112
sbasS'O'
p1113
(lp1114
(ibasisset
Shell
p1115
(dp1116
g8
S'S'
p1117
sg10
(lp1118
F570800.0
aF85480.0
aF19460.0
aF5512.0
aF1798.0
aF648.89999999999998
aF253.09999999999999
aF104.90000000000001
aF45.649999999999999
aF20.620000000000001
aF9.5869999999999997
asg12
(lp1119
(lp1120
F5.5500000000000002e-06
aF4.3109999999999999e-05
aF0.00022667
aF0.00095637000000000001
aF0.0034732000000000001
aF0.011197779999999999
aF0.032387659999999999
aF0.082859769999999999
aF0.17958381000000001
aF0.30522110000000002
aF0.34089349000000002
aa(lp1121
F-1.26e-06
aF-9.7699999999999996e-06
aF-5.1480000000000002e-05
aF-0.00021696000000000001
aF-0.00079162000000000004
aF-0.0025590000000000001
aF-0.0075331299999999999
aF-0.019788969999999999
aF-0.04606288
aF-0.0891956
aF-0.13754216
aasg16
S' O'
p1122
sba(ibasisset
Shell
p1123
(dp1124
g8
S'S'
p1125
sg10
(lp1126
F4.4930000000000003
asg12
(lp1127
(lp1128
F1.0
aasg16
S' O'
p1129
sba(ibasisset
Shell
p1130
(dp1131
g8
S'S'
p1132
sg10
(lp1133
F1.837
asg12
(lp1134
(lp1135
F1.0
aasg16
S' O'
p1136
sba(ibasisset
Shell
p1137
(dp1138
g8
S'S'
p1139
sg10
(lp1140
F0.83489999999999998
asg12
(lp1141
(lp1142
F1.0
aasg16
S' O'
p1143
sba(ibasisset
Shell
p1144
(dp1145
g8
S'S'
p1146
sg10
(lp1147
F0.36580000000000001
asg12
(lp1148
(lp1149
F1.0
aasg16
S' O'
p1150
sba(ibasisset
Shell
p1151
(dp1152
g8
S'S'
p1153
sg10
(lp1154
F0.157
asg12
(lp1155
(lp1156
F1.0
aasg16
S' O'
p1157
sba(ibasisset
Shell
p1158
(dp1159
g8
S'P'
p1160
sg10
(lp1161
F525.60000000000002
aF124.59999999999999
aF40.340000000000003
aF15.18
aF6.2450000000000001
asg12
(lp1162
(lp1163
F0.00016663999999999999
aF0.0014333600000000001
aF0.0075476199999999997
aF0.028594560000000002
aF0.084388580000000005
aasg16
S' O'
p1164
sba(ibasisset
Shell
p1165
(dp1166
g8
S'P'
p1167
sg10
(lp1168
F2.7320000000000002
asg12
(lp1169
(lp1170
F1.0
aasg16
S' O'
p1171
sba(ibasisset
Shell
p1172
(dp1173
g8
S'P'
p1174
sg10
(lp1175
F1.2270000000000001
asg12
(lp1176
(lp1177
F1.0
aasg16
S' O'
p1178
sba(ibasisset
Shell
p1179
(dp1180
g8
S'P'
p1181
sg10
(lp1182
F0.54920000000000002
asg12
(lp1183
(lp1184
F1.0
aasg16
S' O'
p1185
sba(ibasisset
Shell
p1186
(dp1187
g8
S'P'
p1188
sg10
(lp1189
F0.24179999999999999
asg12
(lp1190
(lp1191
F1.0
aasg16
S' O'
p1192
sba(ibasisset
Shell
p1193
(dp1194
g8
S'P'
p1195
sg10
(lp1196
F0.10249999999999999
asg12
(lp1197
(lp1198
F1.0
aasg16
S' O'
p1199
sba(ibasisset
Shell
p1200
(dp1201
g8
S'D'
p1202
sg10
(lp1203
F8.2530000000000001
asg12
(lp1204
(lp1205
F1.0
aasg16
S' O'
p1206
sba(ibasisset
Shell
p1207
(dp1208
g8
S'D'
p1209
sg10
(lp1210
F3.597
asg12
(lp1211
(lp1212
F1.0
aasg16
S' O'
p1213
sba(ibasisset
Shell
p1214
(dp1215
g8
S'D'
p1216
sg10
(lp1217
F1.5680000000000001
asg12
(lp1218
(lp1219
F1.0
aasg16
S' O'
p1220
sba(ibasisset
Shell
p1221
(dp1222
g8
S'D'
p1223
sg10
(lp1224
F0.68400000000000005
asg12
(lp1225
(lp1226
F1.0
aasg16
S' O'
p1227
sba(ibasisset
Shell
p1228
(dp1229
g8
S'D'
p1230
sg10
(lp1231
F0.29799999999999999
asg12
(lp1232
(lp1233
F1.0
aasg16
S' O'
p1234
sba(ibasisset
Shell
p1235
(dp1236
g8
S'F'
p1237
sg10
(lp1238
F5.4299999999999997
asg12
(lp1239
(lp1240
F1.0
aasg16
S' O'
p1241
sba(ibasisset
Shell
p1242
(dp1243
g8
S'F'
p1244
sg10
(lp1245
F2.4159999999999999
asg12
(lp1246
(lp1247
F1.0
aasg16
S' O'
p1248
sba(ibasisset
Shell
p1249
(dp1250
g8
S'F'
p1251
sg10
(lp1252
F1.075
asg12
(lp1253
(lp1254
F1.0
aasg16
S' O'
p1255
sba(ibasisset
Shell
p1256
(dp1257
g8
S'F'
p1258
sg10
(lp1259
F0.47799999999999998
asg12
(lp1260
(lp1261
F1.0
aasg16
S' O'
p1262
sba(ibasisset
Shell
p1263
(dp1264
g8
S'G'
p1265
sg10
(lp1266
F5.2110000000000003
asg12
(lp1267
(lp1268
F1.0
aasg16
S' O'
p1269
sba(ibasisset
Shell
p1270
(dp1271
g8
S'G'
p1272
sg10
(lp1273
F2.1899999999999999
asg12
(lp1274
(lp1275
F1.0
aasg16
S' O'
p1276
sba(ibasisset
Shell
p1277
(dp1278
g8
S'G'
p1279
sg10
(lp1280
F0.92000000000000004
asg12
(lp1281
(lp1282
F1.0
aasg16
S' O'
p1283
sba(ibasisset
Shell
p1284
(dp1285
g8
S'H'
p1286
sg10
(lp1287
F3.8719999999999999
asg12
(lp1288
(lp1289
F1.0
aasg16
S' O'
p1290
sba(ibasisset
Shell
p1291
(dp1292
g8
S'H'
p1293
sg10
(lp1294
F1.5049999999999999
asg12
(lp1295
(lp1296
F1.0
aasg16
S' O'
p1297
sba(ibasisset
Shell
p1298
(dp1299
g8
S'I'
p1300
sg10
(lp1301
F2.7730000000000001
asg12
(lp1302
(lp1303
F1.0
aasg16
S' O'
p1304
sba(ibasisset
Shell
p1305
(dp1306
g8
S'S'
p1307
sg10
(lp1308
F0.05935
asg12
(lp1309
(lp1310
F1.0
aasg16
S' O'
p1311
sba(ibasisset
Shell
p1312
(dp1313
g8
S'P'
p1314
sg10
(lp1315
F0.033799999999999997
asg12
(lp1316
(lp1317
F1.0
aasg16
S' O'
p1318
sba(ibasisset
Shell
p1319
(dp1320
g8
S'D'
p1321
sg10
(lp1322
F0.115
asg12
(lp1323
(lp1324
F1.0
aasg16
S' O'
p1325
sba(ibasisset
Shell
p1326
(dp1327
g8
S'F'
p1328
sg10
(lp1329
F0.19500000000000001
asg12
(lp1330
(lp1331
F1.0
aasg16
S' O'
p1332
sba(ibasisset
Shell
p1333
(dp1334
g8
S'G'
p1335
sg10
(lp1336
F0.40600000000000003
asg12
(lp1337
(lp1338
F1.0
aasg16
S' O'
p1339
sba(ibasisset
Shell
p1340
(dp1341
g8
S'H'
p1342
sg10
(lp1343
F0.748
asg12
(lp1344
(lp1345
F1.0
aasg16
S' O'
p1346
sba(ibasisset
Shell
p1347
(dp1348
g8
S'I'
p1349
sg10
(lp1350
F1.345
asg12
(lp1351
(lp1352
F1.0
aasg16
S' O'
p1353
sbasS'N'
p1354
(lp1355
(ibasisset
Shell
p1356
(dp1357
g8
S'S'
p1358
sg10
(lp1359
F432300.0
aF64700.0
aF14720.0
aF4170.0
aF1361.0
aF491.19999999999999
aF191.59999999999999
aF79.409999999999997
aF34.530000000000001
aF15.58
aF7.2320000000000002
asg12
(lp1360
(lp1361
F5.5899999999999998e-06
aF4.3510000000000002e-05
aF0.00022892999999999999
aF0.00096502000000000003
aF0.0035021900000000001
aF0.011292119999999999
aF0.032612830000000002
aF0.083297270000000007
aF0.17998565999999999
aF0.30500350999999998
aF0.34115931999999999
aa(lp1362
F-1.2300000000000001e-06
aF-9.5799999999999998e-06
aF-5.0510000000000003e-05
aF-0.00021264
aF-0.00077534000000000001
aF-0.0025062399999999999
aF-0.00736529
aF-0.01930167
aF-0.044717380000000001
aF-0.086066470000000006
aF-0.13329626999999999
aasg16
S' N'
p1363
sba(ibasisset
Shell
p1364
(dp1365
g8
S'S'
p1366
sg10
(lp1367
F3.3820000000000001
asg12
(lp1368
(lp1369
F1.0
aasg16
S' N'
p1370
sba(ibasisset
Shell
p1371
(dp1372
g8
S'S'
p1373
sg10
(lp1374
F1.369
asg12
(lp1375
(lp1376
F1.0
aasg16
S' N'
p1377
sba(ibasisset
Shell
p1378
(dp1379
g8
S'S'
p1380
sg10
(lp1381
F0.62480000000000002
asg12
(lp1382
(lp1383
F1.0
aasg16
S' N'
p1384
sba(ibasisset
Shell
p1385
(dp1386
g8
S'S'
p1387
sg10
(lp1388
F0.2747
asg12
(lp1389
(lp1390
F1.0
aasg16
S' N'
p1391
sba(ibasisset
Shell
p1392
(dp1393
g8
S'S'
p1394
sg10
(lp1395
F0.1192
asg12
(lp1396
(lp1397
F1.0
aasg16
S' N'
p1398
sba(ibasisset
Shell
p1399
(dp1400
g8
S'P'
p1401
sg10
(lp1402
F415.89999999999998
aF98.609999999999999
aF31.920000000000002
aF12.0
aF4.9189999999999996
asg12
(lp1403
(lp1404
F0.00014841
aF0.0012763399999999999
aF0.0067024199999999997
aF0.025261700000000002
aF0.075189430000000002
aasg16
S' N'
p1405
sba(ibasisset
Shell
p1406
(dp1407
g8
S'P'
p1408
sg10
(lp1409
F2.1480000000000001
asg12
(lp1410
(lp1411
F1.0
aasg16
S' N'
p1412
sba(ibasisset
Shell
p1413
(dp1414
g8
S'P'
p1415
sg10
(lp1416
F0.96960000000000002
asg12
(lp1417
(lp1418
F1.0
aasg16
S' N'
p1419
sba(ibasisset
Shell
p1420
(dp1421
g8
S'P'
p1422
sg10
(lp1423
F0.43990000000000001
asg12
(lp1424
(lp1425
F1.0
aasg16
S' N'
p1426
sba(ibasisset
Shell
p1427
(dp1428
g8
S'P'
p1429
sg10
(lp1430
F0.1978
asg12
(lp1431
(lp1432
F1.0
aasg16
S' N'
p1433
sba(ibasisset
Shell
p1434
(dp1435
g8
S'P'
p1436
sg10
(lp1437
F0.086029999999999995
asg12
(lp1438
(lp1439
F1.0
aasg16
S' N'
p1440
sba(ibasisset
Shell
p1441
(dp1442
g8
S'D'
p1443
sg10
(lp1444
F6.7169999999999996
asg12
(lp1445
(lp1446
F1.0
aasg16
S' N'
p1447
sba(ibasisset
Shell
p1448
(dp1449
g8
S'D'
p1450
sg10
(lp1451
F2.8959999999999999
asg12
(lp1452
(lp1453
F1.0
aasg16
S' N'
p1454
sba(ibasisset
Shell
p1455
(dp1456
g8
S'D'
p1457
sg10
(lp1458
F1.2490000000000001
asg12
(lp1459
(lp1460
F1.0
aasg16
S' N'
p1461
sba(ibasisset
Shell
p1462
(dp1463
g8
S'D'
p1464
sg10
(lp1465
F0.53800000000000003
asg12
(lp1466
(lp1467
F1.0
aasg16
S' N'
p1468
sba(ibasisset
Shell
p1469
(dp1470
g8
S'D'
p1471
sg10
(lp1472
F0.23200000000000001
asg12
(lp1473
(lp1474
F1.0
aasg16
S' N'
p1475
sba(ibasisset
Shell
p1476
(dp1477
g8
S'F'
p1478
sg10
(lp1479
F3.8290000000000002
asg12
(lp1480
(lp1481
F1.0
aasg16
S' N'
p1482
sba(ibasisset
Shell
p1483
(dp1484
g8
S'F'
p1485
sg10
(lp1486
F1.7949999999999999
asg12
(lp1487
(lp1488
F1.0
aasg16
S' N'
p1489
sba(ibasisset
Shell
p1490
(dp1491
g8
S'F'
p1492
sg10
(lp1493
F0.84099999999999997
asg12
(lp1494
(lp1495
F1.0
aasg16
S' N'
p1496
sba(ibasisset
Shell
p1497
(dp1498
g8
S'F'
p1499
sg10
(lp1500
F0.39400000000000002
asg12
(lp1501
(lp1502
F1.0
aasg16
S' N'
p1503
sba(ibasisset
Shell
p1504
(dp1505
g8
S'G'
p1506
sg10
(lp1507
F3.8559999999999999
asg12
(lp1508
(lp1509
F1.0
aasg16
S' N'
p1510
sba(ibasisset
Shell
p1511
(dp1512
g8
S'G'
p1513
sg10
(lp1514
F1.702
asg12
(lp1515
(lp1516
F1.0
aasg16
S' N'
p1517
sba(ibasisset
Shell
p1518
(dp1519
g8
S'G'
p1520
sg10
(lp1521
F0.751
asg12
(lp1522
(lp1523
F1.0
aasg16
S' N'
p1524
sba(ibasisset
Shell
p1525
(dp1526
g8
S'H'
p1527
sg10
(lp1528
F2.875
asg12
(lp1529
(lp1530
F1.0
aasg16
S' N'
p1531
sba(ibasisset
Shell
p1532
(dp1533
g8
S'H'
p1534
sg10
(lp1535
F1.1699999999999999
asg12
(lp1536
(lp1537
F1.0
aasg16
S' N'
p1538
sba(ibasisset
Shell
p1539
(dp1540
g8
S'I'
p1541
sg10
(lp1542
F2.0990000000000002
asg12
(lp1543
(lp1544
F1.0
aasg16
S' N'
p1545
sba(ibasisset
Shell
p1546
(dp1547
g8
S'S'
p1548
sg10
(lp1549
F0.047140000000000001
asg12
(lp1550
(lp1551
F1.0
aasg16
S' N'
p1552
sba(ibasisset
Shell
p1553
(dp1554
g8
S'P'
p1555
sg10
(lp1556
F0.0315
asg12
(lp1557
(lp1558
F1.0
aasg16
S' N'
p1559
sba(ibasisset
Shell
p1560
(dp1561
g8
S'D'
p1562
sg10
(lp1563
F0.087400000000000005
asg12
(lp1564
(lp1565
F1.0
aasg16
S' N'
p1566
sba(ibasisset
Shell
p1567
(dp1568
g8
S'F'
p1569
sg10
(lp1570
F0.151
asg12
(lp1571
(lp1572
F1.0
aasg16
S' N'
p1573
sba(ibasisset
Shell
p1574
(dp1575
g8
S'G'
p1576
sg10
(lp1577
F0.32600000000000001
asg12
(lp1578
(lp1579
F1.0
aasg16
S' N'
p1580
sba(ibasisset
Shell
p1581
(dp1582
g8
S'H'
p1583
sg10
(lp1584
F0.58699999999999997
asg12
(lp1585
(lp1586
F1.0
aasg16
S' N'
p1587
sba(ibasisset
Shell
p1588
(dp1589
g8
S'I'
p1590
sg10
(lp1591
F1.0409999999999999
asg12
(lp1592
(lp1593
F1.0
aasg16
S' N'
p1594
sbassb.