(ibasisset
BasisSet
p0
(dp1
S'basisDictionary'
p2
(dp3
S'C'
p4
(iBasisSets
AtomBasis
p5
(dp6
S'basisDictionary'
p7
(dp8
S'D'
p9
(lp10
(iBasisSets
BasisFunction
p11
(dp12
S'coefficientList'
p13
(lp14
F1.0
asS'primitiveList'
p15
(lp16
(iBasisSets
PrimitiveFunction
p17
(dp18
S'exponent'
p19
F4.5419999999999998
sS'angularMomentum'
p20
S'D'
p21
sbasg20
S'D'
p22
sba(iBasisSets
BasisFunction
p23
(dp24
g13
(lp25
F1.0
asg15
(lp26
(iBasisSets
PrimitiveFunction
p27
(dp28
g19
F1.9790000000000001
sg20
S'D'
p29
sbasg20
S'D'
p30
sba(iBasisSets
BasisFunction
p31
(dp32
g13
(lp33
F1.0
asg15
(lp34
(iBasisSets
PrimitiveFunction
p35
(dp36
g19
F0.86209999999999998
sg20
S'D'
p37
sbasg20
S'D'
p38
sba(iBasisSets
BasisFunction
p39
(dp40
g13
(lp41
F1.0
asg15
(lp42
(iBasisSets
PrimitiveFunction
p43
(dp44
g19
F0.37559999999999999
sg20
S'D'
p45
sbasg20
S'D'
p46
sba(iBasisSets
BasisFunction
p47
(dp48
g13
(lp49
F1.0
asg15
(lp50
(iBasisSets
PrimitiveFunction
p51
(dp52
g19
F0.1636
sg20
S'D'
p53
sbasg20
S'D'
p54
sba(iBasisSets
BasisFunction
p55
(dp56
g13
(lp57
F1.0
asg15
(lp58
(iBasisSets
PrimitiveFunction
p59
(dp60
g19
F0.063600000000000004
sg20
S'D'
p61
sbasg20
S'D'
p62
sbasS'G'
p63
(lp64
(iBasisSets
BasisFunction
p65
(dp66
g13
(lp67
F1.0
asg15
(lp68
(iBasisSets
PrimitiveFunction
p69
(dp70
g19
F2.6520000000000001
sg20
S'G'
p71
sbasg20
S'G'
p72
sba(iBasisSets
BasisFunction
p73
(dp74
g13
(lp75
F1.0
asg15
(lp76
(iBasisSets
PrimitiveFunction
p77
(dp78
g19
F1.204
sg20
S'G'
p79
sbasg20
S'G'
p80
sba(iBasisSets
BasisFunction
p81
(dp82
g13
(lp83
F1.0
asg15
(lp84
(iBasisSets
PrimitiveFunction
p85
(dp86
g19
F0.54700000000000004
sg20
S'G'
p87
sbasg20
S'G'
p88
sba(iBasisSets
BasisFunction
p89
(dp90
g13
(lp91
F1.0
asg15
(lp92
(iBasisSets
PrimitiveFunction
p93
(dp94
g19
F0.254
sg20
S'G'
p95
sbasg20
S'G'
p96
sbasS'F'
p97
(lp98
(iBasisSets
BasisFunction
p99
(dp100
g13
(lp101
F1.0
asg15
(lp102
(iBasisSets
PrimitiveFunction
p103
(dp104
g19
F2.6309999999999998
sg20
S'F'
p105
sbasg20
S'F'
p106
sba(iBasisSets
BasisFunction
p107
(dp108
g13
(lp109
F1.0
asg15
(lp110
(iBasisSets
PrimitiveFunction
p111
(dp112
g19
F1.2549999999999999
sg20
S'F'
p113
sbasg20
S'F'
p114
sba(iBasisSets
BasisFunction
p115
(dp116
g13
(lp117
F1.0
asg15
(lp118
(iBasisSets
PrimitiveFunction
p119
(dp120
g19
F0.5988
sg20
S'F'
p121
sbasg20
S'F'
p122
sba(iBasisSets
BasisFunction
p123
(dp124
g13
(lp125
F1.0
asg15
(lp126
(iBasisSets
PrimitiveFunction
p127
(dp128
g19
F0.28570000000000001
sg20
S'F'
p129
sbasg20
S'F'
p130
sba(iBasisSets
BasisFunction
p131
(dp132
g13
(lp133
F1.0
asg15
(lp134
(iBasisSets
PrimitiveFunction
p135
(dp136
g19
F0.11799999999999999
sg20
S'F'
p137
sbasg20
S'F'
p138
sbasS'I'
p139
(lp140
(iBasisSets
BasisFunction
p141
(dp142
g13
(lp143
F1.0
asg15
(lp144
(iBasisSets
PrimitiveFunction
p145
(dp146
g19
F1.4910000000000001
sg20
S'I'
p147
sbasg20
S'I'
p148
sba(iBasisSets
BasisFunction
p149
(dp150
g13
(lp151
F1.0
asg15
(lp152
(iBasisSets
PrimitiveFunction
p153
(dp154
g19
F0.77600000000000002
sg20
S'I'
p155
sbasg20
S'I'
p156
sbasS'H'
p157
(lp158
(iBasisSets
BasisFunction
p159
(dp160
g13
(lp161
F1.0
asg15
(lp162
(iBasisSets
PrimitiveFunction
p163
(dp164
g19
F2.0299999999999998
sg20
S'H'
p165
sbasg20
S'H'
p166
sba(iBasisSets
BasisFunction
p167
(dp168
g13
(lp169
F1.0
asg15
(lp170
(iBasisSets
PrimitiveFunction
p171
(dp172
g19
F0.85109999999999997
sg20
S'H'
p173
sbasg20
S'H'
p174
sba(iBasisSets
BasisFunction
p175
(dp176
g13
(lp177
F1.0
asg15
(lp178
(iBasisSets
PrimitiveFunction
p179
(dp180
g19
F0.45100000000000001
sg20
S'H'
p181
sbasg20
S'H'
p182
sbasS'P'
p183
(lp184
(iBasisSets
BasisFunction
p185
(dp186
g13
(lp187
F1.0
asg15
(lp188
(iBasisSets
PrimitiveFunction
p189
(dp190
g19
F295.19999999999999
sg20
S'P'
p191
sbasg20
S'P'
p192
sba(iBasisSets
BasisFunction
p193
(dp194
g13
(lp195
F1.0
asg15
(lp196
(iBasisSets
PrimitiveFunction
p197
(dp198
g19
F69.980000000000004
sg20
S'P'
p199
sbasg20
S'P'
p200
sba(iBasisSets
BasisFunction
p201
(dp202
g13
(lp203
F1.0
asg15
(lp204
(iBasisSets
PrimitiveFunction
p205
(dp206
g19
F22.640000000000001
sg20
S'P'
p207
sbasg20
S'P'
p208
sba(iBasisSets
BasisFunction
p209
(dp210
g13
(lp211
F1.0
asg15
(lp212
(iBasisSets
PrimitiveFunction
p213
(dp214
g19
F8.4849999999999994
sg20
S'P'
p215
sbasg20
S'P'
p216
sba(iBasisSets
BasisFunction
p217
(dp218
g13
(lp219
F1.0
asg15
(lp220
(iBasisSets
PrimitiveFunction
p221
(dp222
g19
F3.4590000000000001
sg20
S'P'
p223
sbasg20
S'P'
p224
sba(iBasisSets
BasisFunction
p225
(dp226
g13
(lp227
F1.0
asg15
(lp228
(iBasisSets
PrimitiveFunction
p229
(dp230
g19
F1.504
sg20
S'P'
p231
sbasg20
S'P'
p232
sba(iBasisSets
BasisFunction
p233
(dp234
g13
(lp235
F1.0
asg15
(lp236
(iBasisSets
PrimitiveFunction
p237
(dp238
g19
F0.67830000000000001
sg20
S'P'
p239
sbasg20
S'P'
p240
sba(iBasisSets
BasisFunction
p241
(dp242
g13
(lp243
F1.0
asg15
(lp244
(iBasisSets
PrimitiveFunction
p245
(dp246
g19
F0.30869999999999997
sg20
S'P'
p247
sbasg20
S'P'
p248
sba(iBasisSets
BasisFunction
p249
(dp250
g13
(lp251
F1.0
asg15
(lp252
(iBasisSets
PrimitiveFunction
p253
(dp254
g19
F0.14000000000000001
sg20
S'P'
p255
sbasg20
S'P'
p256
sba(iBasisSets
BasisFunction
p257
(dp258
g13
(lp259
F1.0
asg15
(lp260
(iBasisSets
PrimitiveFunction
p261
(dp262
g19
F0.061780000000000002
sg20
S'P'
p263
sbasg20
S'P'
p264
sba(iBasisSets
BasisFunction
p265
(dp266
g13
(lp267
F1.0
asg15
(lp268
(iBasisSets
PrimitiveFunction
p269
(dp270
g19
F0.02376
sg20
S'P'
p271
sbasg20
S'P'
p272
sbasS'S'
p273
(lp274
(iBasisSets
BasisFunction
p275
(dp276
g13
(lp277
F1.0
asg15
(lp278
(iBasisSets
PrimitiveFunction
p279
(dp280
g19
F312100.0
sg20
S'S'
p281
sbasg20
S'S'
p282
sba(iBasisSets
BasisFunction
p283
(dp284
g13
(lp285
F1.0
asg15
(lp286
(iBasisSets
PrimitiveFunction
p287
(dp288
g19
F46740.0
sg20
S'S'
p289
sbasg20
S'S'
p290
sba(iBasisSets
BasisFunction
p291
(dp292
g13
(lp293
F1.0
asg15
(lp294
(iBasisSets
PrimitiveFunction
p295
(dp296
g19
F10640.0
sg20
S'S'
p297
sbasg20
S'S'
p298
sba(iBasisSets
BasisFunction
p299
(dp300
g13
(lp301
F1.0
asg15
(lp302
(iBasisSets
PrimitiveFunction
p303
(dp304
g19
F3013.0
sg20
S'S'
p305
sbasg20
S'S'
p306
sba(iBasisSets
BasisFunction
p307
(dp308
g13
(lp309
F1.0
asg15
(lp310
(iBasisSets
PrimitiveFunction
p311
(dp312
g19
F982.79999999999995
sg20
S'S'
p313
sbasg20
S'S'
p314
sba(iBasisSets
BasisFunction
p315
(dp316
g13
(lp317
F1.0
asg15
(lp318
(iBasisSets
PrimitiveFunction
p319
(dp320
g19
F354.80000000000001
sg20
S'S'
p321
sbasg20
S'S'
p322
sba(iBasisSets
BasisFunction
p323
(dp324
g13
(lp325
F1.0
asg15
(lp326
(iBasisSets
PrimitiveFunction
p327
(dp328
g19
F138.40000000000001
sg20
S'S'
p329
sbasg20
S'S'
p330
sba(iBasisSets
BasisFunction
p331
(dp332
g13
(lp333
F1.0
asg15
(lp334
(iBasisSets
PrimitiveFunction
p335
(dp336
g19
F57.350000000000001
sg20
S'S'
p337
sbasg20
S'S'
p338
sba(iBasisSets
BasisFunction
p339
(dp340
g13
(lp341
F1.0
asg15
(lp342
(iBasisSets
PrimitiveFunction
p343
(dp344
g19
F24.920000000000002
sg20
S'S'
p345
sbasg20
S'S'
p346
sba(iBasisSets
BasisFunction
p347
(dp348
g13
(lp349
F1.0
asg15
(lp350
(iBasisSets
PrimitiveFunction
p351
(dp352
g19
F11.23
sg20
S'S'
p353
sbasg20
S'S'
p354
sba(iBasisSets
BasisFunction
p355
(dp356
g13
(lp357
F1.0
asg15
(lp358
(iBasisSets
PrimitiveFunction
p359
(dp360
g19
F5.2009999999999996
sg20
S'S'
p361
sbasg20
S'S'
p362
sba(iBasisSets
BasisFunction
p363
(dp364
g13
(lp365
F1.0
asg15
(lp366
(iBasisSets
PrimitiveFunction
p367
(dp368
g19
F2.4260000000000002
sg20
S'S'
p369
sbasg20
S'S'
p370
sba(iBasisSets
BasisFunction
p371
(dp372
g13
(lp373
F1.0
asg15
(lp374
(iBasisSets
PrimitiveFunction
p375
(dp376
g19
F0.96730000000000005
sg20
S'S'
p377
sbasg20
S'S'
p378
sba(iBasisSets
BasisFunction
p379
(dp380
g13
(lp381
F1.0
asg15
(lp382
(iBasisSets
PrimitiveFunction
p383
(dp384
g19
F0.4456
sg20
S'S'
p385
sbasg20
S'S'
p386
sba(iBasisSets
BasisFunction
p387
(dp388
g13
(lp389
F1.0
asg15
(lp390
(iBasisSets
PrimitiveFunction
p391
(dp392
g19
F0.1971
sg20
S'S'
p393
sbasg20
S'S'
p394
sba(iBasisSets
BasisFunction
p395
(dp396
g13
(lp397
F1.0
asg15
(lp398
(iBasisSets
PrimitiveFunction
p399
(dp400
g19
F0.086349999999999996
sg20
S'S'
p401
sbasg20
S'S'
p402
sba(iBasisSets
BasisFunction
p403
(dp404
g13
(lp405
F1.0
asg15
(lp406
(iBasisSets
PrimitiveFunction
p407
(dp408
g19
F0.035400000000000001
sg20
S'S'
p409
sbasg20
S'S'
p410
sbassbsS'B'
p411
(iBasisSets
AtomBasis
p412
(dp413
g7
(dp414
g9
(lp415
(iBasisSets
BasisFunction
p416
(dp417
g13
(lp418
F1.0
asg15
(lp419
(iBasisSets
PrimitiveFunction
p420
(dp421
g19
F2.8860000000000001
sg20
S'D'
p422
sbasg20
S'D'
p423
sba(iBasisSets
BasisFunction
p424
(dp425
g13
(lp426
F1.0
asg15
(lp427
(iBasisSets
PrimitiveFunction
p428
(dp429
g19
F1.2669999999999999
sg20
S'D'
p430
sbasg20
S'D'
p431
sba(iBasisSets
BasisFunction
p432
(dp433
g13
(lp434
F1.0
asg15
(lp435
(iBasisSets
PrimitiveFunction
p436
(dp437
g19
F0.55600000000000005
sg20
S'D'
p438
sbasg20
S'D'
p439
sba(iBasisSets
BasisFunction
p440
(dp441
g13
(lp442
F1.0
asg15
(lp443
(iBasisSets
PrimitiveFunction
p444
(dp445
g19
F0.24399999999999999
sg20
S'D'
p446
sbasg20
S'D'
p447
sba(iBasisSets
BasisFunction
p448
(dp449
g13
(lp450
F1.0
asg15
(lp451
(iBasisSets
PrimitiveFunction
p452
(dp453
g19
F0.107
sg20
S'D'
p454
sbasg20
S'D'
p455
sba(iBasisSets
BasisFunction
p456
(dp457
g13
(lp458
F1.0
asg15
(lp459
(iBasisSets
PrimitiveFunction
p460
(dp461
g19
F0.039199999999999999
sg20
S'D'
p462
sbasg20
S'D'
p463
sbasg63
(lp464
(iBasisSets
BasisFunction
p465
(dp466
g13
(lp467
F1.0
asg15
(lp468
(iBasisSets
PrimitiveFunction
p469
(dp470
g19
F1.6469
sg20
S'G'
p471
sbasg20
S'G'
p472
sba(iBasisSets
BasisFunction
p473
(dp474
g13
(lp475
F1.0
asg15
(lp476
(iBasisSets
PrimitiveFunction
p477
(dp478
g19
F0.78890000000000005
sg20
S'G'
p479
sbasg20
S'G'
p480
sba(iBasisSets
BasisFunction
p481
(dp482
g13
(lp483
F1.0
asg15
(lp484
(iBasisSets
PrimitiveFunction
p485
(dp486
g19
F0.37790000000000001
sg20
S'G'
p487
sbasg20
S'G'
p488
sba(iBasisSets
BasisFunction
p489
(dp490
g13
(lp491
F1.0
asg15
(lp492
(iBasisSets
PrimitiveFunction
p493
(dp494
g19
F0.16200000000000001
sg20
S'G'
p495
sbasg20
S'G'
p496
sbasg97
(lp497
(iBasisSets
BasisFunction
p498
(dp499
g13
(lp500
F1.0
asg15
(lp501
(iBasisSets
PrimitiveFunction
p502
(dp503
g19
F1.651
sg20
S'F'
p504
sbasg20
S'F'
p505
sba(iBasisSets
BasisFunction
p506
(dp507
g13
(lp508
F1.0
asg15
(lp509
(iBasisSets
PrimitiveFunction
p510
(dp511
g19
F0.80020000000000002
sg20
S'F'
p512
sbasg20
S'F'
p513
sba(iBasisSets
BasisFunction
p514
(dp515
g13
(lp516
F1.0
asg15
(lp517
(iBasisSets
PrimitiveFunction
p518
(dp519
g19
F0.38779999999999998
sg20
S'F'
p520
sbasg20
S'F'
p521
sba(iBasisSets
BasisFunction
p522
(dp523
g13
(lp524
F1.0
asg15
(lp525
(iBasisSets
PrimitiveFunction
p526
(dp527
g19
F0.188
sg20
S'F'
p528
sbasg20
S'F'
p529
sba(iBasisSets
BasisFunction
p530
(dp531
g13
(lp532
F1.0
asg15
(lp533
(iBasisSets
PrimitiveFunction
p534
(dp535
g19
F0.073300000000000004
sg20
S'F'
p536
sbasg20
S'F'
p537
sbasg139
(lp538
(iBasisSets
BasisFunction
p539
(dp540
g13
(lp541
F1.0
asg15
(lp542
(iBasisSets
PrimitiveFunction
p543
(dp544
g19
F0.98470000000000002
sg20
S'I'
p545
sbasg20
S'I'
p546
sba(iBasisSets
BasisFunction
p547
(dp548
g13
(lp549
F1.0
asg15
(lp550
(iBasisSets
PrimitiveFunction
p551
(dp552
g19
F0.5
sg20
S'I'
p553
sbasg20
S'I'
p554
sbasg157
(lp555
(iBasisSets
BasisFunction
p556
(dp557
g13
(lp558
F1.0
asg15
(lp559
(iBasisSets
PrimitiveFunction
p560
(dp561
g19
F1.3120000000000001
sg20
S'H'
p562
sbasg20
S'H'
p563
sba(iBasisSets
BasisFunction
p564
(dp565
g13
(lp566
F1.0
asg15
(lp567
(iBasisSets
PrimitiveFunction
p568
(dp569
g19
F0.5806
sg20
S'H'
p570
sbasg20
S'H'
p571
sba(iBasisSets
BasisFunction
p572
(dp573
g13
(lp574
F1.0
asg15
(lp575
(iBasisSets
PrimitiveFunction
p576
(dp577
g19
F0.28799999999999998
sg20
S'H'
p578
sbasg20
S'H'
p579
sbasg183
(lp580
(iBasisSets
BasisFunction
p581
(dp582
g13
(lp583
F1.0
asg15
(lp584
(iBasisSets
PrimitiveFunction
p585
(dp586
g19
F192.5
sg20
S'P'
p587
sbasg20
S'P'
p588
sba(iBasisSets
BasisFunction
p589
(dp590
g13
(lp591
F1.0
asg15
(lp592
(iBasisSets
PrimitiveFunction
p593
(dp594
g19
F45.640000000000001
sg20
S'P'
p595
sbasg20
S'P'
p596
sba(iBasisSets
BasisFunction
p597
(dp598
g13
(lp599
F1.0
asg15
(lp600
(iBasisSets
PrimitiveFunction
p601
(dp602
g19
F14.75
sg20
S'P'
p603
sbasg20
S'P'
p604
sba(iBasisSets
BasisFunction
p605
(dp606
g13
(lp607
F1.0
asg15
(lp608
(iBasisSets
PrimitiveFunction
p609
(dp610
g19
F5.5030000000000001
sg20
S'P'
p611
sbasg20
S'P'
p612
sba(iBasisSets
BasisFunction
p613
(dp614
g13
(lp615
F1.0
asg15
(lp616
(iBasisSets
PrimitiveFunction
p617
(dp618
g19
F2.222
sg20
S'P'
p619
sbasg20
S'P'
p620
sba(iBasisSets
BasisFunction
p621
(dp622
g13
(lp623
F1.0
asg15
(lp624
(iBasisSets
PrimitiveFunction
p625
(dp626
g19
F0.95899999999999996
sg20
S'P'
p627
sbasg20
S'P'
p628
sba(iBasisSets
BasisFunction
p629
(dp630
g13
(lp631
F1.0
asg15
(lp632
(iBasisSets
PrimitiveFunction
p633
(dp634
g19
F0.43140000000000001
sg20
S'P'
p635
sbasg20
S'P'
p636
sba(iBasisSets
BasisFunction
p637
(dp638
g13
(lp639
F1.0
asg15
(lp640
(iBasisSets
PrimitiveFunction
p641
(dp642
g19
F0.19689999999999999
sg20
S'P'
p643
sbasg20
S'P'
p644
sba(iBasisSets
BasisFunction
p645
(dp646
g13
(lp647
F1.0
asg15
(lp648
(iBasisSets
PrimitiveFunction
p649
(dp650
g19
F0.090329999999999994
sg20
S'P'
p651
sbasg20
S'P'
p652
sba(iBasisSets
BasisFunction
p653
(dp654
g13
(lp655
F1.0
asg15
(lp656
(iBasisSets
PrimitiveFunction
p657
(dp658
g19
F0.040660000000000002
sg20
S'P'
p659
sbasg20
S'P'
p660
sba(iBasisSets
BasisFunction
p661
(dp662
g13
(lp663
F1.0
asg15
(lp664
(iBasisSets
PrimitiveFunction
p665
(dp666
g19
F0.013650000000000001
sg20
S'P'
p667
sbasg20
S'P'
p668
sbasg273
(lp669
(iBasisSets
BasisFunction
p670
(dp671
g13
(lp672
F1.0
asg15
(lp673
(iBasisSets
PrimitiveFunction
p674
(dp675
g19
F210400.0
sg20
S'S'
p676
sbasg20
S'S'
p677
sba(iBasisSets
BasisFunction
p678
(dp679
g13
(lp680
F1.0
asg15
(lp681
(iBasisSets
PrimitiveFunction
p682
(dp683
g19
F31500.0
sg20
S'S'
p684
sbasg20
S'S'
p685
sba(iBasisSets
BasisFunction
p686
(dp687
g13
(lp688
F1.0
asg15
(lp689
(iBasisSets
PrimitiveFunction
p690
(dp691
g19
F7169.0
sg20
S'S'
p692
sbasg20
S'S'
p693
sba(iBasisSets
BasisFunction
p694
(dp695
g13
(lp696
F1.0
asg15
(lp697
(iBasisSets
PrimitiveFunction
p698
(dp699
g19
F2030.0
sg20
S'S'
p700
sbasg20
S'S'
p701
sba(iBasisSets
BasisFunction
p702
(dp703
g13
(lp704
F1.0
asg15
(lp705
(iBasisSets
PrimitiveFunction
p706
(dp707
g19
F662.5
sg20
S'S'
p708
sbasg20
S'S'
p709
sba(iBasisSets
BasisFunction
p710
(dp711
g13
(lp712
F1.0
asg15
(lp713
(iBasisSets
PrimitiveFunction
p714
(dp715
g19
F239.19999999999999
sg20
S'S'
p716
sbasg20
S'S'
p717
sba(iBasisSets
BasisFunction
p718
(dp719
g13
(lp720
F1.0
asg15
(lp721
(iBasisSets
PrimitiveFunction
p722
(dp723
g19
F93.260000000000005
sg20
S'S'
p724
sbasg20
S'S'
p725
sba(iBasisSets
BasisFunction
p726
(dp727
g13
(lp728
F1.0
asg15
(lp729
(iBasisSets
PrimitiveFunction
p730
(dp731
g19
F38.640000000000001
sg20
S'S'
p732
sbasg20
S'S'
p733
sba(iBasisSets
BasisFunction
p734
(dp735
g13
(lp736
F1.0
asg15
(lp737
(iBasisSets
PrimitiveFunction
p738
(dp739
g19
F16.780000000000001
sg20
S'S'
p740
sbasg20
S'S'
p741
sba(iBasisSets
BasisFunction
p742
(dp743
g13
(lp744
F1.0
asg15
(lp745
(iBasisSets
PrimitiveFunction
p746
(dp747
g19
F7.5410000000000004
sg20
S'S'
p748
sbasg20
S'S'
p749
sba(iBasisSets
BasisFunction
p750
(dp751
g13
(lp752
F1.0
asg15
(lp753
(iBasisSets
PrimitiveFunction
p754
(dp755
g19
F3.4820000000000002
sg20
S'S'
p756
sbasg20
S'S'
p757
sba(iBasisSets
BasisFunction
p758
(dp759
g13
(lp760
F1.0
asg15
(lp761
(iBasisSets
PrimitiveFunction
p762
(dp763
g19
F1.6180000000000001
sg20
S'S'
p764
sbasg20
S'S'
p765
sba(iBasisSets
BasisFunction
p766
(dp767
g13
(lp768
F1.0
asg15
(lp769
(iBasisSets
PrimitiveFunction
p770
(dp771
g19
F0.627
sg20
S'S'
p772
sbasg20
S'S'
p773
sba(iBasisSets
BasisFunction
p774
(dp775
g13
(lp776
F1.0
asg15
(lp777
(iBasisSets
PrimitiveFunction
p778
(dp779
g19
F0.29339999999999999
sg20
S'S'
p780
sbasg20
S'S'
p781
sba(iBasisSets
BasisFunction
p782
(dp783
g13
(lp784
F1.0
asg15
(lp785
(iBasisSets
PrimitiveFunction
p786
(dp787
g19
F0.13100000000000001
sg20
S'S'
p788
sbasg20
S'S'
p789
sba(iBasisSets
BasisFunction
p790
(dp791
g13
(lp792
F1.0
asg15
(lp793
(iBasisSets
PrimitiveFunction
p794
(dp795
g19
F0.05815
sg20
S'S'
p796
sbasg20
S'S'
p797
sba(iBasisSets
BasisFunction
p798
(dp799
g13
(lp800
F1.0
asg15
(lp801
(iBasisSets
PrimitiveFunction
p802
(dp803
g19
F0.023
sg20
S'S'
p804
sbasg20
S'S'
p805
sbassbsg97
(iBasisSets
AtomBasis
p806
(dp807
g7
(dp808
g9
(lp809
(iBasisSets
BasisFunction
p810
(dp811
g13
(lp812
F1.0
asg15
(lp813
(iBasisSets
PrimitiveFunction
p814
(dp815
g19
F10.573
sg20
S'D'
p816
sbasg20
S'D'
p817
sba(iBasisSets
BasisFunction
p818
(dp819
g13
(lp820
F1.0
asg15
(lp821
(iBasisSets
PrimitiveFunction
p822
(dp823
g19
F4.6130000000000004
sg20
S'D'
p824
sbasg20
S'D'
p825
sba(iBasisSets
BasisFunction
p826
(dp827
g13
(lp828
F1.0
asg15
(lp829
(iBasisSets
PrimitiveFunction
p830
(dp831
g19
F2.0129999999999999
sg20
S'D'
p832
sbasg20
S'D'
p833
sba(iBasisSets
BasisFunction
p834
(dp835
g13
(lp836
F1.0
asg15
(lp837
(iBasisSets
PrimitiveFunction
p838
(dp839
g19
F0.878
sg20
S'D'
p840
sbasg20
S'D'
p841
sba(iBasisSets
BasisFunction
p842
(dp843
g13
(lp844
F1.0
asg15
(lp845
(iBasisSets
PrimitiveFunction
p846
(dp847
g19
F0.38300000000000001
sg20
S'D'
p848
sbasg20
S'D'
p849
sba(iBasisSets
BasisFunction
p850
(dp851
g13
(lp852
F1.0
asg15
(lp853
(iBasisSets
PrimitiveFunction
p854
(dp855
g19
F0.151
sg20
S'D'
p856
sbasg20
S'D'
p857
sbasg63
(lp858
(iBasisSets
BasisFunction
p859
(dp860
g13
(lp861
F1.0
asg15
(lp862
(iBasisSets
PrimitiveFunction
p863
(dp864
g19
F6.7350000000000003
sg20
S'G'
p865
sbasg20
S'G'
p866
sba(iBasisSets
BasisFunction
p867
(dp868
g13
(lp869
F1.0
asg15
(lp870
(iBasisSets
PrimitiveFunction
p871
(dp872
g19
F2.7829999999999999
sg20
S'G'
p873
sbasg20
S'G'
p874
sba(iBasisSets
BasisFunction
p875
(dp876
g13
(lp877
F1.0
asg15
(lp878
(iBasisSets
PrimitiveFunction
p879
(dp880
g19
F1.1499999999999999
sg20
S'G'
p881
sbasg20
S'G'
p882
sba(iBasisSets
BasisFunction
p883
(dp884
g13
(lp885
F1.0
asg15
(lp886
(iBasisSets
PrimitiveFunction
p887
(dp888
g19
F0.52000000000000002
sg20
S'G'
p889
sbasg20
S'G'
p890
sbasg97
(lp891
(iBasisSets
BasisFunction
p892
(dp893
g13
(lp894
F1.0
asg15
(lp895
(iBasisSets
PrimitiveFunction
p896
(dp897
g19
F7.5629999999999997
sg20
S'F'
p898
sbasg20
S'F'
p899
sba(iBasisSets
BasisFunction
p900
(dp901
g13
(lp902
F1.0
asg15
(lp903
(iBasisSets
PrimitiveFunction
p904
(dp905
g19
F3.3300000000000001
sg20
S'F'
p906
sbasg20
S'F'
p907
sba(iBasisSets
BasisFunction
p908
(dp909
g13
(lp910
F1.0
asg15
(lp911
(iBasisSets
PrimitiveFunction
p912
(dp913
g19
F1.466
sg20
S'F'
p914
sbasg20
S'F'
p915
sba(iBasisSets
BasisFunction
p916
(dp917
g13
(lp918
F1.0
asg15
(lp919
(iBasisSets
PrimitiveFunction
p920
(dp921
g19
F0.64500000000000002
sg20
S'F'
p922
sbasg20
S'F'
p923
sba(iBasisSets
BasisFunction
p924
(dp925
g13
(lp926
F1.0
asg15
(lp927
(iBasisSets
PrimitiveFunction
p928
(dp929
g19
F0.27200000000000002
sg20
S'F'
p930
sbasg20
S'F'
p931
sbasg139
(lp932
(iBasisSets
BasisFunction
p933
(dp934
g13
(lp935
F1.0
asg15
(lp936
(iBasisSets
PrimitiveFunction
p937
(dp938
g19
F3.581
sg20
S'I'
p939
sbasg20
S'I'
p940
sba(iBasisSets
BasisFunction
p941
(dp942
g13
(lp943
F1.0
asg15
(lp944
(iBasisSets
PrimitiveFunction
p945
(dp946
g19
F1.7390000000000001
sg20
S'I'
p947
sbasg20
S'I'
p948
sbasg157
(lp949
(iBasisSets
BasisFunction
p950
(dp951
g13
(lp952
F1.0
asg15
(lp953
(iBasisSets
PrimitiveFunction
p954
(dp955
g19
F5.0880000000000001
sg20
S'H'
p956
sbasg20
S'H'
p957
sba(iBasisSets
BasisFunction
p958
(dp959
g13
(lp960
F1.0
asg15
(lp961
(iBasisSets
PrimitiveFunction
p962
(dp963
g19
F1.9370000000000001
sg20
S'H'
p964
sbasg20
S'H'
p965
sba(iBasisSets
BasisFunction
p966
(dp967
g13
(lp968
F1.0
asg15
(lp969
(iBasisSets
PrimitiveFunction
p970
(dp971
g19
F0.98499999999999999
sg20
S'H'
p972
sbasg20
S'H'
p973
sbasg183
(lp974
(iBasisSets
BasisFunction
p975
(dp976
g13
(lp977
F1.0
asg15
(lp978
(iBasisSets
PrimitiveFunction
p979
(dp980
g19
F660.0
sg20
S'P'
p981
sbasg20
S'P'
p982
sba(iBasisSets
BasisFunction
p983
(dp984
g13
(lp985
F1.0
asg15
(lp986
(iBasisSets
PrimitiveFunction
p987
(dp988
g19
F156.40000000000001
sg20
S'P'
p989
sbasg20
S'P'
p990
sba(iBasisSets
BasisFunction
p991
(dp992
g13
(lp993
F1.0
asg15
(lp994
(iBasisSets
PrimitiveFunction
p995
(dp996
g19
F50.640000000000001
sg20
S'P'
p997
sbasg20
S'P'
p998
sba(iBasisSets
BasisFunction
p999
(dp1000
g13
(lp1001
F1.0
asg15
(lp1002
(iBasisSets
PrimitiveFunction
p1003
(dp1004
g19
F19.079999999999998
sg20
S'P'
p1005
sbasg20
S'P'
p1006
sba(iBasisSets
BasisFunction
p1007
(dp1008
g13
(lp1009
F1.0
asg15
(lp1010
(iBasisSets
PrimitiveFunction
p1011
(dp1012
g19
F7.8719999999999999
sg20
S'P'
p1013
sbasg20
S'P'
p1014
sba(iBasisSets
BasisFunction
p1015
(dp1016
g13
(lp1017
F1.0
asg15
(lp1018
(iBasisSets
PrimitiveFunction
p1019
(dp1020
g19
F3.4489999999999998
sg20
S'P'
p1021
sbasg20
S'P'
p1022
sba(iBasisSets
BasisFunction
p1023
(dp1024
g13
(lp1025
F1.0
asg15
(lp1026
(iBasisSets
PrimitiveFunction
p1027
(dp1028
g19
F1.5449999999999999
sg20
S'P'
p1029
sbasg20
S'P'
p1030
sba(iBasisSets
BasisFunction
p1031
(dp1032
g13
(lp1033
F1.0
asg15
(lp1034
(iBasisSets
PrimitiveFunction
p1035
(dp1036
g19
F0.68640000000000001
sg20
S'P'
p1037
sbasg20
S'P'
p1038
sba(iBasisSets
BasisFunction
p1039
(dp1040
g13
(lp1041
F1.0
asg15
(lp1042
(iBasisSets
PrimitiveFunction
p1043
(dp1044
g19
F0.29859999999999998
sg20
S'P'
p1045
sbasg20
S'P'
p1046
sba(iBasisSets
BasisFunction
p1047
(dp1048
g13
(lp1049
F1.0
asg15
(lp1050
(iBasisSets
PrimitiveFunction
p1051
(dp1052
g19
F0.1245
sg20
S'P'
p1053
sbasg20
S'P'
p1054
sba(iBasisSets
BasisFunction
p1055
(dp1056
g13
(lp1057
F1.0
asg15
(lp1058
(iBasisSets
PrimitiveFunction
p1059
(dp1060
g19
F0.047600000000000003
sg20
S'P'
p1061
sbasg20
S'P'
p1062
sbasg273
(lp1063
(iBasisSets
BasisFunction
p1064
(dp1065
g13
(lp1066
F1.0
asg15
(lp1067
(iBasisSets
PrimitiveFunction
p1068
(dp1069
g19
F723500.0
sg20
S'S'
p1070
sbasg20
S'S'
p1071
sba(iBasisSets
BasisFunction
p1072
(dp1073
g13
(lp1074
F1.0
asg15
(lp1075
(iBasisSets
PrimitiveFunction
p1076
(dp1077
g19
F108400.0
sg20
S'S'
p1078
sbasg20
S'S'
p1079
sba(iBasisSets
BasisFunction
p1080
(dp1081
g13
(lp1082
F1.0
asg15
(lp1083
(iBasisSets
PrimitiveFunction
p1084
(dp1085
g19
F24680.0
sg20
S'S'
p1086
sbasg20
S'S'
p1087
sba(iBasisSets
BasisFunction
p1088
(dp1089
g13
(lp1090
F1.0
asg15
(lp1091
(iBasisSets
PrimitiveFunction
p1092
(dp1093
g19
F6990.0
sg20
S'S'
p1094
sbasg20
S'S'
p1095
sba(iBasisSets
BasisFunction
p1096
(dp1097
g13
(lp1098
F1.0
asg15
(lp1099
(iBasisSets
PrimitiveFunction
p1100
(dp1101
g19
F2282.0
sg20
S'S'
p1102
sbasg20
S'S'
p1103
sba(iBasisSets
BasisFunction
p1104
(dp1105
g13
(lp1106
F1.0
asg15
(lp1107
(iBasisSets
PrimitiveFunction
p1108
(dp1109
g19
F824.60000000000002
sg20
S'S'
p1110
sbasg20
S'S'
p1111
sba(iBasisSets
BasisFunction
p1112
(dp1113
g13
(lp1114
F1.0
asg15
(lp1115
(iBasisSets
PrimitiveFunction
p1116
(dp1117
g19
F321.80000000000001
sg20
S'S'
p1118
sbasg20
S'S'
p1119
sba(iBasisSets
BasisFunction
p1120
(dp1121
g13
(lp1122
F1.0
asg15
(lp1123
(iBasisSets
PrimitiveFunction
p1124
(dp1125
g19
F133.5
sg20
S'S'
p1126
sbasg20
S'S'
p1127
sba(iBasisSets
BasisFunction
p1128
(dp1129
g13
(lp1130
F1.0
asg15
(lp1131
(iBasisSets
PrimitiveFunction
p1132
(dp1133
g19
F58.109999999999999
sg20
S'S'
p1134
sbasg20
S'S'
p1135
sba(iBasisSets
BasisFunction
p1136
(dp1137
g13
(lp1138
F1.0
asg15
(lp1139
(iBasisSets
PrimitiveFunction
p1140
(dp1141
g19
F26.280000000000001
sg20
S'S'
p1142
sbasg20
S'S'
p1143
sba(iBasisSets
BasisFunction
p1144
(dp1145
g13
(lp1146
F1.0
asg15
(lp1147
(iBasisSets
PrimitiveFunction
p1148
(dp1149
g19
F12.24
sg20
S'S'
p1150
sbasg20
S'S'
p1151
sba(iBasisSets
BasisFunction
p1152
(dp1153
g13
(lp1154
F1.0
asg15
(lp1155
(iBasisSets
PrimitiveFunction
p1156
(dp1157
g19
F5.7469999999999999
sg20
S'S'
p1158
sbasg20
S'S'
p1159
sba(iBasisSets
BasisFunction
p1160
(dp1161
g13
(lp1162
F1.0
asg15
(lp1163
(iBasisSets
PrimitiveFunction
p1164
(dp1165
g19
F2.3650000000000002
sg20
S'S'
p1166
sbasg20
S'S'
p1167
sba(iBasisSets
BasisFunction
p1168
(dp1169
g13
(lp1170
F1.0
asg15
(lp1171
(iBasisSets
PrimitiveFunction
p1172
(dp1173
g19
F1.071
sg20
S'S'
p1174
sbasg20
S'S'
p1175
sba(iBasisSets
BasisFunction
p1176
(dp1177
g13
(lp1178
F1.0
asg15
(lp1179
(iBasisSets
PrimitiveFunction
p1180
(dp1181
g19
F0.46810000000000002
sg20
S'S'
p1182
sbasg20
S'S'
p1183
sba(iBasisSets
BasisFunction
p1184
(dp1185
g13
(lp1186
F1.0
asg15
(lp1187
(iBasisSets
PrimitiveFunction
p1188
(dp1189
g19
F0.19939999999999999
sg20
S'S'
p1190
sbasg20
S'S'
p1191
sba(iBasisSets
BasisFunction
p1192
(dp1193
g13
(lp1194
F1.0
asg15
(lp1195
(iBasisSets
PrimitiveFunction
p1196
(dp1197
g19
F0.073150000000000007
sg20
S'S'
p1198
sbasg20
S'S'
p1199
sbassbsg157
(iBasisSets
AtomBasis
p1200
(dp1201
g7
(dp1202
g9
(lp1203
(iBasisSets
BasisFunction
p1204
(dp1205
g13
(lp1206
F1.0
asg15
(lp1207
(iBasisSets
PrimitiveFunction
p1208
(dp1209
g19
F4.4530000000000003
sg20
S'D'
p1210
sbasg20
S'D'
p1211
sba(iBasisSets
BasisFunction
p1212
(dp1213
g13
(lp1214
F1.0
asg15
(lp1215
(iBasisSets
PrimitiveFunction
p1216
(dp1217
g19
F1.958
sg20
S'D'
p1218
sbasg20
S'D'
p1219
sba(iBasisSets
BasisFunction
p1220
(dp1221
g13
(lp1222
F1.0
asg15
(lp1223
(iBasisSets
PrimitiveFunction
p1224
(dp1225
g19
F0.86099999999999999
sg20
S'D'
p1226
sbasg20
S'D'
p1227
sba(iBasisSets
BasisFunction
p1228
(dp1229
g13
(lp1230
F1.0
asg15
(lp1231
(iBasisSets
PrimitiveFunction
p1232
(dp1233
g19
F0.378
sg20
S'D'
p1234
sbasg20
S'D'
p1235
sba(iBasisSets
BasisFunction
p1236
(dp1237
g13
(lp1238
F1.0
asg15
(lp1239
(iBasisSets
PrimitiveFunction
p1240
(dp1241
g19
F0.126
sg20
S'D'
p1242
sbasg20
S'D'
p1243
sbasg63
(lp1244
(iBasisSets
BasisFunction
p1245
(dp1246
g13
(lp1247
F1.0
asg15
(lp1248
(iBasisSets
PrimitiveFunction
p1249
(dp1250
g19
F3.1989999999999998
sg20
S'G'
p1251
sbasg20
S'G'
p1252
sba(iBasisSets
BasisFunction
p1253
(dp1254
g13
(lp1255
F1.0
asg15
(lp1256
(iBasisSets
PrimitiveFunction
p1257
(dp1258
g19
F1.3260000000000001
sg20
S'G'
p1259
sbasg20
S'G'
p1260
sba(iBasisSets
BasisFunction
p1261
(dp1262
g13
(lp1263
F1.0
asg15
(lp1264
(iBasisSets
PrimitiveFunction
p1265
(dp1266
g19
F0.40699999999999997
sg20
S'G'
p1267
sbasg20
S'G'
p1268
sbasg97
(lp1269
(iBasisSets
BasisFunction
p1270
(dp1271
g13
(lp1272
F1.0
asg15
(lp1273
(iBasisSets
PrimitiveFunction
p1274
(dp1275
g19
F4.0999999999999996
sg20
S'F'
p1276
sbasg20
S'F'
p1277
sba(iBasisSets
BasisFunction
p1278
(dp1279
g13
(lp1280
F1.0
asg15
(lp1281
(iBasisSets
PrimitiveFunction
p1282
(dp1283
g19
F1.78
sg20
S'F'
p1284
sbasg20
S'F'
p1285
sba(iBasisSets
BasisFunction
p1286
(dp1287
g13
(lp1288
F1.0
asg15
(lp1289
(iBasisSets
PrimitiveFunction
p1290
(dp1291
g19
F0.77300000000000002
sg20
S'F'
p1292
sbasg20
S'F'
p1293
sba(iBasisSets
BasisFunction
p1294
(dp1295
g13
(lp1296
F1.0
asg15
(lp1297
(iBasisSets
PrimitiveFunction
p1298
(dp1299
g19
F0.245
sg20
S'F'
p1300
sbasg20
S'F'
p1301
sbasg157
(lp1302
(iBasisSets
BasisFunction
p1303
(dp1304
g13
(lp1305
F1.0
asg15
(lp1306
(iBasisSets
PrimitiveFunction
p1307
(dp1308
g19
F2.653
sg20
S'H'
p1309
sbasg20
S'H'
p1310
sba(iBasisSets
BasisFunction
p1311
(dp1312
g13
(lp1313
F1.0
asg15
(lp1314
(iBasisSets
PrimitiveFunction
p1315
(dp1316
g19
F0.68200000000000005
sg20
S'H'
p1317
sbasg20
S'H'
p1318
sbasg183
(lp1319
(iBasisSets
BasisFunction
p1320
(dp1321
g13
(lp1322
F1.0
asg15
(lp1323
(iBasisSets
PrimitiveFunction
p1324
(dp1325
g19
F8.6489999999999991
sg20
S'P'
p1326
sbasg20
S'P'
p1327
sba(iBasisSets
BasisFunction
p1328
(dp1329
g13
(lp1330
F1.0
asg15
(lp1331
(iBasisSets
PrimitiveFunction
p1332
(dp1333
g19
F3.4300000000000002
sg20
S'P'
p1334
sbasg20
S'P'
p1335
sba(iBasisSets
BasisFunction
p1336
(dp1337
g13
(lp1338
F1.0
asg15
(lp1339
(iBasisSets
PrimitiveFunction
p1340
(dp1341
g19
F1.3600000000000001
sg20
S'P'
p1342
sbasg20
S'P'
p1343
sba(iBasisSets
BasisFunction
p1344
(dp1345
g13
(lp1346
F1.0
asg15
(lp1347
(iBasisSets
PrimitiveFunction
p1348
(dp1349
g19
F0.53900000000000003
sg20
S'P'
p1350
sbasg20
S'P'
p1351
sba(iBasisSets
BasisFunction
p1352
(dp1353
g13
(lp1354
F1.0
asg15
(lp1355
(iBasisSets
PrimitiveFunction
p1356
(dp1357
g19
F0.214
sg20
S'P'
p1358
sbasg20
S'P'
p1359
sba(iBasisSets
BasisFunction
p1360
(dp1361
g13
(lp1362
F1.0
asg15
(lp1363
(iBasisSets
PrimitiveFunction
p1364
(dp1365
g19
F0.067000000000000004
sg20
S'P'
p1366
sbasg20
S'P'
p1367
sbasg273
(lp1368
(iBasisSets
BasisFunction
p1369
(dp1370
g13
(lp1371
F1.0
asg15
(lp1372
(iBasisSets
PrimitiveFunction
p1373
(dp1374
g19
F1776.77556
sg20
S'S'
p1375
sbasg20
S'S'
p1376
sba(iBasisSets
BasisFunction
p1377
(dp1378
g13
(lp1379
F1.0
asg15
(lp1380
(iBasisSets
PrimitiveFunction
p1381
(dp1382
g19
F254.01771199999999
sg20
S'S'
p1383
sbasg20
S'S'
p1384
sba(iBasisSets
BasisFunction
p1385
(dp1386
g13
(lp1387
F1.0
asg15
(lp1388
(iBasisSets
PrimitiveFunction
p1389
(dp1390
g19
F54.698039000000001
sg20
S'S'
p1391
sbasg20
S'S'
p1392
sba(iBasisSets
BasisFunction
p1393
(dp1394
g13
(lp1395
F1.0
asg15
(lp1396
(iBasisSets
PrimitiveFunction
p1397
(dp1398
g19
F15.018344000000001
sg20
S'S'
p1399
sbasg20
S'S'
p1400
sba(iBasisSets
BasisFunction
p1401
(dp1402
g13
(lp1403
F1.0
asg15
(lp1404
(iBasisSets
PrimitiveFunction
p1405
(dp1406
g19
F4.9150780000000003
sg20
S'S'
p1407
sbasg20
S'S'
p1408
sba(iBasisSets
BasisFunction
p1409
(dp1410
g13
(lp1411
F1.0
asg15
(lp1412
(iBasisSets
PrimitiveFunction
p1413
(dp1414
g19
F1.794924
sg20
S'S'
p1415
sbasg20
S'S'
p1416
sba(iBasisSets
BasisFunction
p1417
(dp1418
g13
(lp1419
F1.0
asg15
(lp1420
(iBasisSets
PrimitiveFunction
p1421
(dp1422
g19
F0.71071600000000001
sg20
S'S'
p1423
sbasg20
S'S'
p1424
sba(iBasisSets
BasisFunction
p1425
(dp1426
g13
(lp1427
F1.0
asg15
(lp1428
(iBasisSets
PrimitiveFunction
p1429
(dp1430
g19
F0.30480200000000002
sg20
S'S'
p1431
sbasg20
S'S'
p1432
sba(iBasisSets
BasisFunction
p1433
(dp1434
g13
(lp1435
F1.0
asg15
(lp1436
(iBasisSets
PrimitiveFunction
p1437
(dp1438
g19
F0.138046
sg20
S'S'
p1439
sbasg20
S'S'
p1440
sba(iBasisSets
BasisFunction
p1441
(dp1442
g13
(lp1443
F1.0
asg15
(lp1444
(iBasisSets
PrimitiveFunction
p1445
(dp1446
g19
F0.062156999999999997
sg20
S'S'
p1447
sbasg20
S'S'
p1448
sba(iBasisSets
BasisFunction
p1449
(dp1450
g13
(lp1451
F1.0
asg15
(lp1452
(iBasisSets
PrimitiveFunction
p1453
(dp1454
g19
F0.0189
sg20
S'S'
p1455
sbasg20
S'S'
p1456
sbassbsS'NE'
p1457
(iBasisSets
AtomBasis
p1458
(dp1459
g7
(dp1460
g9
(lp1461
(iBasisSets
BasisFunction
p1462
(dp1463
g13
(lp1464
F1.0
asg15
(lp1465
(iBasisSets
PrimitiveFunction
p1466
(dp1467
g19
F13.317
sg20
S'D'
p1468
sbasg20
S'D'
p1469
sba(iBasisSets
BasisFunction
p1470
(dp1471
g13
(lp1472
F1.0
asg15
(lp1473
(iBasisSets
PrimitiveFunction
p1474
(dp1475
g19
F5.8029999999999999
sg20
S'D'
p1476
sbasg20
S'D'
p1477
sba(iBasisSets
BasisFunction
p1478
(dp1479
g13
(lp1480
F1.0
asg15
(lp1481
(iBasisSets
PrimitiveFunction
p1482
(dp1483
g19
F2.5289999999999999
sg20
S'D'
p1484
sbasg20
S'D'
p1485
sba(iBasisSets
BasisFunction
p1486
(dp1487
g13
(lp1488
F1.0
asg15
(lp1489
(iBasisSets
PrimitiveFunction
p1490
(dp1491
g19
F1.1020000000000001
sg20
S'D'
p1492
sbasg20
S'D'
p1493
sba(iBasisSets
BasisFunction
p1494
(dp1495
g13
(lp1496
F1.0
asg15
(lp1497
(iBasisSets
PrimitiveFunction
p1498
(dp1499
g19
F0.47999999999999998
sg20
S'D'
p1500
sbasg20
S'D'
p1501
sba(iBasisSets
BasisFunction
p1502
(dp1503
g13
(lp1504
F1.0
asg15
(lp1505
(iBasisSets
PrimitiveFunction
p1506
(dp1507
g19
F0.187
sg20
S'D'
p1508
sbasg20
S'D'
p1509
sbasg63
(lp1510
(iBasisSets
BasisFunction
p1511
(dp1512
g13
(lp1513
F1.0
asg15
(lp1514
(iBasisSets
PrimitiveFunction
p1515
(dp1516
g19
F8.3450000000000006
sg20
S'G'
p1517
sbasg20
S'G'
p1518
sba(iBasisSets
BasisFunction
p1519
(dp1520
g13
(lp1521
F1.0
asg15
(lp1522
(iBasisSets
PrimitiveFunction
p1523
(dp1524
g19
F3.4169999999999998
sg20
S'G'
p1525
sbasg20
S'G'
p1526
sba(iBasisSets
BasisFunction
p1527
(dp1528
g13
(lp1529
F1.0
asg15
(lp1530
(iBasisSets
PrimitiveFunction
p1531
(dp1532
g19
F1.399
sg20
S'G'
p1533
sbasg20
S'G'
p1534
sba(iBasisSets
BasisFunction
p1535
(dp1536
g13
(lp1537
F1.0
asg15
(lp1538
(iBasisSets
PrimitiveFunction
p1539
(dp1540
g19
F0.63449999999999995
sg20
S'G'
p1541
sbasg20
S'G'
p1542
sbasg97
(lp1543
(iBasisSets
BasisFunction
p1544
(dp1545
g13
(lp1546
F1.0
asg15
(lp1547
(iBasisSets
PrimitiveFunction
p1548
(dp1549
g19
F10.356
sg20
S'F'
p1550
sbasg20
S'F'
p1551
sba(iBasisSets
BasisFunction
p1552
(dp1553
g13
(lp1554
F1.0
asg15
(lp1555
(iBasisSets
PrimitiveFunction
p1556
(dp1557
g19
F4.5380000000000003
sg20
S'F'
p1558
sbasg20
S'F'
p1559
sba(iBasisSets
BasisFunction
p1560
(dp1561
g13
(lp1562
F1.0
asg15
(lp1563
(iBasisSets
PrimitiveFunction
p1564
(dp1565
g19
F1.9890000000000001
sg20
S'F'
p1566
sbasg20
S'F'
p1567
sba(iBasisSets
BasisFunction
p1568
(dp1569
g13
(lp1570
F1.0
asg15
(lp1571
(iBasisSets
PrimitiveFunction
p1572
(dp1573
g19
F0.871
sg20
S'F'
p1574
sbasg20
S'F'
p1575
sba(iBasisSets
BasisFunction
p1576
(dp1577
g13
(lp1578
F1.0
asg15
(lp1579
(iBasisSets
PrimitiveFunction
p1580
(dp1581
g19
F0.34920000000000001
sg20
S'F'
p1582
sbasg20
S'F'
p1583
sbasg139
(lp1584
(iBasisSets
BasisFunction
p1585
(dp1586
g13
(lp1587
F1.0
asg15
(lp1588
(iBasisSets
PrimitiveFunction
p1589
(dp1590
g19
F4.4889999999999999
sg20
S'I'
p1591
sbasg20
S'I'
p1592
sba(iBasisSets
BasisFunction
p1593
(dp1594
g13
(lp1595
F1.0
asg15
(lp1596
(iBasisSets
PrimitiveFunction
p1597
(dp1598
g19
F2.1215000000000002
sg20
S'I'
p1599
sbasg20
S'I'
p1600
sbasg157
(lp1601
(iBasisSets
BasisFunction
p1602
(dp1603
g13
(lp1604
F1.0
asg15
(lp1605
(iBasisSets
PrimitiveFunction
p1606
(dp1607
g19
F6.5190000000000001
sg20
S'H'
p1608
sbasg20
S'H'
p1609
sba(iBasisSets
BasisFunction
p1610
(dp1611
g13
(lp1612
F1.0
asg15
(lp1613
(iBasisSets
PrimitiveFunction
p1614
(dp1615
g19
F2.4470000000000001
sg20
S'H'
p1616
sbasg20
S'H'
p1617
sba(iBasisSets
BasisFunction
p1618
(dp1619
g13
(lp1620
F1.0
asg15
(lp1621
(iBasisSets
PrimitiveFunction
p1622
(dp1623
g19
F1.2093
sg20
S'H'
p1624
sbasg20
S'H'
p1625
sbasg183
(lp1626
(iBasisSets
BasisFunction
p1627
(dp1628
g13
(lp1629
F1.0
asg15
(lp1630
(iBasisSets
PrimitiveFunction
p1631
(dp1632
g19
F815.60000000000002
sg20
S'P'
p1633
sbasg20
S'P'
p1634
sba(iBasisSets
BasisFunction
p1635
(dp1636
g13
(lp1637
F1.0
asg15
(lp1638
(iBasisSets
PrimitiveFunction
p1639
(dp1640
g19
F193.30000000000001
sg20
S'P'
p1641
sbasg20
S'P'
p1642
sba(iBasisSets
BasisFunction
p1643
(dp1644
g13
(lp1645
F1.0
asg15
(lp1646
(iBasisSets
PrimitiveFunction
p1647
(dp1648
g19
F62.600000000000001
sg20
S'P'
p1649
sbasg20
S'P'
p1650
sba(iBasisSets
BasisFunction
p1651
(dp1652
g13
(lp1653
F1.0
asg15
(lp1654
(iBasisSets
PrimitiveFunction
p1655
(dp1656
g19
F23.609999999999999
sg20
S'P'
p1657
sbasg20
S'P'
p1658
sba(iBasisSets
BasisFunction
p1659
(dp1660
g13
(lp1661
F1.0
asg15
(lp1662
(iBasisSets
PrimitiveFunction
p1663
(dp1664
g19
F9.7620000000000005
sg20
S'P'
p1665
sbasg20
S'P'
p1666
sba(iBasisSets
BasisFunction
p1667
(dp1668
g13
(lp1669
F1.0
asg15
(lp1670
(iBasisSets
PrimitiveFunction
p1671
(dp1672
g19
F4.2809999999999997
sg20
S'P'
p1673
sbasg20
S'P'
p1674
sba(iBasisSets
BasisFunction
p1675
(dp1676
g13
(lp1677
F1.0
asg15
(lp1678
(iBasisSets
PrimitiveFunction
p1679
(dp1680
g19
F1.915
sg20
S'P'
p1681
sbasg20
S'P'
p1682
sba(iBasisSets
BasisFunction
p1683
(dp1684
g13
(lp1685
F1.0
asg15
(lp1686
(iBasisSets
PrimitiveFunction
p1687
(dp1688
g19
F0.84760000000000002
sg20
S'P'
p1689
sbasg20
S'P'
p1690
sba(iBasisSets
BasisFunction
p1691
(dp1692
g13
(lp1693
F1.0
asg15
(lp1694
(iBasisSets
PrimitiveFunction
p1695
(dp1696
g19
F0.36599999999999999
sg20
S'P'
p1697
sbasg20
S'P'
p1698
sba(iBasisSets
BasisFunction
p1699
(dp1700
g13
(lp1701
F1.0
asg15
(lp1702
(iBasisSets
PrimitiveFunction
p1703
(dp1704
g19
F0.151
sg20
S'P'
p1705
sbasg20
S'P'
p1706
sba(iBasisSets
BasisFunction
p1707
(dp1708
g13
(lp1709
F1.0
asg15
(lp1710
(iBasisSets
PrimitiveFunction
p1711
(dp1712
g19
F0.056599999999999998
sg20
S'P'
p1713
sbasg20
S'P'
p1714
sbasg273
(lp1715
(iBasisSets
BasisFunction
p1716
(dp1717
g13
(lp1718
F1.0
asg15
(lp1719
(iBasisSets
PrimitiveFunction
p1720
(dp1721
g19
F902400.0
sg20
S'S'
p1722
sbasg20
S'S'
p1723
sba(iBasisSets
BasisFunction
p1724
(dp1725
g13
(lp1726
F1.0
asg15
(lp1727
(iBasisSets
PrimitiveFunction
p1728
(dp1729
g19
F135100.0
sg20
S'S'
p1730
sbasg20
S'S'
p1731
sba(iBasisSets
BasisFunction
p1732
(dp1733
g13
(lp1734
F1.0
asg15
(lp1735
(iBasisSets
PrimitiveFunction
p1736
(dp1737
g19
F30750.0
sg20
S'S'
p1738
sbasg20
S'S'
p1739
sba(iBasisSets
BasisFunction
p1740
(dp1741
g13
(lp1742
F1.0
asg15
(lp1743
(iBasisSets
PrimitiveFunction
p1744
(dp1745
g19
F8710.0
sg20
S'S'
p1746
sbasg20
S'S'
p1747
sba(iBasisSets
BasisFunction
p1748
(dp1749
g13
(lp1750
F1.0
asg15
(lp1751
(iBasisSets
PrimitiveFunction
p1752
(dp1753
g19
F2842.0
sg20
S'S'
p1754
sbasg20
S'S'
p1755
sba(iBasisSets
BasisFunction
p1756
(dp1757
g13
(lp1758
F1.0
asg15
(lp1759
(iBasisSets
PrimitiveFunction
p1760
(dp1761
g19
F1026.0
sg20
S'S'
p1762
sbasg20
S'S'
p1763
sba(iBasisSets
BasisFunction
p1764
(dp1765
g13
(lp1766
F1.0
asg15
(lp1767
(iBasisSets
PrimitiveFunction
p1768
(dp1769
g19
F400.10000000000002
sg20
S'S'
p1770
sbasg20
S'S'
p1771
sba(iBasisSets
BasisFunction
p1772
(dp1773
g13
(lp1774
F1.0
asg15
(lp1775
(iBasisSets
PrimitiveFunction
p1776
(dp1777
g19
F165.90000000000001
sg20
S'S'
p1778
sbasg20
S'S'
p1779
sba(iBasisSets
BasisFunction
p1780
(dp1781
g13
(lp1782
F1.0
asg15
(lp1783
(iBasisSets
PrimitiveFunction
p1784
(dp1785
g19
F72.209999999999994
sg20
S'S'
p1786
sbasg20
S'S'
p1787
sba(iBasisSets
BasisFunction
p1788
(dp1789
g13
(lp1790
F1.0
asg15
(lp1791
(iBasisSets
PrimitiveFunction
p1792
(dp1793
g19
F32.659999999999997
sg20
S'S'
p1794
sbasg20
S'S'
p1795
sba(iBasisSets
BasisFunction
p1796
(dp1797
g13
(lp1798
F1.0
asg15
(lp1799
(iBasisSets
PrimitiveFunction
p1800
(dp1801
g19
F15.220000000000001
sg20
S'S'
p1802
sbasg20
S'S'
p1803
sba(iBasisSets
BasisFunction
p1804
(dp1805
g13
(lp1806
F1.0
asg15
(lp1807
(iBasisSets
PrimitiveFunction
p1808
(dp1809
g19
F7.149
sg20
S'S'
p1810
sbasg20
S'S'
p1811
sba(iBasisSets
BasisFunction
p1812
(dp1813
g13
(lp1814
F1.0
asg15
(lp1815
(iBasisSets
PrimitiveFunction
p1816
(dp1817
g19
F2.9569999999999999
sg20
S'S'
p1818
sbasg20
S'S'
p1819
sba(iBasisSets
BasisFunction
p1820
(dp1821
g13
(lp1822
F1.0
asg15
(lp1823
(iBasisSets
PrimitiveFunction
p1824
(dp1825
g19
F1.335
sg20
S'S'
p1826
sbasg20
S'S'
p1827
sba(iBasisSets
BasisFunction
p1828
(dp1829
g13
(lp1830
F1.0
asg15
(lp1831
(iBasisSets
PrimitiveFunction
p1832
(dp1833
g19
F0.58160000000000001
sg20
S'S'
p1834
sbasg20
S'S'
p1835
sba(iBasisSets
BasisFunction
p1836
(dp1837
g13
(lp1838
F1.0
asg15
(lp1839
(iBasisSets
PrimitiveFunction
p1840
(dp1841
g19
F0.24629999999999999
sg20
S'S'
p1842
sbasg20
S'S'
p1843
sba(iBasisSets
BasisFunction
p1844
(dp1845
g13
(lp1846
F1.0
asg15
(lp1847
(iBasisSets
PrimitiveFunction
p1848
(dp1849
g19
F0.086900000000000005
sg20
S'S'
p1850
sbasg20
S'S'
p1851
sbassbsS'O'
p1852
(iBasisSets
AtomBasis
p1853
(dp1854
g7
(dp1855
g9
(lp1856
(iBasisSets
BasisFunction
p1857
(dp1858
g13
(lp1859
F1.0
asg15
(lp1860
(iBasisSets
PrimitiveFunction
p1861
(dp1862
g19
F8.2530000000000001
sg20
S'D'
p1863
sbasg20
S'D'
p1864
sba(iBasisSets
BasisFunction
p1865
(dp1866
g13
(lp1867
F1.0
asg15
(lp1868
(iBasisSets
PrimitiveFunction
p1869
(dp1870
g19
F3.597
sg20
S'D'
p1871
sbasg20
S'D'
p1872
sba(iBasisSets
BasisFunction
p1873
(dp1874
g13
(lp1875
F1.0
asg15
(lp1876
(iBasisSets
PrimitiveFunction
p1877
(dp1878
g19
F1.5680000000000001
sg20
S'D'
p1879
sbasg20
S'D'
p1880
sba(iBasisSets
BasisFunction
p1881
(dp1882
g13
(lp1883
F1.0
asg15
(lp1884
(iBasisSets
PrimitiveFunction
p1885
(dp1886
g19
F0.68400000000000005
sg20
S'D'
p1887
sbasg20
S'D'
p1888
sba(iBasisSets
BasisFunction
p1889
(dp1890
g13
(lp1891
F1.0
asg15
(lp1892
(iBasisSets
PrimitiveFunction
p1893
(dp1894
g19
F0.29799999999999999
sg20
S'D'
p1895
sbasg20
S'D'
p1896
sba(iBasisSets
BasisFunction
p1897
(dp1898
g13
(lp1899
F1.0
asg15
(lp1900
(iBasisSets
PrimitiveFunction
p1901
(dp1902
g19
F0.115
sg20
S'D'
p1903
sbasg20
S'D'
p1904
sbasg63
(lp1905
(iBasisSets
BasisFunction
p1906
(dp1907
g13
(lp1908
F1.0
asg15
(lp1909
(iBasisSets
PrimitiveFunction
p1910
(dp1911
g19
F5.2110000000000003
sg20
S'G'
p1912
sbasg20
S'G'
p1913
sba(iBasisSets
BasisFunction
p1914
(dp1915
g13
(lp1916
F1.0
asg15
(lp1917
(iBasisSets
PrimitiveFunction
p1918
(dp1919
g19
F2.1899999999999999
sg20
S'G'
p1920
sbasg20
S'G'
p1921
sba(iBasisSets
BasisFunction
p1922
(dp1923
g13
(lp1924
F1.0
asg15
(lp1925
(iBasisSets
PrimitiveFunction
p1926
(dp1927
g19
F0.92000000000000004
sg20
S'G'
p1928
sbasg20
S'G'
p1929
sba(iBasisSets
BasisFunction
p1930
(dp1931
g13
(lp1932
F1.0
asg15
(lp1933
(iBasisSets
PrimitiveFunction
p1934
(dp1935
g19
F0.40600000000000003
sg20
S'G'
p1936
sbasg20
S'G'
p1937
sbasg97
(lp1938
(iBasisSets
BasisFunction
p1939
(dp1940
g13
(lp1941
F1.0
asg15
(lp1942
(iBasisSets
PrimitiveFunction
p1943
(dp1944
g19
F5.4299999999999997
sg20
S'F'
p1945
sbasg20
S'F'
p1946
sba(iBasisSets
BasisFunction
p1947
(dp1948
g13
(lp1949
F1.0
asg15
(lp1950
(iBasisSets
PrimitiveFunction
p1951
(dp1952
g19
F2.4159999999999999
sg20
S'F'
p1953
sbasg20
S'F'
p1954
sba(iBasisSets
BasisFunction
p1955
(dp1956
g13
(lp1957
F1.0
asg15
(lp1958
(iBasisSets
PrimitiveFunction
p1959
(dp1960
g19
F1.075
sg20
S'F'
p1961
sbasg20
S'F'
p1962
sba(iBasisSets
BasisFunction
p1963
(dp1964
g13
(lp1965
F1.0
asg15
(lp1966
(iBasisSets
PrimitiveFunction
p1967
(dp1968
g19
F0.47799999999999998
sg20
S'F'
p1969
sbasg20
S'F'
p1970
sba(iBasisSets
BasisFunction
p1971
(dp1972
g13
(lp1973
F1.0
asg15
(lp1974
(iBasisSets
PrimitiveFunction
p1975
(dp1976
g19
F0.19500000000000001
sg20
S'F'
p1977
sbasg20
S'F'
p1978
sbasg139
(lp1979
(iBasisSets
BasisFunction
p1980
(dp1981
g13
(lp1982
F1.0
asg15
(lp1983
(iBasisSets
PrimitiveFunction
p1984
(dp1985
g19
F2.7730000000000001
sg20
S'I'
p1986
sbasg20
S'I'
p1987
sba(iBasisSets
BasisFunction
p1988
(dp1989
g13
(lp1990
F1.0
asg15
(lp1991
(iBasisSets
PrimitiveFunction
p1992
(dp1993
g19
F1.345
sg20
S'I'
p1994
sbasg20
S'I'
p1995
sbasg157
(lp1996
(iBasisSets
BasisFunction
p1997
(dp1998
g13
(lp1999
F1.0
asg15
(lp2000
(iBasisSets
PrimitiveFunction
p2001
(dp2002
g19
F3.8719999999999999
sg20
S'H'
p2003
sbasg20
S'H'
p2004
sba(iBasisSets
BasisFunction
p2005
(dp2006
g13
(lp2007
F1.0
asg15
(lp2008
(iBasisSets
PrimitiveFunction
p2009
(dp2010
g19
F1.5049999999999999
sg20
S'H'
p2011
sbasg20
S'H'
p2012
sba(iBasisSets
BasisFunction
p2013
(dp2014
g13
(lp2015
F1.0
asg15
(lp2016
(iBasisSets
PrimitiveFunction
p2017
(dp2018
g19
F0.748
sg20
S'H'
p2019
sbasg20
S'H'
p2020
sbasg183
(lp2021
(iBasisSets
BasisFunction
p2022
(dp2023
g13
(lp2024
F1.0
asg15
(lp2025
(iBasisSets
PrimitiveFunction
p2026
(dp2027
g19
F525.60000000000002
sg20
S'P'
p2028
sbasg20
S'P'
p2029
sba(iBasisSets
BasisFunction
p2030
(dp2031
g13
(lp2032
F1.0
asg15
(lp2033
(iBasisSets
PrimitiveFunction
p2034
(dp2035
g19
F124.59999999999999
sg20
S'P'
p2036
sbasg20
S'P'
p2037
sba(iBasisSets
BasisFunction
p2038
(dp2039
g13
(lp2040
F1.0
asg15
(lp2041
(iBasisSets
PrimitiveFunction
p2042
(dp2043
g19
F40.340000000000003
sg20
S'P'
p2044
sbasg20
S'P'
p2045
sba(iBasisSets
BasisFunction
p2046
(dp2047
g13
(lp2048
F1.0
asg15
(lp2049
(iBasisSets
PrimitiveFunction
p2050
(dp2051
g19
F15.18
sg20
S'P'
p2052
sbasg20
S'P'
p2053
sba(iBasisSets
BasisFunction
p2054
(dp2055
g13
(lp2056
F1.0
asg15
(lp2057
(iBasisSets
PrimitiveFunction
p2058
(dp2059
g19
F6.2450000000000001
sg20
S'P'
p2060
sbasg20
S'P'
p2061
sba(iBasisSets
BasisFunction
p2062
(dp2063
g13
(lp2064
F1.0
asg15
(lp2065
(iBasisSets
PrimitiveFunction
p2066
(dp2067
g19
F2.7320000000000002
sg20
S'P'
p2068
sbasg20
S'P'
p2069
sba(iBasisSets
BasisFunction
p2070
(dp2071
g13
(lp2072
F1.0
asg15
(lp2073
(iBasisSets
PrimitiveFunction
p2074
(dp2075
g19
F1.2270000000000001
sg20
S'P'
p2076
sbasg20
S'P'
p2077
sba(iBasisSets
BasisFunction
p2078
(dp2079
g13
(lp2080
F1.0
asg15
(lp2081
(iBasisSets
PrimitiveFunction
p2082
(dp2083
g19
F0.54920000000000002
sg20
S'P'
p2084
sbasg20
S'P'
p2085
sba(iBasisSets
BasisFunction
p2086
(dp2087
g13
(lp2088
F1.0
asg15
(lp2089
(iBasisSets
PrimitiveFunction
p2090
(dp2091
g19
F0.24179999999999999
sg20
S'P'
p2092
sbasg20
S'P'
p2093
sba(iBasisSets
BasisFunction
p2094
(dp2095
g13
(lp2096
F1.0
asg15
(lp2097
(iBasisSets
PrimitiveFunction
p2098
(dp2099
g19
F0.10249999999999999
sg20
S'P'
p2100
sbasg20
S'P'
p2101
sba(iBasisSets
BasisFunction
p2102
(dp2103
g13
(lp2104
F1.0
asg15
(lp2105
(iBasisSets
PrimitiveFunction
p2106
(dp2107
g19
F0.033799999999999997
sg20
S'P'
p2108
sbasg20
S'P'
p2109
sbasg273
(lp2110
(iBasisSets
BasisFunction
p2111
(dp2112
g13
(lp2113
F1.0
asg15
(lp2114
(iBasisSets
PrimitiveFunction
p2115
(dp2116
g19
F570800.0
sg20
S'S'
p2117
sbasg20
S'S'
p2118
sba(iBasisSets
BasisFunction
p2119
(dp2120
g13
(lp2121
F1.0
asg15
(lp2122
(iBasisSets
PrimitiveFunction
p2123
(dp2124
g19
F85480.0
sg20
S'S'
p2125
sbasg20
S'S'
p2126
sba(iBasisSets
BasisFunction
p2127
(dp2128
g13
(lp2129
F1.0
asg15
(lp2130
(iBasisSets
PrimitiveFunction
p2131
(dp2132
g19
F19460.0
sg20
S'S'
p2133
sbasg20
S'S'
p2134
sba(iBasisSets
BasisFunction
p2135
(dp2136
g13
(lp2137
F1.0
asg15
(lp2138
(iBasisSets
PrimitiveFunction
p2139
(dp2140
g19
F5512.0
sg20
S'S'
p2141
sbasg20
S'S'
p2142
sba(iBasisSets
BasisFunction
p2143
(dp2144
g13
(lp2145
F1.0
asg15
(lp2146
(iBasisSets
PrimitiveFunction
p2147
(dp2148
g19
F1798.0
sg20
S'S'
p2149
sbasg20
S'S'
p2150
sba(iBasisSets
BasisFunction
p2151
(dp2152
g13
(lp2153
F1.0
asg15
(lp2154
(iBasisSets
PrimitiveFunction
p2155
(dp2156
g19
F648.89999999999998
sg20
S'S'
p2157
sbasg20
S'S'
p2158
sba(iBasisSets
BasisFunction
p2159
(dp2160
g13
(lp2161
F1.0
asg15
(lp2162
(iBasisSets
PrimitiveFunction
p2163
(dp2164
g19
F253.09999999999999
sg20
S'S'
p2165
sbasg20
S'S'
p2166
sba(iBasisSets
BasisFunction
p2167
(dp2168
g13
(lp2169
F1.0
asg15
(lp2170
(iBasisSets
PrimitiveFunction
p2171
(dp2172
g19
F104.90000000000001
sg20
S'S'
p2173
sbasg20
S'S'
p2174
sba(iBasisSets
BasisFunction
p2175
(dp2176
g13
(lp2177
F1.0
asg15
(lp2178
(iBasisSets
PrimitiveFunction
p2179
(dp2180
g19
F45.649999999999999
sg20
S'S'
p2181
sbasg20
S'S'
p2182
sba(iBasisSets
BasisFunction
p2183
(dp2184
g13
(lp2185
F1.0
asg15
(lp2186
(iBasisSets
PrimitiveFunction
p2187
(dp2188
g19
F20.620000000000001
sg20
S'S'
p2189
sbasg20
S'S'
p2190
sba(iBasisSets
BasisFunction
p2191
(dp2192
g13
(lp2193
F1.0
asg15
(lp2194
(iBasisSets
PrimitiveFunction
p2195
(dp2196
g19
F9.5869999999999997
sg20
S'S'
p2197
sbasg20
S'S'
p2198
sba(iBasisSets
BasisFunction
p2199
(dp2200
g13
(lp2201
F1.0
asg15
(lp2202
(iBasisSets
PrimitiveFunction
p2203
(dp2204
g19
F4.4930000000000003
sg20
S'S'
p2205
sbasg20
S'S'
p2206
sba(iBasisSets
BasisFunction
p2207
(dp2208
g13
(lp2209
F1.0
asg15
(lp2210
(iBasisSets
PrimitiveFunction
p2211
(dp2212
g19
F1.837
sg20
S'S'
p2213
sbasg20
S'S'
p2214
sba(iBasisSets
BasisFunction
p2215
(dp2216
g13
(lp2217
F1.0
asg15
(lp2218
(iBasisSets
PrimitiveFunction
p2219
(dp2220
g19
F0.83489999999999998
sg20
S'S'
p2221
sbasg20
S'S'
p2222
sba(iBasisSets
BasisFunction
p2223
(dp2224
g13
(lp2225
F1.0
asg15
(lp2226
(iBasisSets
PrimitiveFunction
p2227
(dp2228
g19
F0.36580000000000001
sg20
S'S'
p2229
sbasg20
S'S'
p2230
sba(iBasisSets
BasisFunction
p2231
(dp2232
g13
(lp2233
F1.0
asg15
(lp2234
(iBasisSets
PrimitiveFunction
p2235
(dp2236
g19
F0.157
sg20
S'S'
p2237
sbasg20
S'S'
p2238
sba(iBasisSets
BasisFunction
p2239
(dp2240
g13
(lp2241
F1.0
asg15
(lp2242
(iBasisSets
PrimitiveFunction
p2243
(dp2244
g19
F0.05935
sg20
S'S'
p2245
sbasg20
S'S'
p2246
sbassbsS'N'
p2247
(iBasisSets
AtomBasis
p2248
(dp2249
g7
(dp2250
g9
(lp2251
(iBasisSets
BasisFunction
p2252
(dp2253
g13
(lp2254
F1.0
asg15
(lp2255
(iBasisSets
PrimitiveFunction
p2256
(dp2257
g19
F6.7169999999999996
sg20
S'D'
p2258
sbasg20
S'D'
p2259
sba(iBasisSets
BasisFunction
p2260
(dp2261
g13
(lp2262
F1.0
asg15
(lp2263
(iBasisSets
PrimitiveFunction
p2264
(dp2265
g19
F2.8959999999999999
sg20
S'D'
p2266
sbasg20
S'D'
p2267
sba(iBasisSets
BasisFunction
p2268
(dp2269
g13
(lp2270
F1.0
asg15
(lp2271
(iBasisSets
PrimitiveFunction
p2272
(dp2273
g19
F1.2490000000000001
sg20
S'D'
p2274
sbasg20
S'D'
p2275
sba(iBasisSets
BasisFunction
p2276
(dp2277
g13
(lp2278
F1.0
asg15
(lp2279
(iBasisSets
PrimitiveFunction
p2280
(dp2281
g19
F0.53800000000000003
sg20
S'D'
p2282
sbasg20
S'D'
p2283
sba(iBasisSets
BasisFunction
p2284
(dp2285
g13
(lp2286
F1.0
asg15
(lp2287
(iBasisSets
PrimitiveFunction
p2288
(dp2289
g19
F0.23200000000000001
sg20
S'D'
p2290
sbasg20
S'D'
p2291
sba(iBasisSets
BasisFunction
p2292
(dp2293
g13
(lp2294
F1.0
asg15
(lp2295
(iBasisSets
PrimitiveFunction
p2296
(dp2297
g19
F0.087400000000000005
sg20
S'D'
p2298
sbasg20
S'D'
p2299
sbasg63
(lp2300
(iBasisSets
BasisFunction
p2301
(dp2302
g13
(lp2303
F1.0
asg15
(lp2304
(iBasisSets
PrimitiveFunction
p2305
(dp2306
g19
F3.8559999999999999
sg20
S'G'
p2307
sbasg20
S'G'
p2308
sba(iBasisSets
BasisFunction
p2309
(dp2310
g13
(lp2311
F1.0
asg15
(lp2312
(iBasisSets
PrimitiveFunction
p2313
(dp2314
g19
F1.702
sg20
S'G'
p2315
sbasg20
S'G'
p2316
sba(iBasisSets
BasisFunction
p2317
(dp2318
g13
(lp2319
F1.0
asg15
(lp2320
(iBasisSets
PrimitiveFunction
p2321
(dp2322
g19
F0.751
sg20
S'G'
p2323
sbasg20
S'G'
p2324
sba(iBasisSets
BasisFunction
p2325
(dp2326
g13
(lp2327
F1.0
asg15
(lp2328
(iBasisSets
PrimitiveFunction
p2329
(dp2330
g19
F0.32600000000000001
sg20
S'G'
p2331
sbasg20
S'G'
p2332
sbasg97
(lp2333
(iBasisSets
BasisFunction
p2334
(dp2335
g13
(lp2336
F1.0
asg15
(lp2337
(iBasisSets
PrimitiveFunction
p2338
(dp2339
g19
F3.8290000000000002
sg20
S'F'
p2340
sbasg20
S'F'
p2341
sba(iBasisSets
BasisFunction
p2342
(dp2343
g13
(lp2344
F1.0
asg15
(lp2345
(iBasisSets
PrimitiveFunction
p2346
(dp2347
g19
F1.7949999999999999
sg20
S'F'
p2348
sbasg20
S'F'
p2349
sba(iBasisSets
BasisFunction
p2350
(dp2351
g13
(lp2352
F1.0
asg15
(lp2353
(iBasisSets
PrimitiveFunction
p2354
(dp2355
g19
F0.84099999999999997
sg20
S'F'
p2356
sbasg20
S'F'
p2357
sba(iBasisSets
BasisFunction
p2358
(dp2359
g13
(lp2360
F1.0
asg15
(lp2361
(iBasisSets
PrimitiveFunction
p2362
(dp2363
g19
F0.39400000000000002
sg20
S'F'
p2364
sbasg20
S'F'
p2365
sba(iBasisSets
BasisFunction
p2366
(dp2367
g13
(lp2368
F1.0
asg15
(lp2369
(iBasisSets
PrimitiveFunction
p2370
(dp2371
g19
F0.151
sg20
S'F'
p2372
sbasg20
S'F'
p2373
sbasg139
(lp2374
(iBasisSets
BasisFunction
p2375
(dp2376
g13
(lp2377
F1.0
asg15
(lp2378
(iBasisSets
PrimitiveFunction
p2379
(dp2380
g19
F2.0990000000000002
sg20
S'I'
p2381
sbasg20
S'I'
p2382
sba(iBasisSets
BasisFunction
p2383
(dp2384
g13
(lp2385
F1.0
asg15
(lp2386
(iBasisSets
PrimitiveFunction
p2387
(dp2388
g19
F1.0409999999999999
sg20
S'I'
p2389
sbasg20
S'I'
p2390
sbasg157
(lp2391
(iBasisSets
BasisFunction
p2392
(dp2393
g13
(lp2394
F1.0
asg15
(lp2395
(iBasisSets
PrimitiveFunction
p2396
(dp2397
g19
F2.875
sg20
S'H'
p2398
sbasg20
S'H'
p2399
sba(iBasisSets
BasisFunction
p2400
(dp2401
g13
(lp2402
F1.0
asg15
(lp2403
(iBasisSets
PrimitiveFunction
p2404
(dp2405
g19
F1.1699999999999999
sg20
S'H'
p2406
sbasg20
S'H'
p2407
sba(iBasisSets
BasisFunction
p2408
(dp2409
g13
(lp2410
F1.0
asg15
(lp2411
(iBasisSets
PrimitiveFunction
p2412
(dp2413
g19
F0.58699999999999997
sg20
S'H'
p2414
sbasg20
S'H'
p2415
sbasg183
(lp2416
(iBasisSets
BasisFunction
p2417
(dp2418
g13
(lp2419
F1.0
asg15
(lp2420
(iBasisSets
PrimitiveFunction
p2421
(dp2422
g19
F415.89999999999998
sg20
S'P'
p2423
sbasg20
S'P'
p2424
sba(iBasisSets
BasisFunction
p2425
(dp2426
g13
(lp2427
F1.0
asg15
(lp2428
(iBasisSets
PrimitiveFunction
p2429
(dp2430
g19
F98.609999999999999
sg20
S'P'
p2431
sbasg20
S'P'
p2432
sba(iBasisSets
BasisFunction
p2433
(dp2434
g13
(lp2435
F1.0
asg15
(lp2436
(iBasisSets
PrimitiveFunction
p2437
(dp2438
g19
F31.920000000000002
sg20
S'P'
p2439
sbasg20
S'P'
p2440
sba(iBasisSets
BasisFunction
p2441
(dp2442
g13
(lp2443
F1.0
asg15
(lp2444
(iBasisSets
PrimitiveFunction
p2445
(dp2446
g19
F12.0
sg20
S'P'
p2447
sbasg20
S'P'
p2448
sba(iBasisSets
BasisFunction
p2449
(dp2450
g13
(lp2451
F1.0
asg15
(lp2452
(iBasisSets
PrimitiveFunction
p2453
(dp2454
g19
F4.9189999999999996
sg20
S'P'
p2455
sbasg20
S'P'
p2456
sba(iBasisSets
BasisFunction
p2457
(dp2458
g13
(lp2459
F1.0
asg15
(lp2460
(iBasisSets
PrimitiveFunction
p2461
(dp2462
g19
F2.1480000000000001
sg20
S'P'
p2463
sbasg20
S'P'
p2464
sba(iBasisSets
BasisFunction
p2465
(dp2466
g13
(lp2467
F1.0
asg15
(lp2468
(iBasisSets
PrimitiveFunction
p2469
(dp2470
g19
F0.96960000000000002
sg20
S'P'
p2471
sbasg20
S'P'
p2472
sba(iBasisSets
BasisFunction
p2473
(dp2474
g13
(lp2475
F1.0
asg15
(lp2476
(iBasisSets
PrimitiveFunction
p2477
(dp2478
g19
F0.43990000000000001
sg20
S'P'
p2479
sbasg20
S'P'
p2480
sba(iBasisSets
BasisFunction
p2481
(dp2482
g13
(lp2483
F1.0
asg15
(lp2484
(iBasisSets
PrimitiveFunction
p2485
(dp2486
g19
F0.1978
sg20
S'P'
p2487
sbasg20
S'P'
p2488
sba(iBasisSets
BasisFunction
p2489
(dp2490
g13
(lp2491
F1.0
asg15
(lp2492
(iBasisSets
PrimitiveFunction
p2493
(dp2494
g19
F0.086029999999999995
sg20
S'P'
p2495
sbasg20
S'P'
p2496
sba(iBasisSets
BasisFunction
p2497
(dp2498
g13
(lp2499
F1.0
asg15
(lp2500
(iBasisSets
PrimitiveFunction
p2501
(dp2502
g19
F0.0315
sg20
S'P'
p2503
sbasg20
S'P'
p2504
sbasg273
(lp2505
(iBasisSets
BasisFunction
p2506
(dp2507
g13
(lp2508
F1.0
asg15
(lp2509
(iBasisSets
PrimitiveFunction
p2510
(dp2511
g19
F432300.0
sg20
S'S'
p2512
sbasg20
S'S'
p2513
sba(iBasisSets
BasisFunction
p2514
(dp2515
g13
(lp2516
F1.0
asg15
(lp2517
(iBasisSets
PrimitiveFunction
p2518
(dp2519
g19
F64700.0
sg20
S'S'
p2520
sbasg20
S'S'
p2521
sba(iBasisSets
BasisFunction
p2522
(dp2523
g13
(lp2524
F1.0
asg15
(lp2525
(iBasisSets
PrimitiveFunction
p2526
(dp2527
g19
F14720.0
sg20
S'S'
p2528
sbasg20
S'S'
p2529
sba(iBasisSets
BasisFunction
p2530
(dp2531
g13
(lp2532
F1.0
asg15
(lp2533
(iBasisSets
PrimitiveFunction
p2534
(dp2535
g19
F4170.0
sg20
S'S'
p2536
sbasg20
S'S'
p2537
sba(iBasisSets
BasisFunction
p2538
(dp2539
g13
(lp2540
F1.0
asg15
(lp2541
(iBasisSets
PrimitiveFunction
p2542
(dp2543
g19
F1361.0
sg20
S'S'
p2544
sbasg20
S'S'
p2545
sba(iBasisSets
BasisFunction
p2546
(dp2547
g13
(lp2548
F1.0
asg15
(lp2549
(iBasisSets
PrimitiveFunction
p2550
(dp2551
g19
F491.19999999999999
sg20
S'S'
p2552
sbasg20
S'S'
p2553
sba(iBasisSets
BasisFunction
p2554
(dp2555
g13
(lp2556
F1.0
asg15
(lp2557
(iBasisSets
PrimitiveFunction
p2558
(dp2559
g19
F191.59999999999999
sg20
S'S'
p2560
sbasg20
S'S'
p2561
sba(iBasisSets
BasisFunction
p2562
(dp2563
g13
(lp2564
F1.0
asg15
(lp2565
(iBasisSets
PrimitiveFunction
p2566
(dp2567
g19
F79.409999999999997
sg20
S'S'
p2568
sbasg20
S'S'
p2569
sba(iBasisSets
BasisFunction
p2570
(dp2571
g13
(lp2572
F1.0
asg15
(lp2573
(iBasisSets
PrimitiveFunction
p2574
(dp2575
g19
F34.530000000000001
sg20
S'S'
p2576
sbasg20
S'S'
p2577
sba(iBasisSets
BasisFunction
p2578
(dp2579
g13
(lp2580
F1.0
asg15
(lp2581
(iBasisSets
PrimitiveFunction
p2582
(dp2583
g19
F15.58
sg20
S'S'
p2584
sbasg20
S'S'
p2585
sba(iBasisSets
BasisFunction
p2586
(dp2587
g13
(lp2588
F1.0
asg15
(lp2589
(iBasisSets
PrimitiveFunction
p2590
(dp2591
g19
F7.2320000000000002
sg20
S'S'
p2592
sbasg20
S'S'
p2593
sba(iBasisSets
BasisFunction
p2594
(dp2595
g13
(lp2596
F1.0
asg15
(lp2597
(iBasisSets
PrimitiveFunction
p2598
(dp2599
g19
F3.3820000000000001
sg20
S'S'
p2600
sbasg20
S'S'
p2601
sba(iBasisSets
BasisFunction
p2602
(dp2603
g13
(lp2604
F1.0
asg15
(lp2605
(iBasisSets
PrimitiveFunction
p2606
(dp2607
g19
F1.369
sg20
S'S'
p2608
sbasg20
S'S'
p2609
sba(iBasisSets
BasisFunction
p2610
(dp2611
g13
(lp2612
F1.0
asg15
(lp2613
(iBasisSets
PrimitiveFunction
p2614
(dp2615
g19
F0.62480000000000002
sg20
S'S'
p2616
sbasg20
S'S'
p2617
sba(iBasisSets
BasisFunction
p2618
(dp2619
g13
(lp2620
F1.0
asg15
(lp2621
(iBasisSets
PrimitiveFunction
p2622
(dp2623
g19
F0.2747
sg20
S'S'
p2624
sbasg20
S'S'
p2625
sba(iBasisSets
BasisFunction
p2626
(dp2627
g13
(lp2628
F1.0
asg15
(lp2629
(iBasisSets
PrimitiveFunction
p2630
(dp2631
g19
F0.1192
sg20
S'S'
p2632
sbasg20
S'S'
p2633
sba(iBasisSets
BasisFunction
p2634
(dp2635
g13
(lp2636
F1.0
asg15
(lp2637
(iBasisSets
PrimitiveFunction
p2638
(dp2639
g19
F0.047140000000000001
sg20
S'S'
p2640
sbasg20
S'S'
p2641
sbassbsS'HE'
p2642
(iBasisSets
AtomBasis
p2643
(dp2644
g7
(dp2645
g9
(lp2646
(iBasisSets
BasisFunction
p2647
(dp2648
g13
(lp2649
F1.0
asg15
(lp2650
(iBasisSets
PrimitiveFunction
p2651
(dp2652
g19
F0.747
sg20
S'D'
p2653
sbasg20
S'D'
p2654
sba(iBasisSets
BasisFunction
p2655
(dp2656
g13
(lp2657
F1.0
asg15
(lp2658
(iBasisSets
PrimitiveFunction
p2659
(dp2660
g19
F1.9099999999999999
sg20
S'D'
p2661
sbasg20
S'D'
p2662
sba(iBasisSets
BasisFunction
p2663
(dp2664
g13
(lp2665
F1.0
asg15
(lp2666
(iBasisSets
PrimitiveFunction
p2667
(dp2668
g19
F4.8860000000000001
sg20
S'D'
p2669
sbasg20
S'D'
p2670
sba(iBasisSets
BasisFunction
p2671
(dp2672
g13
(lp2673
F1.0
asg15
(lp2674
(iBasisSets
PrimitiveFunction
p2675
(dp2676
g19
F12.497999999999999
sg20
S'D'
p2677
sbasg20
S'D'
p2678
sba(iBasisSets
BasisFunction
p2679
(dp2680
g13
(lp2681
F1.0
asg15
(lp2682
(iBasisSets
PrimitiveFunction
p2683
(dp2684
g19
F0.24099999999999999
sg20
S'D'
p2685
sbasg20
S'D'
p2686
sbasg63
(lp2687
(iBasisSets
BasisFunction
p2688
(dp2689
g13
(lp2690
F1.0
asg15
(lp2691
(iBasisSets
PrimitiveFunction
p2692
(dp2693
g19
F2.2360000000000002
sg20
S'G'
p2694
sbasg20
S'G'
p2695
sba(iBasisSets
BasisFunction
p2696
(dp2697
g13
(lp2698
F1.0
asg15
(lp2699
(iBasisSets
PrimitiveFunction
p2700
(dp2701
g19
F6.5860000000000003
sg20
S'G'
p2702
sbasg20
S'G'
p2703
sba(iBasisSets
BasisFunction
p2704
(dp2705
g13
(lp2706
F1.0
asg15
(lp2707
(iBasisSets
PrimitiveFunction
p2708
(dp2709
g19
F0.68600000000000005
sg20
S'G'
p2710
sbasg20
S'G'
p2711
sbasg97
(lp2712
(iBasisSets
BasisFunction
p2713
(dp2714
g13
(lp2715
F1.0
asg15
(lp2716
(iBasisSets
PrimitiveFunction
p2717
(dp2718
g19
F1.292
sg20
S'F'
p2719
sbasg20
S'F'
p2720
sba(iBasisSets
BasisFunction
p2721
(dp2722
g13
(lp2723
F1.0
asg15
(lp2724
(iBasisSets
PrimitiveFunction
p2725
(dp2726
g19
F3.4620000000000002
sg20
S'F'
p2727
sbasg20
S'F'
p2728
sba(iBasisSets
BasisFunction
p2729
(dp2730
g13
(lp2731
F1.0
asg15
(lp2732
(iBasisSets
PrimitiveFunction
p2733
(dp2734
g19
F9.2759999999999998
sg20
S'F'
p2735
sbasg20
S'F'
p2736
sba(iBasisSets
BasisFunction
p2737
(dp2738
g13
(lp2739
F1.0
asg15
(lp2740
(iBasisSets
PrimitiveFunction
p2741
(dp2742
g19
F0.40699999999999997
sg20
S'F'
p2743
sbasg20
S'F'
p2744
sbasg157
(lp2745
(iBasisSets
BasisFunction
p2746
(dp2747
g13
(lp2748
F1.0
asg15
(lp2749
(iBasisSets
PrimitiveFunction
p2750
(dp2751
g19
F4.1589999999999998
sg20
S'H'
p2752
sbasg20
S'H'
p2753
sba(iBasisSets
BasisFunction
p2754
(dp2755
g13
(lp2756
F1.0
asg15
(lp2757
(iBasisSets
PrimitiveFunction
p2758
(dp2759
g19
F1.016
sg20
S'H'
p2760
sbasg20
S'H'
p2761
sbasg183
(lp2762
(iBasisSets
BasisFunction
p2763
(dp2764
g13
(lp2765
F1.0
asg15
(lp2766
(iBasisSets
PrimitiveFunction
p2767
(dp2768
g19
F0.38700000000000001
sg20
S'P'
p2769
sbasg20
S'P'
p2770
sba(iBasisSets
BasisFunction
p2771
(dp2772
g13
(lp2773
F1.0
asg15
(lp2774
(iBasisSets
PrimitiveFunction
p2775
(dp2776
g19
F0.98399999999999999
sg20
S'P'
p2777
sbasg20
S'P'
p2778
sba(iBasisSets
BasisFunction
p2779
(dp2780
g13
(lp2781
F1.0
asg15
(lp2782
(iBasisSets
PrimitiveFunction
p2783
(dp2784
g19
F2.4980000000000002
sg20
S'P'
p2785
sbasg20
S'P'
p2786
sba(iBasisSets
BasisFunction
p2787
(dp2788
g13
(lp2789
F1.0
asg15
(lp2790
(iBasisSets
PrimitiveFunction
p2791
(dp2792
g19
F6.3419999999999996
sg20
S'P'
p2793
sbasg20
S'P'
p2794
sba(iBasisSets
BasisFunction
p2795
(dp2796
g13
(lp2797
F1.0
asg15
(lp2798
(iBasisSets
PrimitiveFunction
p2799
(dp2800
g19
F16.103999999999999
sg20
S'P'
p2801
sbasg20
S'P'
p2802
sba(iBasisSets
BasisFunction
p2803
(dp2804
g13
(lp2805
F1.0
asg15
(lp2806
(iBasisSets
PrimitiveFunction
p2807
(dp2808
g19
F0.128
sg20
S'P'
p2809
sbasg20
S'P'
p2810
sbasg273
(lp2811
(iBasisSets
BasisFunction
p2812
(dp2813
g13
(lp2814
F1.0
asg15
(lp2815
(iBasisSets
PrimitiveFunction
p2816
(dp2817
g19
F4785.0
sg20
S'S'
p2818
sbasg20
S'S'
p2819
sba(iBasisSets
BasisFunction
p2820
(dp2821
g13
(lp2822
F1.0
asg15
(lp2823
(iBasisSets
PrimitiveFunction
p2824
(dp2825
g19
F717.0
sg20
S'S'
p2826
sbasg20
S'S'
p2827
sba(iBasisSets
BasisFunction
p2828
(dp2829
g13
(lp2830
F1.0
asg15
(lp2831
(iBasisSets
PrimitiveFunction
p2832
(dp2833
g19
F163.19999999999999
sg20
S'S'
p2834
sbasg20
S'S'
p2835
sba(iBasisSets
BasisFunction
p2836
(dp2837
g13
(lp2838
F1.0
asg15
(lp2839
(iBasisSets
PrimitiveFunction
p2840
(dp2841
g19
F46.259999999999998
sg20
S'S'
p2842
sbasg20
S'S'
p2843
sba(iBasisSets
BasisFunction
p2844
(dp2845
g13
(lp2846
F1.0
asg15
(lp2847
(iBasisSets
PrimitiveFunction
p2848
(dp2849
g19
F15.1
sg20
S'S'
p2850
sbasg20
S'S'
p2851
sba(iBasisSets
BasisFunction
p2852
(dp2853
g13
(lp2854
F1.0
asg15
(lp2855
(iBasisSets
PrimitiveFunction
p2856
(dp2857
g19
F5.4370000000000003
sg20
S'S'
p2858
sbasg20
S'S'
p2859
sba(iBasisSets
BasisFunction
p2860
(dp2861
g13
(lp2862
F1.0
asg15
(lp2863
(iBasisSets
PrimitiveFunction
p2864
(dp2865
g19
F2.0880000000000001
sg20
S'S'
p2866
sbasg20
S'S'
p2867
sba(iBasisSets
BasisFunction
p2868
(dp2869
g13
(lp2870
F1.0
asg15
(lp2871
(iBasisSets
PrimitiveFunction
p2872
(dp2873
g19
F0.82969999999999999
sg20
S'S'
p2874
sbasg20
S'S'
p2875
sba(iBasisSets
BasisFunction
p2876
(dp2877
g13
(lp2878
F1.0
asg15
(lp2879
(iBasisSets
PrimitiveFunction
p2880
(dp2881
g19
F0.33660000000000001
sg20
S'S'
p2882
sbasg20
S'S'
p2883
sba(iBasisSets
BasisFunction
p2884
(dp2885
g13
(lp2886
F1.0
asg15
(lp2887
(iBasisSets
PrimitiveFunction
p2888
(dp2889
g19
F0.13689999999999999
sg20
S'S'
p2890
sbasg20
S'S'
p2891
sba(iBasisSets
BasisFunction
p2892
(dp2893
g13
(lp2894
F1.0
asg15
(lp2895
(iBasisSets
PrimitiveFunction
p2896
(dp2897
g19
F0.044729999999999999
sg20
S'S'
p2898
sbasg20
S'S'
p2899
sbassbssb.