(ibasisset
BasisSet
p0
(dp1
S'basisDictionary'
p2
(dp3
S'H'
p4
(iBasisSets
AtomBasis
p5
(dp6
S'basisDictionary'
p7
(dp8
S'P'
p9
(lp10
(iBasisSets
BasisFunction
p11
(dp12
S'coefficientList'
p13
(lp14
F1.0
asS'primitiveList'
p15
(lp16
(iBasisSets
PrimitiveFunction
p17
(dp18
S'exponent'
p19
F0.72699999999999998
sS'angularMomentum'
p20
S'P'
p21
sbasg20
S'P'
p22
sba(iBasisSets
BasisFunction
p23
(dp24
g13
(lp25
F1.0
asg15
(lp26
(iBasisSets
PrimitiveFunction
p27
(dp28
g19
F0.14099999999999999
sg20
S'P'
p29
sbasg20
S'P'
p30
sbasS'S'
p31
(lp32
(iBasisSets
BasisFunction
p33
(dp34
g13
(lp35
F0.019685000000000001
aF0.13797699999999999
aF0.47814800000000002
aF0.50124000000000002
asg15
(lp36
(iBasisSets
PrimitiveFunction
p37
(dp38
g19
F13.01
sg20
S'S'
p39
sba(iBasisSets
PrimitiveFunction
p40
(dp41
g19
F1.962
sg20
S'S'
p42
sba(iBasisSets
PrimitiveFunction
p43
(dp44
g19
F0.4446
sg20
S'S'
p45
sba(iBasisSets
PrimitiveFunction
p46
(dp47
g19
F0.122
sg20
S'S'
p48
sbasg20
S'S'
p49
sba(iBasisSets
BasisFunction
p50
(dp51
g13
(lp52
F1.0
asg15
(lp53
(iBasisSets
PrimitiveFunction
p54
(dp55
g19
F0.122
sg20
S'S'
p56
sbasg20
S'S'
p57
sba(iBasisSets
BasisFunction
p58
(dp59
g13
(lp60
F1.0
asg15
(lp61
(iBasisSets
PrimitiveFunction
p62
(dp63
g19
F0.029739999999999999
sg20
S'S'
p64
sbasg20
S'S'
p65
sbassbsS'C'
p66
(iBasisSets
AtomBasis
p67
(dp68
g7
(dp69
g9
(lp70
(iBasisSets
BasisFunction
p71
(dp72
g13
(lp73
F0.038108999999999997
aF0.20948
aF0.50855700000000004
aF0.46884199999999998
asg15
(lp74
(iBasisSets
PrimitiveFunction
p75
(dp76
g19
F9.4390000000000001
sg20
S'P'
p77
sba(iBasisSets
PrimitiveFunction
p78
(dp79
g19
F2.0019999999999998
sg20
S'P'
p80
sba(iBasisSets
PrimitiveFunction
p81
(dp82
g19
F0.54559999999999997
sg20
S'P'
p83
sba(iBasisSets
PrimitiveFunction
p84
(dp85
g19
F0.1517
sg20
S'P'
p86
sbasg20
S'P'
p87
sba(iBasisSets
BasisFunction
p88
(dp89
g13
(lp90
F1.0
asg15
(lp91
(iBasisSets
PrimitiveFunction
p92
(dp93
g19
F0.1517
sg20
S'P'
p94
sbasg20
S'P'
p95
sba(iBasisSets
BasisFunction
p96
(dp97
g13
(lp98
F1.0
asg15
(lp99
(iBasisSets
PrimitiveFunction
p100
(dp101
g19
F0.040410000000000001
sg20
S'P'
p102
sbasg20
S'P'
p103
sbasg31
(lp104
(iBasisSets
BasisFunction
p105
(dp106
g13
(lp107
F0.00069200000000000002
aF0.0053290000000000004
aF0.027077
aF0.101718
aF0.27473999999999998
aF0.44856400000000002
aF0.28507399999999999
aF0.015204000000000001
aF-0.0031909999999999998
asg15
(lp108
(iBasisSets
PrimitiveFunction
p109
(dp110
g19
F6665.0
sg20
S'S'
p111
sba(iBasisSets
PrimitiveFunction
p112
(dp113
g19
F1000.0
sg20
S'S'
p114
sba(iBasisSets
PrimitiveFunction
p115
(dp116
g19
F228.0
sg20
S'S'
p117
sba(iBasisSets
PrimitiveFunction
p118
(dp119
g19
F64.709999999999994
sg20
S'S'
p120
sba(iBasisSets
PrimitiveFunction
p121
(dp122
g19
F21.059999999999999
sg20
S'S'
p123
sba(iBasisSets
PrimitiveFunction
p124
(dp125
g19
F7.4950000000000001
sg20
S'S'
p126
sba(iBasisSets
PrimitiveFunction
p127
(dp128
g19
F2.7970000000000002
sg20
S'S'
p129
sba(iBasisSets
PrimitiveFunction
p130
(dp131
g19
F0.52149999999999996
sg20
S'S'
p132
sba(iBasisSets
PrimitiveFunction
p133
(dp134
g19
F0.15959999999999999
sg20
S'S'
p135
sbasg20
S'S'
p136
sba(iBasisSets
BasisFunction
p137
(dp138
g13
(lp139
F-0.000146
aF-0.0011540000000000001
aF-0.0057250000000000001
aF-0.023311999999999999
aF-0.063954999999999998
aF-0.149981
aF-0.12726199999999999
aF0.54452900000000004
aF0.58049600000000001
asg15
(lp140
(iBasisSets
PrimitiveFunction
p141
(dp142
g19
F6665.0
sg20
S'S'
p143
sba(iBasisSets
PrimitiveFunction
p144
(dp145
g19
F1000.0
sg20
S'S'
p146
sba(iBasisSets
PrimitiveFunction
p147
(dp148
g19
F228.0
sg20
S'S'
p149
sba(iBasisSets
PrimitiveFunction
p150
(dp151
g19
F64.709999999999994
sg20
S'S'
p152
sba(iBasisSets
PrimitiveFunction
p153
(dp154
g19
F21.059999999999999
sg20
S'S'
p155
sba(iBasisSets
PrimitiveFunction
p156
(dp157
g19
F7.4950000000000001
sg20
S'S'
p158
sba(iBasisSets
PrimitiveFunction
p159
(dp160
g19
F2.7970000000000002
sg20
S'S'
p161
sba(iBasisSets
PrimitiveFunction
p162
(dp163
g19
F0.52149999999999996
sg20
S'S'
p164
sba(iBasisSets
PrimitiveFunction
p165
(dp166
g19
F0.15959999999999999
sg20
S'S'
p167
sbasg20
S'S'
p168
sba(iBasisSets
BasisFunction
p169
(dp170
g13
(lp171
F1.0
asg15
(lp172
(iBasisSets
PrimitiveFunction
p173
(dp174
g19
F0.15959999999999999
sg20
S'S'
p175
sbasg20
S'S'
p176
sba(iBasisSets
BasisFunction
p177
(dp178
g13
(lp179
F1.0
asg15
(lp180
(iBasisSets
PrimitiveFunction
p181
(dp182
g19
F0.046899999999999997
sg20
S'S'
p183
sbasg20
S'S'
p184
sbasS'D'
p185
(lp186
(iBasisSets
BasisFunction
p187
(dp188
g13
(lp189
F1.0
asg15
(lp190
(iBasisSets
PrimitiveFunction
p191
(dp192
g19
F0.55000000000000004
sg20
S'D'
p193
sbasg20
S'D'
p194
sba(iBasisSets
BasisFunction
p195
(dp196
g13
(lp197
F1.0
asg15
(lp198
(iBasisSets
PrimitiveFunction
p199
(dp200
g19
F0.151
sg20
S'D'
p201
sbasg20
S'D'
p202
sbassbsS'CL'
p203
(iBasisSets
AtomBasis
p204
(dp205
g7
(dp206
g9
(lp207
(iBasisSets
BasisFunction
p208
(dp209
g13
(lp210
F0.0052598200000000001
aF0.039833199999999999
aF0.164655
aF0.387322
aF0.45707199999999998
aF0.15163599999999999
aF0.0018161500000000001
aF0.0018829599999999999
asg15
(lp211
(iBasisSets
PrimitiveFunction
p212
(dp213
g19
F417.60000000000002
sg20
S'P'
p214
sba(iBasisSets
PrimitiveFunction
p215
(dp216
g19
F98.329999999999998
sg20
S'P'
p217
sba(iBasisSets
PrimitiveFunction
p218
(dp219
g19
F31.039999999999999
sg20
S'P'
p220
sba(iBasisSets
PrimitiveFunction
p221
(dp222
g19
F11.19
sg20
S'P'
p223
sba(iBasisSets
PrimitiveFunction
p224
(dp225
g19
F4.2489999999999997
sg20
S'P'
p226
sba(iBasisSets
PrimitiveFunction
p227
(dp228
g19
F1.6240000000000001
sg20
S'P'
p229
sba(iBasisSets
PrimitiveFunction
p230
(dp231
g19
F0.53220000000000001
sg20
S'P'
p232
sba(iBasisSets
PrimitiveFunction
p233
(dp234
g19
F0.16200000000000001
sg20
S'P'
p235
sbasg20
S'P'
p236
sba(iBasisSets
BasisFunction
p237
(dp238
g13
(lp239
F-0.0014357
aF-0.0107796
aF-0.047007500000000001
aF-0.11103
aF-0.15327499999999999
aF0.089460899999999996
aF0.57944399999999996
aF0.48327199999999998
asg15
(lp240
(iBasisSets
PrimitiveFunction
p241
(dp242
g19
F417.60000000000002
sg20
S'P'
p243
sba(iBasisSets
PrimitiveFunction
p244
(dp245
g19
F98.329999999999998
sg20
S'P'
p246
sba(iBasisSets
PrimitiveFunction
p247
(dp248
g19
F31.039999999999999
sg20
S'P'
p249
sba(iBasisSets
PrimitiveFunction
p250
(dp251
g19
F11.19
sg20
S'P'
p252
sba(iBasisSets
PrimitiveFunction
p253
(dp254
g19
F4.2489999999999997
sg20
S'P'
p255
sba(iBasisSets
PrimitiveFunction
p256
(dp257
g19
F1.6240000000000001
sg20
S'P'
p258
sba(iBasisSets
PrimitiveFunction
p259
(dp260
g19
F0.53220000000000001
sg20
S'P'
p261
sba(iBasisSets
PrimitiveFunction
p262
(dp263
g19
F0.16200000000000001
sg20
S'P'
p264
sbasg20
S'P'
p265
sba(iBasisSets
BasisFunction
p266
(dp267
g13
(lp268
F1.0
asg15
(lp269
(iBasisSets
PrimitiveFunction
p270
(dp271
g19
F0.16200000000000001
sg20
S'P'
p272
sbasg20
S'P'
p273
sba(iBasisSets
BasisFunction
p274
(dp275
g13
(lp276
F1.0
asg15
(lp277
(iBasisSets
PrimitiveFunction
p278
(dp279
g19
F0.046600000000000003
sg20
S'P'
p280
sbasg20
S'P'
p281
sbasg31
(lp282
(iBasisSets
BasisFunction
p283
(dp284
g13
(lp285
F0.000241153
aF0.0018709499999999999
aF0.0097082699999999997
aF0.039315299999999997
aF0.12593199999999999
aF0.29934100000000002
aF0.42188599999999998
aF0.237201
aF0.019153099999999999
aF-0.0033479199999999999
aF0.00092988299999999995
aF-0.00039637899999999998
asg15
(lp286
(iBasisSets
PrimitiveFunction
p287
(dp288
g19
F127900.0
sg20
S'S'
p289
sba(iBasisSets
PrimitiveFunction
p290
(dp291
g19
F19170.0
sg20
S'S'
p292
sba(iBasisSets
PrimitiveFunction
p293
(dp294
g19
F4363.0
sg20
S'S'
p295
sba(iBasisSets
PrimitiveFunction
p296
(dp297
g19
F1236.0
sg20
S'S'
p298
sba(iBasisSets
PrimitiveFunction
p299
(dp300
g19
F403.60000000000002
sg20
S'S'
p301
sba(iBasisSets
PrimitiveFunction
p302
(dp303
g19
F145.69999999999999
sg20
S'S'
p304
sba(iBasisSets
PrimitiveFunction
p305
(dp306
g19
F56.810000000000002
sg20
S'S'
p307
sba(iBasisSets
PrimitiveFunction
p308
(dp309
g19
F23.23
sg20
S'S'
p310
sba(iBasisSets
PrimitiveFunction
p311
(dp312
g19
F6.6440000000000001
sg20
S'S'
p313
sba(iBasisSets
PrimitiveFunction
p314
(dp315
g19
F2.5750000000000002
sg20
S'S'
p316
sba(iBasisSets
PrimitiveFunction
p317
(dp318
g19
F0.53710000000000002
sg20
S'S'
p319
sba(iBasisSets
PrimitiveFunction
p320
(dp321
g19
F0.1938
sg20
S'S'
p322
sbasg20
S'S'
p323
sba(iBasisSets
BasisFunction
p324
(dp325
g13
(lp326
F-6.7892199999999993e-05
aF-0.00052183600000000002
aF-0.0027651300000000002
aF-0.011153700000000001
aF-0.038591899999999998
aF-0.099484799999999998
aF-0.20139199999999999
aF-0.13031300000000001
aF0.50944299999999998
aF0.61072499999999996
aF0.042154900000000002
aF-0.0092342699999999993
asg15
(lp327
(iBasisSets
PrimitiveFunction
p328
(dp329
g19
F127900.0
sg20
S'S'
p330
sba(iBasisSets
PrimitiveFunction
p331
(dp332
g19
F19170.0
sg20
S'S'
p333
sba(iBasisSets
PrimitiveFunction
p334
(dp335
g19
F4363.0
sg20
S'S'
p336
sba(iBasisSets
PrimitiveFunction
p337
(dp338
g19
F1236.0
sg20
S'S'
p339
sba(iBasisSets
PrimitiveFunction
p340
(dp341
g19
F403.60000000000002
sg20
S'S'
p342
sba(iBasisSets
PrimitiveFunction
p343
(dp344
g19
F145.69999999999999
sg20
S'S'
p345
sba(iBasisSets
PrimitiveFunction
p346
(dp347
g19
F56.810000000000002
sg20
S'S'
p348
sba(iBasisSets
PrimitiveFunction
p349
(dp350
g19
F23.23
sg20
S'S'
p351
sba(iBasisSets
PrimitiveFunction
p352
(dp353
g19
F6.6440000000000001
sg20
S'S'
p354
sba(iBasisSets
PrimitiveFunction
p355
(dp356
g19
F2.5750000000000002
sg20
S'S'
p357
sba(iBasisSets
PrimitiveFunction
p358
(dp359
g19
F0.53710000000000002
sg20
S'S'
p360
sba(iBasisSets
PrimitiveFunction
p361
(dp362
g19
F0.1938
sg20
S'S'
p363
sbasg20
S'S'
p364
sba(iBasisSets
BasisFunction
p365
(dp366
g13
(lp367
F2.0498600000000001e-05
aF0.00015829799999999999
aF0.00083363899999999995
aF0.0033988
aF0.0116738
aF0.030962199999999999
aF0.062953300000000004
aF0.046025700000000003
aF-0.21931200000000001
aF-0.408773
aF0.63846499999999995
aF0.56236200000000003
asg15
(lp368
(iBasisSets
PrimitiveFunction
p369
(dp370
g19
F127900.0
sg20
S'S'
p371
sba(iBasisSets
PrimitiveFunction
p372
(dp373
g19
F19170.0
sg20
S'S'
p374
sba(iBasisSets
PrimitiveFunction
p375
(dp376
g19
F4363.0
sg20
S'S'
p377
sba(iBasisSets
PrimitiveFunction
p378
(dp379
g19
F1236.0
sg20
S'S'
p380
sba(iBasisSets
PrimitiveFunction
p381
(dp382
g19
F403.60000000000002
sg20
S'S'
p383
sba(iBasisSets
PrimitiveFunction
p384
(dp385
g19
F145.69999999999999
sg20
S'S'
p386
sba(iBasisSets
PrimitiveFunction
p387
(dp388
g19
F56.810000000000002
sg20
S'S'
p389
sba(iBasisSets
PrimitiveFunction
p390
(dp391
g19
F23.23
sg20
S'S'
p392
sba(iBasisSets
PrimitiveFunction
p393
(dp394
g19
F6.6440000000000001
sg20
S'S'
p395
sba(iBasisSets
PrimitiveFunction
p396
(dp397
g19
F2.5750000000000002
sg20
S'S'
p398
sba(iBasisSets
PrimitiveFunction
p399
(dp400
g19
F0.53710000000000002
sg20
S'S'
p401
sba(iBasisSets
PrimitiveFunction
p402
(dp403
g19
F0.1938
sg20
S'S'
p404
sbasg20
S'S'
p405
sba(iBasisSets
BasisFunction
p406
(dp407
g13
(lp408
F1.0
asg15
(lp409
(iBasisSets
PrimitiveFunction
p410
(dp411
g19
F0.1938
sg20
S'S'
p412
sbasg20
S'S'
p413
sba(iBasisSets
BasisFunction
p414
(dp415
g13
(lp416
F1.0
asg15
(lp417
(iBasisSets
PrimitiveFunction
p418
(dp419
g19
F0.0608
sg20
S'S'
p420
sbasg20
S'S'
p421
sbasg185
(lp422
(iBasisSets
BasisFunction
p423
(dp424
g13
(lp425
F1.0
asg15
(lp426
(iBasisSets
PrimitiveFunction
p427
(dp428
g19
F3.6520000000000001
sg20
S'D'
p429
sbasg20
S'D'
p430
sba(iBasisSets
BasisFunction
p431
(dp432
g13
(lp433
F1.0
asg15
(lp434
(iBasisSets
PrimitiveFunction
p435
(dp436
g19
F0.60299999999999998
sg20
S'D'
p437
sbasg20
S'D'
p438
sba(iBasisSets
BasisFunction
p439
(dp440
g13
(lp441
F1.0
asg15
(lp442
(iBasisSets
PrimitiveFunction
p443
(dp444
g19
F0.19800000000000001
sg20
S'D'
p445
sbasg20
S'D'
p446
sbassbssb.