(ibasisset
BasisSet
p0
(dp1
S'basisDictionary'
p2
(dp3
S'H'
p4
(iBasisSets
AtomBasis
p5
(dp6
S'basisDictionary'
p7
(dp8
S'P'
p9
(lp10
(iBasisSets
BasisFunction
p11
(dp12
S'coefficientList'
p13
(lp14
F1.0
asS'primitiveList'
p15
(lp16
(iBasisSets
PrimitiveFunction
p17
(dp18
S'exponent'
p19
F0.72699999999999998
sS'angularMomentum'
p20
S'P'
p21
sbasg20
S'P'
p22
sba(iBasisSets
BasisFunction
p23
(dp24
g13
(lp25
F1.0
asg15
(lp26
(iBasisSets
PrimitiveFunction
p27
(dp28
g19
F0.14099999999999999
sg20
S'P'
p29
sbasg20
S'P'
p30
sbasS'S'
p31
(lp32
(iBasisSets
BasisFunction
p33
(dp34
g13
(lp35
F1.0
asg15
(lp36
(iBasisSets
PrimitiveFunction
p37
(dp38
g19
F13.01
sg20
S'S'
p39
sbasg20
S'S'
p40
sba(iBasisSets
BasisFunction
p41
(dp42
g13
(lp43
F1.0
asg15
(lp44
(iBasisSets
PrimitiveFunction
p45
(dp46
g19
F1.962
sg20
S'S'
p47
sbasg20
S'S'
p48
sba(iBasisSets
BasisFunction
p49
(dp50
g13
(lp51
F1.0
asg15
(lp52
(iBasisSets
PrimitiveFunction
p53
(dp54
g19
F0.4446
sg20
S'S'
p55
sbasg20
S'S'
p56
sba(iBasisSets
BasisFunction
p57
(dp58
g13
(lp59
F1.0
asg15
(lp60
(iBasisSets
PrimitiveFunction
p61
(dp62
g19
F0.122
sg20
S'S'
p63
sbasg20
S'S'
p64
sba(iBasisSets
BasisFunction
p65
(dp66
g13
(lp67
F1.0
asg15
(lp68
(iBasisSets
PrimitiveFunction
p69
(dp70
g19
F0.029739999999999999
sg20
S'S'
p71
sbasg20
S'S'
p72
sbassbsS'C'
p73
(iBasisSets
AtomBasis
p74
(dp75
g7
(dp76
g9
(lp77
(iBasisSets
BasisFunction
p78
(dp79
g13
(lp80
F1.0
asg15
(lp81
(iBasisSets
PrimitiveFunction
p82
(dp83
g19
F9.4390000000000001
sg20
S'P'
p84
sbasg20
S'P'
p85
sba(iBasisSets
BasisFunction
p86
(dp87
g13
(lp88
F1.0
asg15
(lp89
(iBasisSets
PrimitiveFunction
p90
(dp91
g19
F2.0019999999999998
sg20
S'P'
p92
sbasg20
S'P'
p93
sba(iBasisSets
BasisFunction
p94
(dp95
g13
(lp96
F1.0
asg15
(lp97
(iBasisSets
PrimitiveFunction
p98
(dp99
g19
F0.54559999999999997
sg20
S'P'
p100
sbasg20
S'P'
p101
sba(iBasisSets
BasisFunction
p102
(dp103
g13
(lp104
F1.0
asg15
(lp105
(iBasisSets
PrimitiveFunction
p106
(dp107
g19
F0.1517
sg20
S'P'
p108
sbasg20
S'P'
p109
sba(iBasisSets
BasisFunction
p110
(dp111
g13
(lp112
F1.0
asg15
(lp113
(iBasisSets
PrimitiveFunction
p114
(dp115
g19
F0.040410000000000001
sg20
S'P'
p116
sbasg20
S'P'
p117
sbasg31
(lp118
(iBasisSets
BasisFunction
p119
(dp120
g13
(lp121
F1.0
asg15
(lp122
(iBasisSets
PrimitiveFunction
p123
(dp124
g19
F6665.0
sg20
S'S'
p125
sbasg20
S'S'
p126
sba(iBasisSets
BasisFunction
p127
(dp128
g13
(lp129
F1.0
asg15
(lp130
(iBasisSets
PrimitiveFunction
p131
(dp132
g19
F1000.0
sg20
S'S'
p133
sbasg20
S'S'
p134
sba(iBasisSets
BasisFunction
p135
(dp136
g13
(lp137
F1.0
asg15
(lp138
(iBasisSets
PrimitiveFunction
p139
(dp140
g19
F228.0
sg20
S'S'
p141
sbasg20
S'S'
p142
sba(iBasisSets
BasisFunction
p143
(dp144
g13
(lp145
F1.0
asg15
(lp146
(iBasisSets
PrimitiveFunction
p147
(dp148
g19
F64.709999999999994
sg20
S'S'
p149
sbasg20
S'S'
p150
sba(iBasisSets
BasisFunction
p151
(dp152
g13
(lp153
F1.0
asg15
(lp154
(iBasisSets
PrimitiveFunction
p155
(dp156
g19
F21.059999999999999
sg20
S'S'
p157
sbasg20
S'S'
p158
sba(iBasisSets
BasisFunction
p159
(dp160
g13
(lp161
F1.0
asg15
(lp162
(iBasisSets
PrimitiveFunction
p163
(dp164
g19
F7.4950000000000001
sg20
S'S'
p165
sbasg20
S'S'
p166
sba(iBasisSets
BasisFunction
p167
(dp168
g13
(lp169
F1.0
asg15
(lp170
(iBasisSets
PrimitiveFunction
p171
(dp172
g19
F2.7970000000000002
sg20
S'S'
p173
sbasg20
S'S'
p174
sba(iBasisSets
BasisFunction
p175
(dp176
g13
(lp177
F1.0
asg15
(lp178
(iBasisSets
PrimitiveFunction
p179
(dp180
g19
F0.52149999999999996
sg20
S'S'
p181
sbasg20
S'S'
p182
sba(iBasisSets
BasisFunction
p183
(dp184
g13
(lp185
F1.0
asg15
(lp186
(iBasisSets
PrimitiveFunction
p187
(dp188
g19
F0.15959999999999999
sg20
S'S'
p189
sbasg20
S'S'
p190
sba(iBasisSets
BasisFunction
p191
(dp192
g13
(lp193
F1.0
asg15
(lp194
(iBasisSets
PrimitiveFunction
p195
(dp196
g19
F0.046899999999999997
sg20
S'S'
p197
sbasg20
S'S'
p198
sbasS'D'
p199
(lp200
(iBasisSets
BasisFunction
p201
(dp202
g13
(lp203
F1.0
asg15
(lp204
(iBasisSets
PrimitiveFunction
p205
(dp206
g19
F0.55000000000000004
sg20
S'D'
p207
sbasg20
S'D'
p208
sba(iBasisSets
BasisFunction
p209
(dp210
g13
(lp211
F1.0
asg15
(lp212
(iBasisSets
PrimitiveFunction
p213
(dp214
g19
F0.151
sg20
S'D'
p215
sbasg20
S'D'
p216
sbassbsS'O'
p217
(iBasisSets
AtomBasis
p218
(dp219
g7
(dp220
g9
(lp221
(iBasisSets
BasisFunction
p222
(dp223
g13
(lp224
F1.0
asg15
(lp225
(iBasisSets
PrimitiveFunction
p226
(dp227
g19
F17.699999999999999
sg20
S'P'
p228
sbasg20
S'P'
p229
sba(iBasisSets
BasisFunction
p230
(dp231
g13
(lp232
F1.0
asg15
(lp233
(iBasisSets
PrimitiveFunction
p234
(dp235
g19
F3.8540000000000001
sg20
S'P'
p236
sbasg20
S'P'
p237
sba(iBasisSets
BasisFunction
p238
(dp239
g13
(lp240
F1.0
asg15
(lp241
(iBasisSets
PrimitiveFunction
p242
(dp243
g19
F1.046
sg20
S'P'
p244
sbasg20
S'P'
p245
sba(iBasisSets
BasisFunction
p246
(dp247
g13
(lp248
F1.0
asg15
(lp249
(iBasisSets
PrimitiveFunction
p250
(dp251
g19
F0.27529999999999999
sg20
S'P'
p252
sbasg20
S'P'
p253
sba(iBasisSets
BasisFunction
p254
(dp255
g13
(lp256
F1.0
asg15
(lp257
(iBasisSets
PrimitiveFunction
p258
(dp259
g19
F0.068559999999999996
sg20
S'P'
p260
sbasg20
S'P'
p261
sbasg31
(lp262
(iBasisSets
BasisFunction
p263
(dp264
g13
(lp265
F1.0
asg15
(lp266
(iBasisSets
PrimitiveFunction
p267
(dp268
g19
F11720.0
sg20
S'S'
p269
sbasg20
S'S'
p270
sba(iBasisSets
BasisFunction
p271
(dp272
g13
(lp273
F1.0
asg15
(lp274
(iBasisSets
PrimitiveFunction
p275
(dp276
g19
F1759.0
sg20
S'S'
p277
sbasg20
S'S'
p278
sba(iBasisSets
BasisFunction
p279
(dp280
g13
(lp281
F1.0
asg15
(lp282
(iBasisSets
PrimitiveFunction
p283
(dp284
g19
F400.80000000000001
sg20
S'S'
p285
sbasg20
S'S'
p286
sba(iBasisSets
BasisFunction
p287
(dp288
g13
(lp289
F1.0
asg15
(lp290
(iBasisSets
PrimitiveFunction
p291
(dp292
g19
F113.7
sg20
S'S'
p293
sbasg20
S'S'
p294
sba(iBasisSets
BasisFunction
p295
(dp296
g13
(lp297
F1.0
asg15
(lp298
(iBasisSets
PrimitiveFunction
p299
(dp300
g19
F37.030000000000001
sg20
S'S'
p301
sbasg20
S'S'
p302
sba(iBasisSets
BasisFunction
p303
(dp304
g13
(lp305
F1.0
asg15
(lp306
(iBasisSets
PrimitiveFunction
p307
(dp308
g19
F13.27
sg20
S'S'
p309
sbasg20
S'S'
p310
sba(iBasisSets
BasisFunction
p311
(dp312
g13
(lp313
F1.0
asg15
(lp314
(iBasisSets
PrimitiveFunction
p315
(dp316
g19
F5.0250000000000004
sg20
S'S'
p317
sbasg20
S'S'
p318
sba(iBasisSets
BasisFunction
p319
(dp320
g13
(lp321
F1.0
asg15
(lp322
(iBasisSets
PrimitiveFunction
p323
(dp324
g19
F1.0129999999999999
sg20
S'S'
p325
sbasg20
S'S'
p326
sba(iBasisSets
BasisFunction
p327
(dp328
g13
(lp329
F1.0
asg15
(lp330
(iBasisSets
PrimitiveFunction
p331
(dp332
g19
F0.30230000000000001
sg20
S'S'
p333
sbasg20
S'S'
p334
sba(iBasisSets
BasisFunction
p335
(dp336
g13
(lp337
F1.0
asg15
(lp338
(iBasisSets
PrimitiveFunction
p339
(dp340
g19
F0.078960000000000002
sg20
S'S'
p341
sbasg20
S'S'
p342
sbasg199
(lp343
(iBasisSets
BasisFunction
p344
(dp345
g13
(lp346
F1.0
asg15
(lp347
(iBasisSets
PrimitiveFunction
p348
(dp349
g19
F1.1850000000000001
sg20
S'D'
p350
sbasg20
S'D'
p351
sba(iBasisSets
BasisFunction
p352
(dp353
g13
(lp354
F1.0
asg15
(lp355
(iBasisSets
PrimitiveFunction
p356
(dp357
g19
F0.33200000000000002
sg20
S'D'
p358
sbasg20
S'D'
p359
sbassbsS'N'
p360
(iBasisSets
AtomBasis
p361
(dp362
g7
(dp363
g9
(lp364
(iBasisSets
BasisFunction
p365
(dp366
g13
(lp367
F1.0
asg15
(lp368
(iBasisSets
PrimitiveFunction
p369
(dp370
g19
F13.550000000000001
sg20
S'P'
p371
sbasg20
S'P'
p372
sba(iBasisSets
BasisFunction
p373
(dp374
g13
(lp375
F1.0
asg15
(lp376
(iBasisSets
PrimitiveFunction
p377
(dp378
g19
F2.9169999999999998
sg20
S'P'
p379
sbasg20
S'P'
p380
sba(iBasisSets
BasisFunction
p381
(dp382
g13
(lp383
F1.0
asg15
(lp384
(iBasisSets
PrimitiveFunction
p385
(dp386
g19
F0.79730000000000001
sg20
S'P'
p387
sbasg20
S'P'
p388
sba(iBasisSets
BasisFunction
p389
(dp390
g13
(lp391
F1.0
asg15
(lp392
(iBasisSets
PrimitiveFunction
p393
(dp394
g19
F0.2185
sg20
S'P'
p395
sbasg20
S'P'
p396
sba(iBasisSets
BasisFunction
p397
(dp398
g13
(lp399
F1.0
asg15
(lp400
(iBasisSets
PrimitiveFunction
p401
(dp402
g19
F0.05611
sg20
S'P'
p403
sbasg20
S'P'
p404
sbasg31
(lp405
(iBasisSets
BasisFunction
p406
(dp407
g13
(lp408
F1.0
asg15
(lp409
(iBasisSets
PrimitiveFunction
p410
(dp411
g19
F9046.0
sg20
S'S'
p412
sbasg20
S'S'
p413
sba(iBasisSets
BasisFunction
p414
(dp415
g13
(lp416
F1.0
asg15
(lp417
(iBasisSets
PrimitiveFunction
p418
(dp419
g19
F1357.0
sg20
S'S'
p420
sbasg20
S'S'
p421
sba(iBasisSets
BasisFunction
p422
(dp423
g13
(lp424
F1.0
asg15
(lp425
(iBasisSets
PrimitiveFunction
p426
(dp427
g19
F309.30000000000001
sg20
S'S'
p428
sbasg20
S'S'
p429
sba(iBasisSets
BasisFunction
p430
(dp431
g13
(lp432
F1.0
asg15
(lp433
(iBasisSets
PrimitiveFunction
p434
(dp435
g19
F87.730000000000004
sg20
S'S'
p436
sbasg20
S'S'
p437
sba(iBasisSets
BasisFunction
p438
(dp439
g13
(lp440
F1.0
asg15
(lp441
(iBasisSets
PrimitiveFunction
p442
(dp443
g19
F28.559999999999999
sg20
S'S'
p444
sbasg20
S'S'
p445
sba(iBasisSets
BasisFunction
p446
(dp447
g13
(lp448
F1.0
asg15
(lp449
(iBasisSets
PrimitiveFunction
p450
(dp451
g19
F10.210000000000001
sg20
S'S'
p452
sbasg20
S'S'
p453
sba(iBasisSets
BasisFunction
p454
(dp455
g13
(lp456
F1.0
asg15
(lp457
(iBasisSets
PrimitiveFunction
p458
(dp459
g19
F3.8380000000000001
sg20
S'S'
p460
sbasg20
S'S'
p461
sba(iBasisSets
BasisFunction
p462
(dp463
g13
(lp464
F1.0
asg15
(lp465
(iBasisSets
PrimitiveFunction
p466
(dp467
g19
F0.74660000000000004
sg20
S'S'
p468
sbasg20
S'S'
p469
sba(iBasisSets
BasisFunction
p470
(dp471
g13
(lp472
F1.0
asg15
(lp473
(iBasisSets
PrimitiveFunction
p474
(dp475
g19
F0.2248
sg20
S'S'
p476
sbasg20
S'S'
p477
sba(iBasisSets
BasisFunction
p478
(dp479
g13
(lp480
F1.0
asg15
(lp481
(iBasisSets
PrimitiveFunction
p482
(dp483
g19
F0.061240000000000003
sg20
S'S'
p484
sbasg20
S'S'
p485
sbasg199
(lp486
(iBasisSets
BasisFunction
p487
(dp488
g13
(lp489
F1.0
asg15
(lp490
(iBasisSets
PrimitiveFunction
p491
(dp492
g19
F0.81699999999999995
sg20
S'D'
p493
sbasg20
S'D'
p494
sba(iBasisSets
BasisFunction
p495
(dp496
g13
(lp497
F1.0
asg15
(lp498
(iBasisSets
PrimitiveFunction
p499
(dp500
g19
F0.23000000000000001
sg20
S'D'
p501
sbasg20
S'D'
p502
sbassbssb.