(ibasisset
BasisSet
p0
(dp1
S'basisDictionary'
p2
(dp3
S'C'
p4
(lp5
(ibasisset
Shell
p6
(dp7
S'angularMomentum'
p8
S'S'
p9
sS'exponents'
p10
(lp11
F96770.0
aF14500.0
aF3300.0
aF935.79999999999995
aF306.19999999999999
aF111.3
aF43.899999999999999
aF18.399999999999999
aF8.0540000000000003
aF3.637
asS'coefficients'
p12
(lp13
(lp14
F2.5000000000000001e-05
aF0.00019000000000000001
aF0.001
aF0.0041830000000000001
aF0.014859000000000001
aF0.045301000000000001
aF0.116504
aF0.24024899999999999
aF0.35879899999999998
aF0.29394100000000001
aa(lp15
F-5.0000000000000004e-06
aF-4.1e-05
aF-0.000213
aF-0.00089700000000000001
aF-0.0031870000000000002
aF-0.0099609999999999994
aF-0.026374999999999999
aF-0.060000999999999999
aF-0.106825
aF-0.14416599999999999
aasS'atom'
p16
S' C'
p17
sba(ibasisset
Shell
p18
(dp19
g8
S'S'
p20
sg10
(lp21
F1.6559999999999999
asg12
(lp22
(lp23
F1.0
aasg16
S' C'
p24
sba(ibasisset
Shell
p25
(dp26
g8
S'S'
p27
sg10
(lp28
F0.63329999999999997
asg12
(lp29
(lp30
F1.0
aasg16
S' C'
p31
sba(ibasisset
Shell
p32
(dp33
g8
S'S'
p34
sg10
(lp35
F0.2545
asg12
(lp36
(lp37
F1.0
aasg16
S' C'
p38
sba(ibasisset
Shell
p39
(dp40
g8
S'S'
p41
sg10
(lp42
F0.1019
asg12
(lp43
(lp44
F1.0
aasg16
S' C'
p45
sba(ibasisset
Shell
p46
(dp47
g8
S'P'
p48
sg10
(lp49
F101.8
aF24.039999999999999
aF7.5709999999999997
aF2.7320000000000002
asg12
(lp50
(lp51
F0.00089099999999999997
aF0.0069760000000000004
aF0.031669000000000003
aF0.104006
aasg16
S' C'
p52
sba(ibasisset
Shell
p53
(dp54
g8
S'P'
p55
sg10
(lp56
F1.085
asg12
(lp57
(lp58
F1.0
aasg16
S' C'
p59
sba(ibasisset
Shell
p60
(dp61
g8
S'P'
p62
sg10
(lp63
F0.4496
asg12
(lp64
(lp65
F1.0
aasg16
S' C'
p66
sba(ibasisset
Shell
p67
(dp68
g8
S'P'
p69
sg10
(lp70
F0.18759999999999999
asg12
(lp71
(lp72
F1.0
aasg16
S' C'
p73
sba(ibasisset
Shell
p74
(dp75
g8
S'P'
p76
sg10
(lp77
F0.076060000000000003
asg12
(lp78
(lp79
F1.0
aasg16
S' C'
p80
sba(ibasisset
Shell
p81
(dp82
g8
S'D'
p83
sg10
(lp84
F3.1339999999999999
asg12
(lp85
(lp86
F1.0
aasg16
S' C'
p87
sba(ibasisset
Shell
p88
(dp89
g8
S'D'
p90
sg10
(lp91
F1.2330000000000001
asg12
(lp92
(lp93
F1.0
aasg16
S' C'
p94
sba(ibasisset
Shell
p95
(dp96
g8
S'D'
p97
sg10
(lp98
F0.48499999999999999
asg12
(lp99
(lp100
F1.0
aasg16
S' C'
p101
sba(ibasisset
Shell
p102
(dp103
g8
S'D'
p104
sg10
(lp105
F0.191
asg12
(lp106
(lp107
F1.0
aasg16
S' C'
p108
sba(ibasisset
Shell
p109
(dp110
g8
S'F'
p111
sg10
(lp112
F2.0059999999999998
asg12
(lp113
(lp114
F1.0
aasg16
S' C'
p115
sba(ibasisset
Shell
p116
(dp117
g8
S'F'
p118
sg10
(lp119
F0.83799999999999997
asg12
(lp120
(lp121
F1.0
aasg16
S' C'
p122
sba(ibasisset
Shell
p123
(dp124
g8
S'F'
p125
sg10
(lp126
F0.34999999999999998
asg12
(lp127
(lp128
F1.0
aasg16
S' C'
p129
sba(ibasisset
Shell
p130
(dp131
g8
S'G'
p132
sg10
(lp133
F1.7529999999999999
asg12
(lp134
(lp135
F1.0
aasg16
S' C'
p136
sba(ibasisset
Shell
p137
(dp138
g8
S'G'
p139
sg10
(lp140
F0.67800000000000005
asg12
(lp141
(lp142
F1.0
aasg16
S' C'
p143
sba(ibasisset
Shell
p144
(dp145
g8
S'H'
p146
sg10
(lp147
F1.2589999999999999
asg12
(lp148
(lp149
F1.0
aasg16
S' C'
p150
sba(ibasisset
Shell
p151
(dp152
g8
S'S'
p153
sg10
(lp154
F0.039399999999999998
asg12
(lp155
(lp156
F1.0
aasg16
S' C'
p157
sba(ibasisset
Shell
p158
(dp159
g8
S'P'
p160
sg10
(lp161
F0.027199999999999998
asg12
(lp162
(lp163
F1.0
aasg16
S' C'
p164
sba(ibasisset
Shell
p165
(dp166
g8
S'D'
p167
sg10
(lp168
F0.070099999999999996
asg12
(lp169
(lp170
F1.0
aasg16
S' C'
p171
sba(ibasisset
Shell
p172
(dp173
g8
S'F'
p174
sg10
(lp175
F0.13800000000000001
asg12
(lp176
(lp177
F1.0
aasg16
S' C'
p178
sba(ibasisset
Shell
p179
(dp180
g8
S'G'
p181
sg10
(lp182
F0.31900000000000001
asg12
(lp183
(lp184
F1.0
aasg16
S' C'
p185
sba(ibasisset
Shell
p186
(dp187
g8
S'H'
p188
sg10
(lp189
F0.58599999999999997
asg12
(lp190
(lp191
F1.0
aasg16
S' C'
p192
sbasS'F'
p193
(lp194
(ibasisset
Shell
p195
(dp196
g8
S'S'
p197
sg10
(lp198
F211400.0
aF31660.0
aF7202.0
aF2040.0
aF666.39999999999998
aF242.0
aF95.530000000000001
aF40.229999999999997
aF17.719999999999999
aF8.0050000000000008
asg12
(lp199
(lp200
F2.5999999999999998e-05
aF0.00020100000000000001
aF0.0010560000000000001
aF0.0044320000000000002
aF0.015765999999999999
aF0.048112000000000002
aF0.12323199999999999
aF0.25151899999999999
aF0.36452499999999999
aF0.27976600000000001
aa(lp201
F-6.0000000000000002e-06
aF-4.6999999999999997e-05
aF-0.00024399999999999999
aF-0.001031
aF-0.0036830000000000001
aF-0.011513000000000001
aF-0.030662999999999999
aF-0.069571999999999995
aF-0.123992
aF-0.15021399999999999
aasg16
S' F'
p202
sba(ibasisset
Shell
p203
(dp204
g8
S'S'
p205
sg10
(lp206
F3.5379999999999998
asg12
(lp207
(lp208
F1.0
aasg16
S' F'
p209
sba(ibasisset
Shell
p210
(dp211
g8
S'S'
p212
sg10
(lp213
F1.458
asg12
(lp214
(lp215
F1.0
aasg16
S' F'
p216
sba(ibasisset
Shell
p217
(dp218
g8
S'S'
p219
sg10
(lp220
F0.5887
asg12
(lp221
(lp222
F1.0
aasg16
S' F'
p223
sba(ibasisset
Shell
p224
(dp225
g8
S'S'
p226
sg10
(lp227
F0.2324
asg12
(lp228
(lp229
F1.0
aasg16
S' F'
p230
sba(ibasisset
Shell
p231
(dp232
g8
S'P'
p233
sg10
(lp234
F241.90000000000001
aF57.170000000000002
aF18.129999999999999
aF6.6239999999999997
asg12
(lp235
(lp236
F0.0010020000000000001
aF0.0080540000000000004
aF0.038047999999999998
aF0.123779
aasg16
S' F'
p237
sba(ibasisset
Shell
p238
(dp239
g8
S'P'
p240
sg10
(lp241
F2.6219999999999999
asg12
(lp242
(lp243
F1.0
aasg16
S' F'
p244
sba(ibasisset
Shell
p245
(dp246
g8
S'P'
p247
sg10
(lp248
F1.0569999999999999
asg12
(lp249
(lp250
F1.0
aasg16
S' F'
p251
sba(ibasisset
Shell
p252
(dp253
g8
S'P'
p254
sg10
(lp255
F0.41760000000000003
asg12
(lp256
(lp257
F1.0
aasg16
S' F'
p258
sba(ibasisset
Shell
p259
(dp260
g8
S'P'
p261
sg10
(lp262
F0.15740000000000001
asg12
(lp263
(lp264
F1.0
aasg16
S' F'
p265
sba(ibasisset
Shell
p266
(dp267
g8
S'D'
p268
sg10
(lp269
F7.7599999999999998
asg12
(lp270
(lp271
F1.0
aasg16
S' F'
p272
sba(ibasisset
Shell
p273
(dp274
g8
S'D'
p275
sg10
(lp276
F3.032
asg12
(lp277
(lp278
F1.0
aasg16
S' F'
p279
sba(ibasisset
Shell
p280
(dp281
g8
S'D'
p282
sg10
(lp283
F1.1850000000000001
asg12
(lp284
(lp285
F1.0
aasg16
S' F'
p286
sba(ibasisset
Shell
p287
(dp288
g8
S'D'
p289
sg10
(lp290
F0.46300000000000002
asg12
(lp291
(lp292
F1.0
aasg16
S' F'
p293
sba(ibasisset
Shell
p294
(dp295
g8
S'F'
p296
sg10
(lp297
F5.3979999999999997
asg12
(lp298
(lp299
F1.0
aasg16
S' F'
p300
sba(ibasisset
Shell
p301
(dp302
g8
S'F'
p303
sg10
(lp304
F2.0779999999999998
asg12
(lp305
(lp306
F1.0
aasg16
S' F'
p307
sba(ibasisset
Shell
p308
(dp309
g8
S'F'
p310
sg10
(lp311
F0.80000000000000004
asg12
(lp312
(lp313
F1.0
aasg16
S' F'
p314
sba(ibasisset
Shell
p315
(dp316
g8
S'G'
p317
sg10
(lp318
F4.3380000000000001
asg12
(lp319
(lp320
F1.0
aasg16
S' F'
p321
sba(ibasisset
Shell
p322
(dp323
g8
S'G'
p324
sg10
(lp325
F1.5129999999999999
asg12
(lp326
(lp327
F1.0
aasg16
S' F'
p328
sba(ibasisset
Shell
p329
(dp330
g8
S'H'
p331
sg10
(lp332
F2.9950000000000001
asg12
(lp333
(lp334
F1.0
aasg16
S' F'
p335
sba(ibasisset
Shell
p336
(dp337
g8
S'S'
p338
sg10
(lp339
F0.080600000000000005
asg12
(lp340
(lp341
F1.0
aasg16
S' F'
p342
sba(ibasisset
Shell
p343
(dp344
g8
S'P'
p345
sg10
(lp346
F0.055
asg12
(lp347
(lp348
F1.0
aasg16
S' F'
p349
sba(ibasisset
Shell
p350
(dp351
g8
S'D'
p352
sg10
(lp353
F0.17199999999999999
asg12
(lp354
(lp355
F1.0
aasg16
S' F'
p356
sba(ibasisset
Shell
p357
(dp358
g8
S'F'
p359
sg10
(lp360
F0.33100000000000002
asg12
(lp361
(lp362
F1.0
aasg16
S' F'
p363
sba(ibasisset
Shell
p364
(dp365
g8
S'G'
p366
sg10
(lp367
F0.66300000000000003
asg12
(lp368
(lp369
F1.0
aasg16
S' F'
p370
sba(ibasisset
Shell
p371
(dp372
g8
S'H'
p373
sg10
(lp374
F1.3260000000000001
asg12
(lp375
(lp376
F1.0
aasg16
S' F'
p377
sbasS'H'
p378
(lp379
(ibasisset
Shell
p380
(dp381
g8
S'S'
p382
sg10
(lp383
F402.0
aF60.240000000000002
aF13.73
aF3.9049999999999998
asg12
(lp384
(lp385
F0.00027900000000000001
aF0.0021649999999999998
aF0.011200999999999999
aF0.044878000000000001
aasg16
S' H'
p386
sba(ibasisset
Shell
p387
(dp388
g8
S'S'
p389
sg10
(lp390
F1.2829999999999999
asg12
(lp391
(lp392
F1.0
aasg16
S' H'
p393
sba(ibasisset
Shell
p394
(dp395
g8
S'S'
p396
sg10
(lp397
F0.46550000000000002
asg12
(lp398
(lp399
F1.0
aasg16
S' H'
p400
sba(ibasisset
Shell
p401
(dp402
g8
S'S'
p403
sg10
(lp404
F0.18110000000000001
asg12
(lp405
(lp406
F1.0
aasg16
S' H'
p407
sba(ibasisset
Shell
p408
(dp409
g8
S'S'
p410
sg10
(lp411
F0.072789999999999994
asg12
(lp412
(lp413
F1.0
aasg16
S' H'
p414
sba(ibasisset
Shell
p415
(dp416
g8
S'P'
p417
sg10
(lp418
F4.516
asg12
(lp419
(lp420
F1.0
aasg16
S' H'
p421
sba(ibasisset
Shell
p422
(dp423
g8
S'P'
p424
sg10
(lp425
F1.712
asg12
(lp426
(lp427
F1.0
aasg16
S' H'
p428
sba(ibasisset
Shell
p429
(dp430
g8
S'P'
p431
sg10
(lp432
F0.64900000000000002
asg12
(lp433
(lp434
F1.0
aasg16
S' H'
p435
sba(ibasisset
Shell
p436
(dp437
g8
S'P'
p438
sg10
(lp439
F0.246
asg12
(lp440
(lp441
F1.0
aasg16
S' H'
p442
sba(ibasisset
Shell
p443
(dp444
g8
S'D'
p445
sg10
(lp446
F2.9500000000000002
asg12
(lp447
(lp448
F1.0
aasg16
S' H'
p449
sba(ibasisset
Shell
p450
(dp451
g8
S'D'
p452
sg10
(lp453
F1.206
asg12
(lp454
(lp455
F1.0
aasg16
S' H'
p456
sba(ibasisset
Shell
p457
(dp458
g8
S'D'
p459
sg10
(lp460
F0.49299999999999999
asg12
(lp461
(lp462
F1.0
aasg16
S' H'
p463
sba(ibasisset
Shell
p464
(dp465
g8
S'F'
p466
sg10
(lp467
F2.5059999999999998
asg12
(lp468
(lp469
F1.0
aasg16
S' H'
p470
sba(ibasisset
Shell
p471
(dp472
g8
S'F'
p473
sg10
(lp474
F0.875
asg12
(lp475
(lp476
F1.0
aasg16
S' H'
p477
sba(ibasisset
Shell
p478
(dp479
g8
S'G'
p480
sg10
(lp481
F2.3580000000000001
asg12
(lp482
(lp483
F1.0
aasg16
S' H'
p484
sba(ibasisset
Shell
p485
(dp486
g8
S'S'
p487
sg10
(lp488
F0.0207
asg12
(lp489
(lp490
F1.0
aasg16
S' H'
p491
sba(ibasisset
Shell
p492
(dp493
g8
S'P'
p494
sg10
(lp495
F0.074399999999999994
asg12
(lp496
(lp497
F1.0
aasg16
S' H'
p498
sba(ibasisset
Shell
p499
(dp500
g8
S'D'
p501
sg10
(lp502
F0.156
asg12
(lp503
(lp504
F1.0
aasg16
S' H'
p505
sba(ibasisset
Shell
p506
(dp507
g8
S'F'
p508
sg10
(lp509
F0.27400000000000002
asg12
(lp510
(lp511
F1.0
aasg16
S' H'
p512
sba(ibasisset
Shell
p513
(dp514
g8
S'G'
p515
sg10
(lp516
F0.54300000000000004
asg12
(lp517
(lp518
F1.0
aasg16
S' H'
p519
sbasS'S'
p520
(lp521
(ibasisset
Shell
p522
(dp523
g8
S'S'
p524
sg10
(lp525
F5481000.0
aF820600.0
aF186700.0
aF52880.0
aF17250.0
aF6226.0
aF2429.0
aF1007.0
aF439.5
aF199.80000000000001
aF93.920000000000002
aF45.340000000000003
aF22.149999999999999
aF10.34
aF5.1189999999999998
aF2.5529999999999999
asg12
(lp526
(lp527
F1.89338e-06
aF1.47211e-05
aF7.7508400000000005e-05
aF0.00032722399999999998
aF0.0011936500000000001
aF0.0038839299999999998
aF0.0115336
aF0.031274799999999998
aF0.076438699999999998
aF0.16270000000000001
aF0.27932800000000002
aF0.33314500000000002
aF0.20983599999999999
aF0.0415974
aF-0.00045055200000000001
aF0.00168855
aa(lp528
F-5.2291200000000002e-07
aF-4.0669e-06
aF-2.1406499999999999e-05
aF-9.0453999999999998e-05
aF-0.00033008000000000001
aF-0.0010778199999999999
aF-0.0032187399999999999
aF-0.0088721700000000004
aF-0.0223771
aF-0.051057699999999998
aF-0.10022499999999999
aF-0.15679499999999999
aF-0.13974800000000001
aF0.081005900000000006
aF0.43088300000000002
aF0.48168800000000001
aa(lp529
F1.51823e-07
aF1.18008e-06
aF6.2169900000000001e-06
aF2.6240500000000001e-05
aF9.5903999999999995e-05
aF0.00031267799999999999
aF0.00093632199999999996
aF0.0025779000000000002
aF0.0065412100000000004
aF0.014963000000000001
aF0.029894
aF0.047694599999999997
aF0.044955599999999998
aF-0.029300900000000001
aF-0.16891600000000001
aF-0.31101400000000001
aasg16
S' S'
p530
sba(ibasisset
Shell
p531
(dp532
g8
S'S'
p533
sg10
(lp534
F1.282
asg12
(lp535
(lp536
F1.0
aasg16
S' S'
p537
sba(ibasisset
Shell
p538
(dp539
g8
S'S'
p540
sg10
(lp541
F0.54500000000000004
asg12
(lp542
(lp543
F1.0
aasg16
S' S'
p544
sba(ibasisset
Shell
p545
(dp546
g8
S'S'
p547
sg10
(lp548
F0.24110000000000001
asg12
(lp549
(lp550
F1.0
aasg16
S' S'
p551
sba(ibasisset
Shell
p552
(dp553
g8
S'S'
p554
sg10
(lp555
F0.10349999999999999
asg12
(lp556
(lp557
F1.0
aasg16
S' S'
p558
sba(ibasisset
Shell
p559
(dp560
g8
S'P'
p561
sg10
(lp562
F2200.0
aF521.39999999999998
aF169.0
aF64.049999999999997
aF26.719999999999999
aF11.83
aF5.3780000000000001
aF2.4820000000000002
asg12
(lp563
(lp564
F0.00023904899999999999
aF0.0020768599999999998
aF0.011236299999999999
aF0.044068999999999997
aF0.12916800000000001
aF0.26908300000000002
aF0.37861099999999998
aF0.29677900000000002
aa(lp565
F-6.0856200000000002e-05
aF-0.00053041899999999996
aF-0.00287915
aF-0.011439700000000001
aF-0.034276399999999999
aF-0.073581099999999997
aF-0.107782
aF-0.087976899999999997
aasg16
S' S'
p566
sba(ibasisset
Shell
p567
(dp568
g8
S'P'
p569
sg10
(lp570
F1.1160000000000001
asg12
(lp571
(lp572
F1.0
aasg16
S' S'
p573
sba(ibasisset
Shell
p574
(dp575
g8
S'P'
p576
sg10
(lp577
F0.48480000000000001
asg12
(lp578
(lp579
F1.0
aasg16
S' S'
p580
sba(ibasisset
Shell
p581
(dp582
g8
S'P'
p583
sg10
(lp584
F0.2006
asg12
(lp585
(lp586
F1.0
aasg16
S' S'
p587
sba(ibasisset
Shell
p588
(dp589
g8
S'P'
p590
sg10
(lp591
F0.079509999999999997
asg12
(lp592
(lp593
F1.0
aasg16
S' S'
p594
sba(ibasisset
Shell
p595
(dp596
g8
S'D'
p597
sg10
(lp598
F6.5099999999999998
asg12
(lp599
(lp600
F1.0
aasg16
S' S'
p601
sba(ibasisset
Shell
p602
(dp603
g8
S'D'
p604
sg10
(lp605
F1.5900000000000001
asg12
(lp606
(lp607
F1.0
aasg16
S' S'
p608
sba(ibasisset
Shell
p609
(dp610
g8
S'D'
p611
sg10
(lp612
F0.88600000000000001
asg12
(lp613
(lp614
F1.0
aasg16
S' S'
p615
sba(ibasisset
Shell
p616
(dp617
g8
S'D'
p618
sg10
(lp619
F0.438
asg12
(lp620
(lp621
F1.0
aasg16
S' S'
p622
sba(ibasisset
Shell
p623
(dp624
g8
S'D'
p625
sg10
(lp626
F0.17699999999999999
asg12
(lp627
(lp628
F1.0
aasg16
S' S'
p629
sba(ibasisset
Shell
p630
(dp631
g8
S'F'
p632
sg10
(lp633
F0.255
asg12
(lp634
(lp635
F1.0
aasg16
S' S'
p636
sba(ibasisset
Shell
p637
(dp638
g8
S'F'
p639
sg10
(lp640
F0.52900000000000003
asg12
(lp641
(lp642
F1.0
aasg16
S' S'
p643
sba(ibasisset
Shell
p644
(dp645
g8
S'F'
p646
sg10
(lp647
F1.0960000000000001
asg12
(lp648
(lp649
F1.0
aasg16
S' S'
p650
sba(ibasisset
Shell
p651
(dp652
g8
S'G'
p653
sg10
(lp654
F0.46300000000000002
asg12
(lp655
(lp656
F1.0
aasg16
S' S'
p657
sba(ibasisset
Shell
p658
(dp659
g8
S'G'
p660
sg10
(lp661
F1.071
asg12
(lp662
(lp663
F1.0
aasg16
S' S'
p664
sba(ibasisset
Shell
p665
(dp666
g8
S'H'
p667
sg10
(lp668
F0.872
asg12
(lp669
(lp670
F1.0
aasg16
S' S'
p671
sba(ibasisset
Shell
p672
(dp673
g8
S'S'
p674
sg10
(lp675
F0.042000000000000003
asg12
(lp676
(lp677
F1.0
aasg16
S' S'
p678
sba(ibasisset
Shell
p679
(dp680
g8
S'P'
p681
sg10
(lp682
F0.029399999999999999
asg12
(lp683
(lp684
F1.0
aasg16
S' S'
p685
sba(ibasisset
Shell
p686
(dp687
g8
S'D'
p688
sg10
(lp689
F0.066400000000000001
asg12
(lp690
(lp691
F1.0
aasg16
S' S'
p692
sba(ibasisset
Shell
p693
(dp694
g8
S'F'
p695
sg10
(lp696
F0.1188
asg12
(lp697
(lp698
F1.0
aasg16
S' S'
p699
sba(ibasisset
Shell
p700
(dp701
g8
S'G'
p702
sg10
(lp703
F0.22
asg12
(lp704
(lp705
F1.0
aasg16
S' S'
p706
sba(ibasisset
Shell
p707
(dp708
g8
S'H'
p709
sg10
(lp710
F0.47199999999999998
asg12
(lp711
(lp712
F1.0
aasg16
S' S'
p713
sbasS'O'
p714
(lp715
(ibasisset
Shell
p716
(dp717
g8
S'S'
p718
sg10
(lp719
F164200.0
aF24590.0
aF5592.0
aF1582.0
aF516.10000000000002
aF187.19999999999999
aF73.930000000000007
aF31.219999999999999
aF13.81
aF6.2560000000000002
asg12
(lp720
(lp721
F2.5999999999999998e-05
aF0.000205
aF0.0010759999999999999
aF0.004522
aF0.016108000000000001
aF0.049084999999999997
aF0.124857
aF0.25168600000000002
aF0.36242000000000002
aF0.27905099999999999
aa(lp722
F-6.0000000000000002e-06
aF-4.6e-05
aF-0.00024399999999999999
aF-0.001031
aF-0.0036879999999999999
aF-0.011514
aF-0.030435
aF-0.068146999999999999
aF-0.120368
aF-0.14826
aasg16
S' O'
p723
sba(ibasisset
Shell
p724
(dp725
g8
S'S'
p726
sg10
(lp727
F2.7759999999999998
asg12
(lp728
(lp729
F1.0
aasg16
S' O'
p730
sba(ibasisset
Shell
p731
(dp732
g8
S'S'
p733
sg10
(lp734
F1.1379999999999999
asg12
(lp735
(lp736
F1.0
aasg16
S' O'
p737
sba(ibasisset
Shell
p738
(dp739
g8
S'S'
p740
sg10
(lp741
F0.46000000000000002
asg12
(lp742
(lp743
F1.0
aasg16
S' O'
p744
sba(ibasisset
Shell
p745
(dp746
g8
S'S'
p747
sg10
(lp748
F0.18290000000000001
asg12
(lp749
(lp750
F1.0
aasg16
S' O'
p751
sba(ibasisset
Shell
p752
(dp753
g8
S'P'
p754
sg10
(lp755
F195.5
aF46.159999999999997
aF14.58
aF5.2960000000000003
asg12
(lp756
(lp757
F0.00091799999999999998
aF0.0073879999999999996
aF0.034958000000000003
aF0.11543100000000001
aasg16
S' O'
p758
sba(ibasisset
Shell
p759
(dp760
g8
S'P'
p761
sg10
(lp762
F2.0939999999999999
asg12
(lp763
(lp764
F1.0
aasg16
S' O'
p765
sba(ibasisset
Shell
p766
(dp767
g8
S'P'
p768
sg10
(lp769
F0.84709999999999996
asg12
(lp770
(lp771
F1.0
aasg16
S' O'
p772
sba(ibasisset
Shell
p773
(dp774
g8
S'P'
p775
sg10
(lp776
F0.33679999999999999
asg12
(lp777
(lp778
F1.0
aasg16
S' O'
p779
sba(ibasisset
Shell
p780
(dp781
g8
S'P'
p782
sg10
(lp783
F0.1285
asg12
(lp784
(lp785
F1.0
aasg16
S' O'
p786
sba(ibasisset
Shell
p787
(dp788
g8
S'D'
p789
sg10
(lp790
F5.8789999999999996
asg12
(lp791
(lp792
F1.0
aasg16
S' O'
p793
sba(ibasisset
Shell
p794
(dp795
g8
S'D'
p796
sg10
(lp797
F2.3069999999999999
asg12
(lp798
(lp799
F1.0
aasg16
S' O'
p800
sba(ibasisset
Shell
p801
(dp802
g8
S'D'
p803
sg10
(lp804
F0.90500000000000003
asg12
(lp805
(lp806
F1.0
aasg16
S' O'
p807
sba(ibasisset
Shell
p808
(dp809
g8
S'D'
p810
sg10
(lp811
F0.35499999999999998
asg12
(lp812
(lp813
F1.0
aasg16
S' O'
p814
sba(ibasisset
Shell
p815
(dp816
g8
S'F'
p817
sg10
(lp818
F4.016
asg12
(lp819
(lp820
F1.0
aasg16
S' O'
p821
sba(ibasisset
Shell
p822
(dp823
g8
S'F'
p824
sg10
(lp825
F1.554
asg12
(lp826
(lp827
F1.0
aasg16
S' O'
p828
sba(ibasisset
Shell
p829
(dp830
g8
S'F'
p831
sg10
(lp832
F0.60099999999999998
asg12
(lp833
(lp834
F1.0
aasg16
S' O'
p835
sba(ibasisset
Shell
p836
(dp837
g8
S'G'
p838
sg10
(lp839
F3.3500000000000001
asg12
(lp840
(lp841
F1.0
aasg16
S' O'
p842
sba(ibasisset
Shell
p843
(dp844
g8
S'G'
p845
sg10
(lp846
F1.1890000000000001
asg12
(lp847
(lp848
F1.0
aasg16
S' O'
p849
sba(ibasisset
Shell
p850
(dp851
g8
S'H'
p852
sg10
(lp853
F2.319
asg12
(lp854
(lp855
F1.0
aasg16
S' O'
p856
sba(ibasisset
Shell
p857
(dp858
g8
S'S'
p859
sg10
(lp860
F0.065500000000000003
asg12
(lp861
(lp862
F1.0
aasg16
S' O'
p863
sba(ibasisset
Shell
p864
(dp865
g8
S'P'
p866
sg10
(lp867
F0.044600000000000001
asg12
(lp868
(lp869
F1.0
aasg16
S' O'
p870
sba(ibasisset
Shell
p871
(dp872
g8
S'D'
p873
sg10
(lp874
F0.13100000000000001
asg12
(lp875
(lp876
F1.0
aasg16
S' O'
p877
sba(ibasisset
Shell
p878
(dp879
g8
S'F'
p880
sg10
(lp881
F0.23699999999999999
asg12
(lp882
(lp883
F1.0
aasg16
S' O'
p884
sba(ibasisset
Shell
p885
(dp886
g8
S'G'
p887
sg10
(lp888
F0.51700000000000002
asg12
(lp889
(lp890
F1.0
aasg16
S' O'
p891
sba(ibasisset
Shell
p892
(dp893
g8
S'H'
p894
sg10
(lp895
F1.024
asg12
(lp896
(lp897
F1.0
aasg16
S' O'
p898
sbasS'N'
p899
(lp900
(ibasisset
Shell
p901
(dp902
g8
S'S'
p903
sg10
(lp904
F129200.0
aF19350.0
aF4404.0
aF1248.0
aF408.0
aF148.19999999999999
aF58.5
aF24.59
aF10.81
aF4.8819999999999997
asg12
(lp905
(lp906
F2.5000000000000001e-05
aF0.00019699999999999999
aF0.0010319999999999999
aF0.0043249999999999999
aF0.01538
aF0.046866999999999999
aF0.120116
aF0.245695
aF0.36137900000000001
aF0.28728300000000001
aa(lp907
F-6.0000000000000002e-06
aF-4.3000000000000002e-05
aF-0.00022699999999999999
aF-0.00095799999999999998
aF-0.0034160000000000002
aF-0.010666999999999999
aF-0.028278999999999999
aF-0.064019999999999994
aF-0.11393200000000001
aF-0.14699499999999999
aasg16
S' N'
p908
sba(ibasisset
Shell
p909
(dp910
g8
S'S'
p911
sg10
(lp912
F2.1949999999999998
asg12
(lp913
(lp914
F1.0
aasg16
S' N'
p915
sba(ibasisset
Shell
p916
(dp917
g8
S'S'
p918
sg10
(lp919
F0.87150000000000005
asg12
(lp920
(lp921
F1.0
aasg16
S' N'
p922
sba(ibasisset
Shell
p923
(dp924
g8
S'S'
p925
sg10
(lp926
F0.35039999999999999
asg12
(lp927
(lp928
F1.0
aasg16
S' N'
p929
sba(ibasisset
Shell
p930
(dp931
g8
S'S'
p932
sg10
(lp933
F0.13969999999999999
asg12
(lp934
(lp935
F1.0
aasg16
S' N'
p936
sba(ibasisset
Shell
p937
(dp938
g8
S'P'
p939
sg10
(lp940
F147.0
aF34.759999999999998
aF11.0
aF3.9950000000000001
asg12
(lp941
(lp942
F0.000892
aF0.0070819999999999998
aF0.032815999999999998
aF0.108209
aasg16
S' N'
p943
sba(ibasisset
Shell
p944
(dp945
g8
S'P'
p946
sg10
(lp947
F1.587
asg12
(lp948
(lp949
F1.0
aasg16
S' N'
p950
sba(ibasisset
Shell
p951
(dp952
g8
S'P'
p953
sg10
(lp954
F0.65329999999999999
asg12
(lp955
(lp956
F1.0
aasg16
S' N'
p957
sba(ibasisset
Shell
p958
(dp959
g8
S'P'
p960
sg10
(lp961
F0.26860000000000001
asg12
(lp962
(lp963
F1.0
aasg16
S' N'
p964
sba(ibasisset
Shell
p965
(dp966
g8
S'P'
p967
sg10
(lp968
F0.1067
asg12
(lp969
(lp970
F1.0
aasg16
S' N'
p971
sba(ibasisset
Shell
p972
(dp973
g8
S'D'
p974
sg10
(lp975
F4.6470000000000002
asg12
(lp976
(lp977
F1.0
aasg16
S' N'
p978
sba(ibasisset
Shell
p979
(dp980
g8
S'D'
p981
sg10
(lp982
F1.8129999999999999
asg12
(lp983
(lp984
F1.0
aasg16
S' N'
p985
sba(ibasisset
Shell
p986
(dp987
g8
S'D'
p988
sg10
(lp989
F0.70699999999999996
asg12
(lp990
(lp991
F1.0
aasg16
S' N'
p992
sba(ibasisset
Shell
p993
(dp994
g8
S'D'
p995
sg10
(lp996
F0.27600000000000002
asg12
(lp997
(lp998
F1.0
aasg16
S' N'
p999
sba(ibasisset
Shell
p1000
(dp1001
g8
S'F'
p1002
sg10
(lp1003
F2.9420000000000002
asg12
(lp1004
(lp1005
F1.0
aasg16
S' N'
p1006
sba(ibasisset
Shell
p1007
(dp1008
g8
S'F'
p1009
sg10
(lp1010
F1.204
asg12
(lp1011
(lp1012
F1.0
aasg16
S' N'
p1013
sba(ibasisset
Shell
p1014
(dp1015
g8
S'F'
p1016
sg10
(lp1017
F0.49299999999999999
asg12
(lp1018
(lp1019
F1.0
aasg16
S' N'
p1020
sba(ibasisset
Shell
p1021
(dp1022
g8
S'G'
p1023
sg10
(lp1024
F2.5110000000000001
asg12
(lp1025
(lp1026
F1.0
aasg16
S' N'
p1027
sba(ibasisset
Shell
p1028
(dp1029
g8
S'G'
p1030
sg10
(lp1031
F0.94199999999999995
asg12
(lp1032
(lp1033
F1.0
aasg16
S' N'
p1034
sba(ibasisset
Shell
p1035
(dp1036
g8
S'H'
p1037
sg10
(lp1038
F1.768
asg12
(lp1039
(lp1040
F1.0
aasg16
S' N'
p1041
sba(ibasisset
Shell
p1042
(dp1043
g8
S'S'
p1044
sg10
(lp1045
F0.051799999999999999
asg12
(lp1046
(lp1047
F1.0
aasg16
S' N'
p1048
sba(ibasisset
Shell
p1049
(dp1050
g8
S'P'
p1051
sg10
(lp1052
F0.036900000000000002
asg12
(lp1053
(lp1054
F1.0
aasg16
S' N'
p1055
sba(ibasisset
Shell
p1056
(dp1057
g8
S'D'
p1058
sg10
(lp1059
F0.097100000000000006
asg12
(lp1060
(lp1061
F1.0
aasg16
S' N'
p1062
sba(ibasisset
Shell
p1063
(dp1064
g8
S'F'
p1065
sg10
(lp1066
F0.192
asg12
(lp1067
(lp1068
F1.0
aasg16
S' N'
p1069
sba(ibasisset
Shell
p1070
(dp1071
g8
S'G'
p1072
sg10
(lp1073
F0.436
asg12
(lp1074
(lp1075
F1.0
aasg16
S' N'
p1076
sba(ibasisset
Shell
p1077
(dp1078
g8
S'H'
p1079
sg10
(lp1080
F0.78800000000000003
asg12
(lp1081
(lp1082
F1.0
aasg16
S' N'
p1083
sbassb.