(ibasisset
BasisSet
p0
(dp1
S'basisDictionary'
p2
(dp3
S'C'
p4
(iBasisSets
AtomBasis
p5
(dp6
S'basisDictionary'
p7
(dp8
S'P'
p9
(lp10
(iBasisSets
BasisFunction
p11
(dp12
S'coefficientList'
p13
(lp14
F1.0
asS'primitiveList'
p15
(lp16
(iBasisSets
PrimitiveFunction
p17
(dp18
S'exponent'
p19
F34.509999999999998
sS'angularMomentum'
p20
S'P'
p21
sbasg20
S'P'
p22
sba(iBasisSets
BasisFunction
p23
(dp24
g13
(lp25
F1.0
asg15
(lp26
(iBasisSets
PrimitiveFunction
p27
(dp28
g19
F7.915
sg20
S'P'
p29
sbasg20
S'P'
p30
sba(iBasisSets
BasisFunction
p31
(dp32
g13
(lp33
F1.0
asg15
(lp34
(iBasisSets
PrimitiveFunction
p35
(dp36
g19
F2.3679999999999999
sg20
S'P'
p37
sbasg20
S'P'
p38
sba(iBasisSets
BasisFunction
p39
(dp40
g13
(lp41
F1.0
asg15
(lp42
(iBasisSets
PrimitiveFunction
p43
(dp44
g19
F0.81320000000000003
sg20
S'P'
p45
sbasg20
S'P'
p46
sba(iBasisSets
BasisFunction
p47
(dp48
g13
(lp49
F1.0
asg15
(lp50
(iBasisSets
PrimitiveFunction
p51
(dp52
g19
F0.28899999999999998
sg20
S'P'
p53
sbasg20
S'P'
p54
sba(iBasisSets
BasisFunction
p55
(dp56
g13
(lp57
F1.0
asg15
(lp58
(iBasisSets
PrimitiveFunction
p59
(dp60
g19
F0.1007
sg20
S'P'
p61
sbasg20
S'P'
p62
sba(iBasisSets
BasisFunction
p63
(dp64
g13
(lp65
F1.0
asg15
(lp66
(iBasisSets
PrimitiveFunction
p67
(dp68
g19
F0.03218
sg20
S'P'
p69
sbasg20
S'P'
p70
sbasS'S'
p71
(lp72
(iBasisSets
BasisFunction
p73
(dp74
g13
(lp75
F1.0
asg15
(lp76
(iBasisSets
PrimitiveFunction
p77
(dp78
g19
F33980.0
sg20
S'S'
p79
sbasg20
S'S'
p80
sba(iBasisSets
BasisFunction
p81
(dp82
g13
(lp83
F1.0
asg15
(lp84
(iBasisSets
PrimitiveFunction
p85
(dp86
g19
F5089.0
sg20
S'S'
p87
sbasg20
S'S'
p88
sba(iBasisSets
BasisFunction
p89
(dp90
g13
(lp91
F1.0
asg15
(lp92
(iBasisSets
PrimitiveFunction
p93
(dp94
g19
F1157.0
sg20
S'S'
p95
sbasg20
S'S'
p96
sba(iBasisSets
BasisFunction
p97
(dp98
g13
(lp99
F1.0
asg15
(lp100
(iBasisSets
PrimitiveFunction
p101
(dp102
g19
F326.60000000000002
sg20
S'S'
p103
sbasg20
S'S'
p104
sba(iBasisSets
BasisFunction
p105
(dp106
g13
(lp107
F1.0
asg15
(lp108
(iBasisSets
PrimitiveFunction
p109
(dp110
g19
F106.09999999999999
sg20
S'S'
p111
sbasg20
S'S'
p112
sba(iBasisSets
BasisFunction
p113
(dp114
g13
(lp115
F1.0
asg15
(lp116
(iBasisSets
PrimitiveFunction
p117
(dp118
g19
F38.109999999999999
sg20
S'S'
p119
sbasg20
S'S'
p120
sba(iBasisSets
BasisFunction
p121
(dp122
g13
(lp123
F1.0
asg15
(lp124
(iBasisSets
PrimitiveFunction
p125
(dp126
g19
F14.75
sg20
S'S'
p127
sbasg20
S'S'
p128
sba(iBasisSets
BasisFunction
p129
(dp130
g13
(lp131
F1.0
asg15
(lp132
(iBasisSets
PrimitiveFunction
p133
(dp134
g19
F6.0350000000000001
sg20
S'S'
p135
sbasg20
S'S'
p136
sba(iBasisSets
BasisFunction
p137
(dp138
g13
(lp139
F1.0
asg15
(lp140
(iBasisSets
PrimitiveFunction
p141
(dp142
g19
F2.5299999999999998
sg20
S'S'
p143
sbasg20
S'S'
p144
sba(iBasisSets
BasisFunction
p145
(dp146
g13
(lp147
F1.0
asg15
(lp148
(iBasisSets
PrimitiveFunction
p149
(dp150
g19
F0.73550000000000004
sg20
S'S'
p151
sbasg20
S'S'
p152
sba(iBasisSets
BasisFunction
p153
(dp154
g13
(lp155
F1.0
asg15
(lp156
(iBasisSets
PrimitiveFunction
p157
(dp158
g19
F0.29049999999999998
sg20
S'S'
p159
sbasg20
S'S'
p160
sba(iBasisSets
BasisFunction
p161
(dp162
g13
(lp163
F1.0
asg15
(lp164
(iBasisSets
PrimitiveFunction
p165
(dp166
g19
F0.1111
sg20
S'S'
p167
sbasg20
S'S'
p168
sba(iBasisSets
BasisFunction
p169
(dp170
g13
(lp171
F1.0
asg15
(lp172
(iBasisSets
PrimitiveFunction
p173
(dp174
g19
F0.041450000000000001
sg20
S'S'
p175
sbasg20
S'S'
p176
sbasS'D'
p177
(lp178
(iBasisSets
BasisFunction
p179
(dp180
g13
(lp181
F1.0
asg15
(lp182
(iBasisSets
PrimitiveFunction
p183
(dp184
g19
F1.8480000000000001
sg20
S'D'
p185
sbasg20
S'D'
p186
sba(iBasisSets
BasisFunction
p187
(dp188
g13
(lp189
F1.0
asg15
(lp190
(iBasisSets
PrimitiveFunction
p191
(dp192
g19
F0.64900000000000002
sg20
S'D'
p193
sbasg20
S'D'
p194
sba(iBasisSets
BasisFunction
p195
(dp196
g13
(lp197
F1.0
asg15
(lp198
(iBasisSets
PrimitiveFunction
p199
(dp200
g19
F0.22800000000000001
sg20
S'D'
p201
sbasg20
S'D'
p202
sba(iBasisSets
BasisFunction
p203
(dp204
g13
(lp205
F1.0
asg15
(lp206
(iBasisSets
PrimitiveFunction
p207
(dp208
g19
F0.076600000000000001
sg20
S'D'
p209
sbasg20
S'D'
p210
sbasS'G'
p211
(lp212
(iBasisSets
BasisFunction
p213
(dp214
g13
(lp215
F1.0
asg15
(lp216
(iBasisSets
PrimitiveFunction
p217
(dp218
g19
F1.0109999999999999
sg20
S'G'
p219
sbasg20
S'G'
p220
sba(iBasisSets
BasisFunction
p221
(dp222
g13
(lp223
F1.0
asg15
(lp224
(iBasisSets
PrimitiveFunction
p225
(dp226
g19
F0.42399999999999999
sg20
S'G'
p227
sbasg20
S'G'
p228
sbasS'F'
p229
(lp230
(iBasisSets
BasisFunction
p231
(dp232
g13
(lp233
F1.0
asg15
(lp234
(iBasisSets
PrimitiveFunction
p235
(dp236
g19
F1.419
sg20
S'F'
p237
sbasg20
S'F'
p238
sba(iBasisSets
BasisFunction
p239
(dp240
g13
(lp241
F1.0
asg15
(lp242
(iBasisSets
PrimitiveFunction
p243
(dp244
g19
F0.48499999999999999
sg20
S'F'
p245
sbasg20
S'F'
p246
sba(iBasisSets
BasisFunction
p247
(dp248
g13
(lp249
F1.0
asg15
(lp250
(iBasisSets
PrimitiveFunction
p251
(dp252
g19
F0.187
sg20
S'F'
p253
sbasg20
S'F'
p254
sbassbsS'B'
p255
(iBasisSets
AtomBasis
p256
(dp257
g7
(dp258
g9
(lp259
(iBasisSets
BasisFunction
p260
(dp261
g13
(lp262
F1.0
asg15
(lp263
(iBasisSets
PrimitiveFunction
p264
(dp265
g19
F22.260000000000002
sg20
S'P'
p266
sbasg20
S'P'
p267
sba(iBasisSets
BasisFunction
p268
(dp269
g13
(lp270
F1.0
asg15
(lp271
(iBasisSets
PrimitiveFunction
p272
(dp273
g19
F5.0579999999999998
sg20
S'P'
p274
sbasg20
S'P'
p275
sba(iBasisSets
BasisFunction
p276
(dp277
g13
(lp278
F1.0
asg15
(lp279
(iBasisSets
PrimitiveFunction
p280
(dp281
g19
F1.4870000000000001
sg20
S'P'
p282
sbasg20
S'P'
p283
sba(iBasisSets
BasisFunction
p284
(dp285
g13
(lp286
F1.0
asg15
(lp287
(iBasisSets
PrimitiveFunction
p288
(dp289
g19
F0.5071
sg20
S'P'
p290
sbasg20
S'P'
p291
sba(iBasisSets
BasisFunction
p292
(dp293
g13
(lp294
F1.0
asg15
(lp295
(iBasisSets
PrimitiveFunction
p296
(dp297
g19
F0.1812
sg20
S'P'
p298
sbasg20
S'P'
p299
sba(iBasisSets
BasisFunction
p300
(dp301
g13
(lp302
F1.0
asg15
(lp303
(iBasisSets
PrimitiveFunction
p304
(dp305
g19
F0.064630000000000007
sg20
S'P'
p306
sbasg20
S'P'
p307
sba(iBasisSets
BasisFunction
p308
(dp309
g13
(lp310
F1.0
asg15
(lp311
(iBasisSets
PrimitiveFunction
p312
(dp313
g19
F0.018780000000000002
sg20
S'P'
p314
sbasg20
S'P'
p315
sbasg71
(lp316
(iBasisSets
BasisFunction
p317
(dp318
g13
(lp319
F1.0
asg15
(lp320
(iBasisSets
PrimitiveFunction
p321
(dp322
g19
F23870.0
sg20
S'S'
p323
sbasg20
S'S'
p324
sba(iBasisSets
BasisFunction
p325
(dp326
g13
(lp327
F1.0
asg15
(lp328
(iBasisSets
PrimitiveFunction
p329
(dp330
g19
F3575.0
sg20
S'S'
p331
sbasg20
S'S'
p332
sba(iBasisSets
BasisFunction
p333
(dp334
g13
(lp335
F1.0
asg15
(lp336
(iBasisSets
PrimitiveFunction
p337
(dp338
g19
F812.79999999999995
sg20
S'S'
p339
sbasg20
S'S'
p340
sba(iBasisSets
BasisFunction
p341
(dp342
g13
(lp343
F1.0
asg15
(lp344
(iBasisSets
PrimitiveFunction
p345
(dp346
g19
F229.69999999999999
sg20
S'S'
p347
sbasg20
S'S'
p348
sba(iBasisSets
BasisFunction
p349
(dp350
g13
(lp351
F1.0
asg15
(lp352
(iBasisSets
PrimitiveFunction
p353
(dp354
g19
F74.689999999999998
sg20
S'S'
p355
sbasg20
S'S'
p356
sba(iBasisSets
BasisFunction
p357
(dp358
g13
(lp359
F1.0
asg15
(lp360
(iBasisSets
PrimitiveFunction
p361
(dp362
g19
F26.809999999999999
sg20
S'S'
p363
sbasg20
S'S'
p364
sba(iBasisSets
BasisFunction
p365
(dp366
g13
(lp367
F1.0
asg15
(lp368
(iBasisSets
PrimitiveFunction
p369
(dp370
g19
F10.32
sg20
S'S'
p371
sbasg20
S'S'
p372
sba(iBasisSets
BasisFunction
p373
(dp374
g13
(lp375
F1.0
asg15
(lp376
(iBasisSets
PrimitiveFunction
p377
(dp378
g19
F4.1779999999999999
sg20
S'S'
p379
sbasg20
S'S'
p380
sba(iBasisSets
BasisFunction
p381
(dp382
g13
(lp383
F1.0
asg15
(lp384
(iBasisSets
PrimitiveFunction
p385
(dp386
g19
F1.7270000000000001
sg20
S'S'
p387
sbasg20
S'S'
p388
sba(iBasisSets
BasisFunction
p389
(dp390
g13
(lp391
F1.0
asg15
(lp392
(iBasisSets
PrimitiveFunction
p393
(dp394
g19
F0.47039999999999998
sg20
S'S'
p395
sbasg20
S'S'
p396
sba(iBasisSets
BasisFunction
p397
(dp398
g13
(lp399
F1.0
asg15
(lp400
(iBasisSets
PrimitiveFunction
p401
(dp402
g19
F0.18959999999999999
sg20
S'S'
p403
sbasg20
S'S'
p404
sba(iBasisSets
BasisFunction
p405
(dp406
g13
(lp407
F1.0
asg15
(lp408
(iBasisSets
PrimitiveFunction
p409
(dp410
g19
F0.073940000000000006
sg20
S'S'
p411
sbasg20
S'S'
p412
sba(iBasisSets
BasisFunction
p413
(dp414
g13
(lp415
F1.0
asg15
(lp416
(iBasisSets
PrimitiveFunction
p417
(dp418
g19
F0.027210000000000002
sg20
S'S'
p419
sbasg20
S'S'
p420
sbasg177
(lp421
(iBasisSets
BasisFunction
p422
(dp423
g13
(lp424
F1.0
asg15
(lp425
(iBasisSets
PrimitiveFunction
p426
(dp427
g19
F1.1100000000000001
sg20
S'D'
p428
sbasg20
S'D'
p429
sba(iBasisSets
BasisFunction
p430
(dp431
g13
(lp432
F1.0
asg15
(lp433
(iBasisSets
PrimitiveFunction
p434
(dp435
g19
F0.40200000000000002
sg20
S'D'
p436
sbasg20
S'D'
p437
sba(iBasisSets
BasisFunction
p438
(dp439
g13
(lp440
F1.0
asg15
(lp441
(iBasisSets
PrimitiveFunction
p442
(dp443
g19
F0.14499999999999999
sg20
S'D'
p444
sbasg20
S'D'
p445
sba(iBasisSets
BasisFunction
p446
(dp447
g13
(lp448
F1.0
asg15
(lp449
(iBasisSets
PrimitiveFunction
p450
(dp451
g19
F0.046600000000000003
sg20
S'D'
p452
sbasg20
S'D'
p453
sbasg211
(lp454
(iBasisSets
BasisFunction
p455
(dp456
g13
(lp457
F1.0
asg15
(lp458
(iBasisSets
PrimitiveFunction
p459
(dp460
g19
F0.67300000000000004
sg20
S'G'
p461
sbasg20
S'G'
p462
sba(iBasisSets
BasisFunction
p463
(dp464
g13
(lp465
F1.0
asg15
(lp466
(iBasisSets
PrimitiveFunction
p467
(dp468
g19
F0.27300000000000002
sg20
S'G'
p469
sbasg20
S'G'
p470
sbasg229
(lp471
(iBasisSets
BasisFunction
p472
(dp473
g13
(lp474
F1.0
asg15
(lp475
(iBasisSets
PrimitiveFunction
p476
(dp477
g19
F0.88200000000000001
sg20
S'F'
p478
sbasg20
S'F'
p479
sba(iBasisSets
BasisFunction
p480
(dp481
g13
(lp482
F1.0
asg15
(lp483
(iBasisSets
PrimitiveFunction
p484
(dp485
g19
F0.311
sg20
S'F'
p486
sbasg20
S'F'
p487
sba(iBasisSets
BasisFunction
p488
(dp489
g13
(lp490
F1.0
asg15
(lp491
(iBasisSets
PrimitiveFunction
p492
(dp493
g19
F0.113
sg20
S'F'
p494
sbasg20
S'F'
p495
sbassbsS'F'
p496
(iBasisSets
AtomBasis
p497
(dp498
g7
(dp499
g9
(lp500
(iBasisSets
BasisFunction
p501
(dp502
g13
(lp503
F1.0
asg15
(lp504
(iBasisSets
PrimitiveFunction
p505
(dp506
g19
F80.390000000000001
sg20
S'P'
p507
sbasg20
S'P'
p508
sba(iBasisSets
BasisFunction
p509
(dp510
g13
(lp511
F1.0
asg15
(lp512
(iBasisSets
PrimitiveFunction
p513
(dp514
g19
F18.629999999999999
sg20
S'P'
p515
sbasg20
S'P'
p516
sba(iBasisSets
BasisFunction
p517
(dp518
g13
(lp519
F1.0
asg15
(lp520
(iBasisSets
PrimitiveFunction
p521
(dp522
g19
F5.694
sg20
S'P'
p523
sbasg20
S'P'
p524
sba(iBasisSets
BasisFunction
p525
(dp526
g13
(lp527
F1.0
asg15
(lp528
(iBasisSets
PrimitiveFunction
p529
(dp530
g19
F1.9530000000000001
sg20
S'P'
p531
sbasg20
S'P'
p532
sba(iBasisSets
BasisFunction
p533
(dp534
g13
(lp535
F1.0
asg15
(lp536
(iBasisSets
PrimitiveFunction
p537
(dp538
g19
F0.67020000000000002
sg20
S'P'
p539
sbasg20
S'P'
p540
sba(iBasisSets
BasisFunction
p541
(dp542
g13
(lp543
F1.0
asg15
(lp544
(iBasisSets
PrimitiveFunction
p545
(dp546
g19
F0.21659999999999999
sg20
S'P'
p547
sbasg20
S'P'
p548
sba(iBasisSets
BasisFunction
p549
(dp550
g13
(lp551
F1.0
asg15
(lp552
(iBasisSets
PrimitiveFunction
p553
(dp554
g19
F0.065680000000000002
sg20
S'P'
p555
sbasg20
S'P'
p556
sbasg71
(lp557
(iBasisSets
BasisFunction
p558
(dp559
g13
(lp560
F1.0
asg15
(lp561
(iBasisSets
PrimitiveFunction
p562
(dp563
g19
F74530.0
sg20
S'S'
p564
sbasg20
S'S'
p565
sba(iBasisSets
BasisFunction
p566
(dp567
g13
(lp568
F1.0
asg15
(lp569
(iBasisSets
PrimitiveFunction
p570
(dp571
g19
F11170.0
sg20
S'S'
p572
sbasg20
S'S'
p573
sba(iBasisSets
BasisFunction
p574
(dp575
g13
(lp576
F1.0
asg15
(lp577
(iBasisSets
PrimitiveFunction
p578
(dp579
g19
F2543.0
sg20
S'S'
p580
sbasg20
S'S'
p581
sba(iBasisSets
BasisFunction
p582
(dp583
g13
(lp584
F1.0
asg15
(lp585
(iBasisSets
PrimitiveFunction
p586
(dp587
g19
F721.0
sg20
S'S'
p588
sbasg20
S'S'
p589
sba(iBasisSets
BasisFunction
p590
(dp591
g13
(lp592
F1.0
asg15
(lp593
(iBasisSets
PrimitiveFunction
p594
(dp595
g19
F235.90000000000001
sg20
S'S'
p596
sbasg20
S'S'
p597
sba(iBasisSets
BasisFunction
p598
(dp599
g13
(lp600
F1.0
asg15
(lp601
(iBasisSets
PrimitiveFunction
p602
(dp603
g19
F85.599999999999994
sg20
S'S'
p604
sbasg20
S'S'
p605
sba(iBasisSets
BasisFunction
p606
(dp607
g13
(lp608
F1.0
asg15
(lp609
(iBasisSets
PrimitiveFunction
p610
(dp611
g19
F33.549999999999997
sg20
S'S'
p612
sbasg20
S'S'
p613
sba(iBasisSets
BasisFunction
p614
(dp615
g13
(lp616
F1.0
asg15
(lp617
(iBasisSets
PrimitiveFunction
p618
(dp619
g19
F13.93
sg20
S'S'
p620
sbasg20
S'S'
p621
sba(iBasisSets
BasisFunction
p622
(dp623
g13
(lp624
F1.0
asg15
(lp625
(iBasisSets
PrimitiveFunction
p626
(dp627
g19
F5.915
sg20
S'S'
p628
sbasg20
S'S'
p629
sba(iBasisSets
BasisFunction
p630
(dp631
g13
(lp632
F1.0
asg15
(lp633
(iBasisSets
PrimitiveFunction
p634
(dp635
g19
F1.843
sg20
S'S'
p636
sbasg20
S'S'
p637
sba(iBasisSets
BasisFunction
p638
(dp639
g13
(lp640
F1.0
asg15
(lp641
(iBasisSets
PrimitiveFunction
p642
(dp643
g19
F0.71240000000000003
sg20
S'S'
p644
sbasg20
S'S'
p645
sba(iBasisSets
BasisFunction
p646
(dp647
g13
(lp648
F1.0
asg15
(lp649
(iBasisSets
PrimitiveFunction
p650
(dp651
g19
F0.26369999999999999
sg20
S'S'
p652
sbasg20
S'S'
p653
sba(iBasisSets
BasisFunction
p654
(dp655
g13
(lp656
F1.0
asg15
(lp657
(iBasisSets
PrimitiveFunction
p658
(dp659
g19
F0.085940000000000003
sg20
S'S'
p660
sbasg20
S'S'
p661
sbasg177
(lp662
(iBasisSets
BasisFunction
p663
(dp664
g13
(lp665
F1.0
asg15
(lp666
(iBasisSets
PrimitiveFunction
p667
(dp668
g19
F5.0140000000000002
sg20
S'D'
p669
sbasg20
S'D'
p670
sba(iBasisSets
BasisFunction
p671
(dp672
g13
(lp673
F1.0
asg15
(lp674
(iBasisSets
PrimitiveFunction
p675
(dp676
g19
F1.7250000000000001
sg20
S'D'
p677
sbasg20
S'D'
p678
sba(iBasisSets
BasisFunction
p679
(dp680
g13
(lp681
F1.0
asg15
(lp682
(iBasisSets
PrimitiveFunction
p683
(dp684
g19
F0.58599999999999997
sg20
S'D'
p685
sbasg20
S'D'
p686
sba(iBasisSets
BasisFunction
p687
(dp688
g13
(lp689
F1.0
asg15
(lp690
(iBasisSets
PrimitiveFunction
p691
(dp692
g19
F0.20699999999999999
sg20
S'D'
p693
sbasg20
S'D'
p694
sbasg211
(lp695
(iBasisSets
BasisFunction
p696
(dp697
g13
(lp698
F1.0
asg15
(lp699
(iBasisSets
PrimitiveFunction
p700
(dp701
g19
F2.3759999999999999
sg20
S'G'
p702
sbasg20
S'G'
p703
sba(iBasisSets
BasisFunction
p704
(dp705
g13
(lp706
F1.0
asg15
(lp707
(iBasisSets
PrimitiveFunction
p708
(dp709
g19
F0.92400000000000004
sg20
S'G'
p710
sbasg20
S'G'
p711
sbasg229
(lp712
(iBasisSets
BasisFunction
p713
(dp714
g13
(lp715
F1.0
asg15
(lp716
(iBasisSets
PrimitiveFunction
p717
(dp718
g19
F3.5619999999999998
sg20
S'F'
p719
sbasg20
S'F'
p720
sba(iBasisSets
BasisFunction
p721
(dp722
g13
(lp723
F1.0
asg15
(lp724
(iBasisSets
PrimitiveFunction
p725
(dp726
g19
F1.1479999999999999
sg20
S'F'
p727
sbasg20
S'F'
p728
sba(iBasisSets
BasisFunction
p729
(dp730
g13
(lp731
F1.0
asg15
(lp732
(iBasisSets
PrimitiveFunction
p733
(dp734
g19
F0.46000000000000002
sg20
S'F'
p735
sbasg20
S'F'
p736
sbassbsS'H'
p737
(iBasisSets
AtomBasis
p738
(dp739
S'basisDictionary'
p740
(dp741
S'P'
p742
(lp743
(iBasisSets
BasisFunction
p744
(dp745
S'coefficientList'
p746
(lp747
F1.0
asS'primitiveList'
p748
(lp749
(iBasisSets
PrimitiveFunction
p750
(dp751
S'exponent'
p752
F2.2919999999999998
sS'angularMomentum'
p753
S'P'
p754
sbasg753
S'P'
p755
sba(iBasisSets
BasisFunction
p756
(dp757
g746
(lp758
F1.0
asg748
(lp759
(iBasisSets
PrimitiveFunction
p760
(dp761
g752
F0.83799999999999997
sg753
S'P'
p762
sbasg753
S'P'
p763
sba(iBasisSets
BasisFunction
p764
(dp765
g746
(lp766
F1.0
asg748
(lp767
(iBasisSets
PrimitiveFunction
p768
(dp769
g752
F0.29199999999999998
sg753
S'P'
p770
sbasg753
S'P'
p771
sba(iBasisSets
BasisFunction
p772
(dp773
g746
(lp774
F1.0
asg748
(lp775
(iBasisSets
PrimitiveFunction
p776
(dp777
g752
F0.0848
sg753
S'P'
p778
sbasg753
S'P'
p779
sbasS'S'
p780
(lp781
(iBasisSets
BasisFunction
p782
(dp783
g746
(lp784
F1.0
asg748
(lp785
(iBasisSets
PrimitiveFunction
p786
(dp787
g752
F82.640000000000001
sg753
S'S'
p788
sbasg753
S'S'
p789
sba(iBasisSets
BasisFunction
p790
(dp791
g746
(lp792
F1.0
asg748
(lp793
(iBasisSets
PrimitiveFunction
p794
(dp795
g752
F12.41
sg753
S'S'
p796
sbasg753
S'S'
p797
sba(iBasisSets
BasisFunction
p798
(dp799
g746
(lp800
F1.0
asg748
(lp801
(iBasisSets
PrimitiveFunction
p802
(dp803
g752
F2.8239999999999998
sg753
S'S'
p804
sbasg753
S'S'
p805
sba(iBasisSets
BasisFunction
p806
(dp807
g746
(lp808
F1.0
asg748
(lp809
(iBasisSets
PrimitiveFunction
p810
(dp811
g752
F0.79769999999999996
sg753
S'S'
p812
sbasg753
S'S'
p813
sba(iBasisSets
BasisFunction
p814
(dp815
g746
(lp816
F1.0
asg748
(lp817
(iBasisSets
PrimitiveFunction
p818
(dp819
g752
F0.2581
sg753
S'S'
p820
sbasg753
S'S'
p821
sba(iBasisSets
BasisFunction
p822
(dp823
g746
(lp824
F1.0
asg748
(lp825
(iBasisSets
PrimitiveFunction
p826
(dp827
g752
F0.089889999999999998
sg753
S'S'
p828
sbasg753
S'S'
p829
sba(iBasisSets
BasisFunction
p830
(dp831
g746
(lp832
F1.0
asg748
(lp833
(iBasisSets
PrimitiveFunction
p834
(dp835
g752
F0.023630000000000002
sg753
S'S'
p836
sbasg753
S'S'
p837
sbasS'D'
p838
(lp839
(iBasisSets
BasisFunction
p840
(dp841
g746
(lp842
F1.0
asg748
(lp843
(iBasisSets
PrimitiveFunction
p844
(dp845
g752
F2.0619999999999998
sg753
S'D'
p846
sbasg753
S'D'
p847
sba(iBasisSets
BasisFunction
p848
(dp849
g746
(lp850
F1.0
asg748
(lp851
(iBasisSets
PrimitiveFunction
p852
(dp853
g752
F0.66200000000000003
sg753
S'D'
p854
sbasg753
S'D'
p855
sba(iBasisSets
BasisFunction
p856
(dp857
g746
(lp858
F1.0
asg748
(lp859
(iBasisSets
PrimitiveFunction
p860
(dp861
g752
F0.19
sg753
S'D'
p862
sbasg753
S'D'
p863
sbasS'F'
p864
(lp865
(iBasisSets
BasisFunction
p866
(dp867
g746
(lp868
F1.0
asg748
(lp869
(iBasisSets
PrimitiveFunction
p870
(dp871
g752
F1.397
sg753
S'F'
p872
sbasg753
S'F'
p873
sba(iBasisSets
BasisFunction
p874
(dp875
g746
(lp876
F1.0
asg748
(lp877
(iBasisSets
PrimitiveFunction
p878
(dp879
g752
F0.35999999999999999
sg753
S'F'
p880
sbasg753
S'F'
p881
sbassbsS'NE'
p882
(iBasisSets
AtomBasis
p883
(dp884
g7
(dp885
g9
(lp886
(iBasisSets
BasisFunction
p887
(dp888
g13
(lp889
F1.0
asg15
(lp890
(iBasisSets
PrimitiveFunction
p891
(dp892
g19
F99.680000000000007
sg20
S'P'
p893
sbasg20
S'P'
p894
sba(iBasisSets
BasisFunction
p895
(dp896
g13
(lp897
F1.0
asg15
(lp898
(iBasisSets
PrimitiveFunction
p899
(dp900
g19
F23.149999999999999
sg20
S'P'
p901
sbasg20
S'P'
p902
sba(iBasisSets
BasisFunction
p903
(dp904
g13
(lp905
F1.0
asg15
(lp906
(iBasisSets
PrimitiveFunction
p907
(dp908
g19
F7.1079999999999997
sg20
S'P'
p909
sbasg20
S'P'
p910
sba(iBasisSets
BasisFunction
p911
(dp912
g13
(lp913
F1.0
asg15
(lp914
(iBasisSets
PrimitiveFunction
p915
(dp916
g19
F2.4409999999999998
sg20
S'P'
p917
sbasg20
S'P'
p918
sba(iBasisSets
BasisFunction
p919
(dp920
g13
(lp921
F1.0
asg15
(lp922
(iBasisSets
PrimitiveFunction
p923
(dp924
g19
F0.83389999999999997
sg20
S'P'
p925
sbasg20
S'P'
p926
sba(iBasisSets
BasisFunction
p927
(dp928
g13
(lp929
F1.0
asg15
(lp930
(iBasisSets
PrimitiveFunction
p931
(dp932
g19
F0.26619999999999999
sg20
S'P'
p933
sbasg20
S'P'
p934
sba(iBasisSets
BasisFunction
p935
(dp936
g13
(lp937
F1.0
asg15
(lp938
(iBasisSets
PrimitiveFunction
p939
(dp940
g19
F0.081780000000000005
sg20
S'P'
p941
sbasg20
S'P'
p942
sbasg71
(lp943
(iBasisSets
BasisFunction
p944
(dp945
g13
(lp946
F1.0
asg15
(lp947
(iBasisSets
PrimitiveFunction
p948
(dp949
g19
F99920.0
sg20
S'S'
p950
sbasg20
S'S'
p951
sba(iBasisSets
BasisFunction
p952
(dp953
g13
(lp954
F1.0
asg15
(lp955
(iBasisSets
PrimitiveFunction
p956
(dp957
g19
F14960.0
sg20
S'S'
p958
sbasg20
S'S'
p959
sba(iBasisSets
BasisFunction
p960
(dp961
g13
(lp962
F1.0
asg15
(lp963
(iBasisSets
PrimitiveFunction
p964
(dp965
g19
F3399.0
sg20
S'S'
p966
sbasg20
S'S'
p967
sba(iBasisSets
BasisFunction
p968
(dp969
g13
(lp970
F1.0
asg15
(lp971
(iBasisSets
PrimitiveFunction
p972
(dp973
g19
F958.89999999999998
sg20
S'S'
p974
sbasg20
S'S'
p975
sba(iBasisSets
BasisFunction
p976
(dp977
g13
(lp978
F1.0
asg15
(lp979
(iBasisSets
PrimitiveFunction
p980
(dp981
g19
F311.19999999999999
sg20
S'S'
p982
sbasg20
S'S'
p983
sba(iBasisSets
BasisFunction
p984
(dp985
g13
(lp986
F1.0
asg15
(lp987
(iBasisSets
PrimitiveFunction
p988
(dp989
g19
F111.7
sg20
S'S'
p990
sbasg20
S'S'
p991
sba(iBasisSets
BasisFunction
p992
(dp993
g13
(lp994
F1.0
asg15
(lp995
(iBasisSets
PrimitiveFunction
p996
(dp997
g19
F43.32
sg20
S'S'
p998
sbasg20
S'S'
p999
sba(iBasisSets
BasisFunction
p1000
(dp1001
g13
(lp1002
F1.0
asg15
(lp1003
(iBasisSets
PrimitiveFunction
p1004
(dp1005
g19
F17.800000000000001
sg20
S'S'
p1006
sbasg20
S'S'
p1007
sba(iBasisSets
BasisFunction
p1008
(dp1009
g13
(lp1010
F1.0
asg15
(lp1011
(iBasisSets
PrimitiveFunction
p1012
(dp1013
g19
F7.5030000000000001
sg20
S'S'
p1014
sbasg20
S'S'
p1015
sba(iBasisSets
BasisFunction
p1016
(dp1017
g13
(lp1018
F1.0
asg15
(lp1019
(iBasisSets
PrimitiveFunction
p1020
(dp1021
g19
F2.3370000000000002
sg20
S'S'
p1022
sbasg20
S'S'
p1023
sba(iBasisSets
BasisFunction
p1024
(dp1025
g13
(lp1026
F1.0
asg15
(lp1027
(iBasisSets
PrimitiveFunction
p1028
(dp1029
g19
F0.90010000000000001
sg20
S'S'
p1030
sbasg20
S'S'
p1031
sba(iBasisSets
BasisFunction
p1032
(dp1033
g13
(lp1034
F1.0
asg15
(lp1035
(iBasisSets
PrimitiveFunction
p1036
(dp1037
g19
F0.3301
sg20
S'S'
p1038
sbasg20
S'S'
p1039
sba(iBasisSets
BasisFunction
p1040
(dp1041
g13
(lp1042
F1.0
asg15
(lp1043
(iBasisSets
PrimitiveFunction
p1044
(dp1045
g19
F0.10539999999999999
sg20
S'S'
p1046
sbasg20
S'S'
p1047
sbasg177
(lp1048
(iBasisSets
BasisFunction
p1049
(dp1050
g13
(lp1051
F1.0
asg15
(lp1052
(iBasisSets
PrimitiveFunction
p1053
(dp1054
g19
F6.4710000000000001
sg20
S'D'
p1055
sbasg20
S'D'
p1056
sba(iBasisSets
BasisFunction
p1057
(dp1058
g13
(lp1059
F1.0
asg15
(lp1060
(iBasisSets
PrimitiveFunction
p1061
(dp1062
g19
F2.2130000000000001
sg20
S'D'
p1063
sbasg20
S'D'
p1064
sba(iBasisSets
BasisFunction
p1065
(dp1066
g13
(lp1067
F1.0
asg15
(lp1068
(iBasisSets
PrimitiveFunction
p1069
(dp1070
g19
F0.747
sg20
S'D'
p1071
sbasg20
S'D'
p1072
sba(iBasisSets
BasisFunction
p1073
(dp1074
g13
(lp1075
F1.0
asg15
(lp1076
(iBasisSets
PrimitiveFunction
p1077
(dp1078
g19
F0.27300000000000002
sg20
S'D'
p1079
sbasg20
S'D'
p1080
sbasg211
(lp1081
(iBasisSets
BasisFunction
p1082
(dp1083
g13
(lp1084
F1.0
asg15
(lp1085
(iBasisSets
PrimitiveFunction
p1086
(dp1087
g19
F2.9830000000000001
sg20
S'G'
p1088
sbasg20
S'G'
p1089
sba(iBasisSets
BasisFunction
p1090
(dp1091
g13
(lp1092
F1.0
asg15
(lp1093
(iBasisSets
PrimitiveFunction
p1094
(dp1095
g19
F1.224
sg20
S'G'
p1096
sbasg20
S'G'
p1097
sbasg229
(lp1098
(iBasisSets
BasisFunction
p1099
(dp1100
g13
(lp1101
F1.0
asg15
(lp1102
(iBasisSets
PrimitiveFunction
p1103
(dp1104
g19
F4.657
sg20
S'F'
p1105
sbasg20
S'F'
p1106
sba(iBasisSets
BasisFunction
p1107
(dp1108
g13
(lp1109
F1.0
asg15
(lp1110
(iBasisSets
PrimitiveFunction
p1111
(dp1112
g19
F1.524
sg20
S'F'
p1113
sbasg20
S'F'
p1114
sba(iBasisSets
BasisFunction
p1115
(dp1116
g13
(lp1117
F1.0
asg15
(lp1118
(iBasisSets
PrimitiveFunction
p1119
(dp1120
g19
F0.68899999999999995
sg20
S'F'
p1121
sbasg20
S'F'
p1122
sbassbsS'O'
p1123
(iBasisSets
AtomBasis
p1124
(dp1125
g740
(dp1126
g742
(lp1127
(iBasisSets
BasisFunction
p1128
(dp1129
g746
(lp1130
F1.0
asg748
(lp1131
(iBasisSets
PrimitiveFunction
p1132
(dp1133
g752
F63.420000000000002
sg753
S'P'
p1134
sbasg753
S'P'
p1135
sba(iBasisSets
BasisFunction
p1136
(dp1137
g746
(lp1138
F1.0
asg748
(lp1139
(iBasisSets
PrimitiveFunction
p1140
(dp1141
g752
F14.66
sg753
S'P'
p1142
sbasg753
S'P'
p1143
sba(iBasisSets
BasisFunction
p1144
(dp1145
g746
(lp1146
F1.0
asg748
(lp1147
(iBasisSets
PrimitiveFunction
p1148
(dp1149
g752
F4.4589999999999996
sg753
S'P'
p1150
sbasg753
S'P'
p1151
sba(iBasisSets
BasisFunction
p1152
(dp1153
g746
(lp1154
F1.0
asg748
(lp1155
(iBasisSets
PrimitiveFunction
p1156
(dp1157
g752
F1.5309999999999999
sg753
S'P'
p1158
sbasg753
S'P'
p1159
sba(iBasisSets
BasisFunction
p1160
(dp1161
g746
(lp1162
F1.0
asg748
(lp1163
(iBasisSets
PrimitiveFunction
p1164
(dp1165
g752
F0.5302
sg753
S'P'
p1166
sbasg753
S'P'
p1167
sba(iBasisSets
BasisFunction
p1168
(dp1169
g746
(lp1170
F1.0
asg748
(lp1171
(iBasisSets
PrimitiveFunction
p1172
(dp1173
g752
F0.17499999999999999
sg753
S'P'
p1174
sbasg753
S'P'
p1175
sba(iBasisSets
BasisFunction
p1176
(dp1177
g746
(lp1178
F1.0
asg748
(lp1179
(iBasisSets
PrimitiveFunction
p1180
(dp1181
g752
F0.05348
sg753
S'P'
p1182
sbasg753
S'P'
p1183
sbasg780
(lp1184
(iBasisSets
BasisFunction
p1185
(dp1186
g746
(lp1187
F1.0
asg748
(lp1188
(iBasisSets
PrimitiveFunction
p1189
(dp1190
g752
F61420.0
sg753
S'S'
p1191
sbasg753
S'S'
p1192
sba(iBasisSets
BasisFunction
p1193
(dp1194
g746
(lp1195
F1.0
asg748
(lp1196
(iBasisSets
PrimitiveFunction
p1197
(dp1198
g752
F9199.0
sg753
S'S'
p1199
sbasg753
S'S'
p1200
sba(iBasisSets
BasisFunction
p1201
(dp1202
g746
(lp1203
F1.0
asg748
(lp1204
(iBasisSets
PrimitiveFunction
p1205
(dp1206
g752
F2091.0
sg753
S'S'
p1207
sbasg753
S'S'
p1208
sba(iBasisSets
BasisFunction
p1209
(dp1210
g746
(lp1211
F1.0
asg748
(lp1212
(iBasisSets
PrimitiveFunction
p1213
(dp1214
g752
F590.89999999999998
sg753
S'S'
p1215
sbasg753
S'S'
p1216
sba(iBasisSets
BasisFunction
p1217
(dp1218
g746
(lp1219
F1.0
asg748
(lp1220
(iBasisSets
PrimitiveFunction
p1221
(dp1222
g752
F192.30000000000001
sg753
S'S'
p1223
sbasg753
S'S'
p1224
sba(iBasisSets
BasisFunction
p1225
(dp1226
g746
(lp1227
F1.0
asg748
(lp1228
(iBasisSets
PrimitiveFunction
p1229
(dp1230
g752
F69.319999999999993
sg753
S'S'
p1231
sbasg753
S'S'
p1232
sba(iBasisSets
BasisFunction
p1233
(dp1234
g746
(lp1235
F1.0
asg748
(lp1236
(iBasisSets
PrimitiveFunction
p1237
(dp1238
g752
F26.969999999999999
sg753
S'S'
p1239
sbasg753
S'S'
p1240
sba(iBasisSets
BasisFunction
p1241
(dp1242
g746
(lp1243
F1.0
asg748
(lp1244
(iBasisSets
PrimitiveFunction
p1245
(dp1246
g752
F11.1
sg753
S'S'
p1247
sbasg753
S'S'
p1248
sba(iBasisSets
BasisFunction
p1249
(dp1250
g746
(lp1251
F1.0
asg748
(lp1252
(iBasisSets
PrimitiveFunction
p1253
(dp1254
g752
F4.6820000000000004
sg753
S'S'
p1255
sbasg753
S'S'
p1256
sba(iBasisSets
BasisFunction
p1257
(dp1258
g746
(lp1259
F1.0
asg748
(lp1260
(iBasisSets
PrimitiveFunction
p1261
(dp1262
g752
F1.4279999999999999
sg753
S'S'
p1263
sbasg753
S'S'
p1264
sba(iBasisSets
BasisFunction
p1265
(dp1266
g746
(lp1267
F1.0
asg748
(lp1268
(iBasisSets
PrimitiveFunction
p1269
(dp1270
g752
F0.55469999999999997
sg753
S'S'
p1271
sbasg753
S'S'
p1272
sba(iBasisSets
BasisFunction
p1273
(dp1274
g746
(lp1275
F1.0
asg748
(lp1276
(iBasisSets
PrimitiveFunction
p1277
(dp1278
g752
F0.20669999999999999
sg753
S'S'
p1279
sbasg753
S'S'
p1280
sba(iBasisSets
BasisFunction
p1281
(dp1282
g746
(lp1283
F1.0
asg748
(lp1284
(iBasisSets
PrimitiveFunction
p1285
(dp1286
g752
F0.069589999999999999
sg753
S'S'
p1287
sbasg753
S'S'
p1288
sbasg838
(lp1289
(iBasisSets
BasisFunction
p1290
(dp1291
g746
(lp1292
F1.0
asg748
(lp1293
(iBasisSets
PrimitiveFunction
p1294
(dp1295
g752
F3.7749999999999999
sg753
S'D'
p1296
sbasg753
S'D'
p1297
sba(iBasisSets
BasisFunction
p1298
(dp1299
g746
(lp1300
F1.0
asg748
(lp1301
(iBasisSets
PrimitiveFunction
p1302
(dp1303
g752
F1.3
sg753
S'D'
p1304
sbasg753
S'D'
p1305
sba(iBasisSets
BasisFunction
p1306
(dp1307
g746
(lp1308
F1.0
asg748
(lp1309
(iBasisSets
PrimitiveFunction
p1310
(dp1311
g752
F0.44400000000000001
sg753
S'D'
p1312
sbasg753
S'D'
p1313
sba(iBasisSets
BasisFunction
p1314
(dp1315
g746
(lp1316
F1.0
asg748
(lp1317
(iBasisSets
PrimitiveFunction
p1318
(dp1319
g752
F0.154
sg753
S'D'
p1320
sbasg753
S'D'
p1321
sbasS'G'
p1322
(lp1323
(iBasisSets
BasisFunction
p1324
(dp1325
g746
(lp1326
F1.0
asg748
(lp1327
(iBasisSets
PrimitiveFunction
p1328
(dp1329
g752
F1.8460000000000001
sg753
S'G'
p1330
sbasg753
S'G'
p1331
sba(iBasisSets
BasisFunction
p1332
(dp1333
g746
(lp1334
F1.0
asg748
(lp1335
(iBasisSets
PrimitiveFunction
p1336
(dp1337
g752
F0.71399999999999997
sg753
S'G'
p1338
sbasg753
S'G'
p1339
sbasg864
(lp1340
(iBasisSets
BasisFunction
p1341
(dp1342
g746
(lp1343
F1.0
asg748
(lp1344
(iBasisSets
PrimitiveFunction
p1345
(dp1346
g752
F2.6659999999999999
sg753
S'F'
p1347
sbasg753
S'F'
p1348
sba(iBasisSets
BasisFunction
p1349
(dp1350
g746
(lp1351
F1.0
asg748
(lp1352
(iBasisSets
PrimitiveFunction
p1353
(dp1354
g752
F0.85899999999999999
sg753
S'F'
p1355
sbasg753
S'F'
p1356
sba(iBasisSets
BasisFunction
p1357
(dp1358
g746
(lp1359
F1.0
asg748
(lp1360
(iBasisSets
PrimitiveFunction
p1361
(dp1362
g752
F0.32400000000000001
sg753
S'F'
p1363
sbasg753
S'F'
p1364
sbassbsS'N'
p1365
(iBasisSets
AtomBasis
p1366
(dp1367
g7
(dp1368
g9
(lp1369
(iBasisSets
BasisFunction
p1370
(dp1371
g13
(lp1372
F1.0
asg15
(lp1373
(iBasisSets
PrimitiveFunction
p1374
(dp1375
g19
F49.329999999999998
sg20
S'P'
p1376
sbasg20
S'P'
p1377
sba(iBasisSets
BasisFunction
p1378
(dp1379
g13
(lp1380
F1.0
asg15
(lp1381
(iBasisSets
PrimitiveFunction
p1382
(dp1383
g19
F11.369999999999999
sg20
S'P'
p1384
sbasg20
S'P'
p1385
sba(iBasisSets
BasisFunction
p1386
(dp1387
g13
(lp1388
F1.0
asg15
(lp1389
(iBasisSets
PrimitiveFunction
p1390
(dp1391
g19
F3.4350000000000001
sg20
S'P'
p1392
sbasg20
S'P'
p1393
sba(iBasisSets
BasisFunction
p1394
(dp1395
g13
(lp1396
F1.0
asg15
(lp1397
(iBasisSets
PrimitiveFunction
p1398
(dp1399
g19
F1.1819999999999999
sg20
S'P'
p1400
sbasg20
S'P'
p1401
sba(iBasisSets
BasisFunction
p1402
(dp1403
g13
(lp1404
F1.0
asg15
(lp1405
(iBasisSets
PrimitiveFunction
p1406
(dp1407
g19
F0.4173
sg20
S'P'
p1408
sbasg20
S'P'
p1409
sba(iBasisSets
BasisFunction
p1410
(dp1411
g13
(lp1412
F1.0
asg15
(lp1413
(iBasisSets
PrimitiveFunction
p1414
(dp1415
g19
F0.14280000000000001
sg20
S'P'
p1416
sbasg20
S'P'
p1417
sba(iBasisSets
BasisFunction
p1418
(dp1419
g13
(lp1420
F1.0
asg15
(lp1421
(iBasisSets
PrimitiveFunction
p1422
(dp1423
g19
F0.044019999999999997
sg20
S'P'
p1424
sbasg20
S'P'
p1425
sbasg71
(lp1426
(iBasisSets
BasisFunction
p1427
(dp1428
g13
(lp1429
F1.0
asg15
(lp1430
(iBasisSets
PrimitiveFunction
p1431
(dp1432
g19
F45840.0
sg20
S'S'
p1433
sbasg20
S'S'
p1434
sba(iBasisSets
BasisFunction
p1435
(dp1436
g13
(lp1437
F1.0
asg15
(lp1438
(iBasisSets
PrimitiveFunction
p1439
(dp1440
g19
F6868.0
sg20
S'S'
p1441
sbasg20
S'S'
p1442
sba(iBasisSets
BasisFunction
p1443
(dp1444
g13
(lp1445
F1.0
asg15
(lp1446
(iBasisSets
PrimitiveFunction
p1447
(dp1448
g19
F1563.0
sg20
S'S'
p1449
sbasg20
S'S'
p1450
sba(iBasisSets
BasisFunction
p1451
(dp1452
g13
(lp1453
F1.0
asg15
(lp1454
(iBasisSets
PrimitiveFunction
p1455
(dp1456
g19
F442.39999999999998
sg20
S'S'
p1457
sbasg20
S'S'
p1458
sba(iBasisSets
BasisFunction
p1459
(dp1460
g13
(lp1461
F1.0
asg15
(lp1462
(iBasisSets
PrimitiveFunction
p1463
(dp1464
g19
F144.30000000000001
sg20
S'S'
p1465
sbasg20
S'S'
p1466
sba(iBasisSets
BasisFunction
p1467
(dp1468
g13
(lp1469
F1.0
asg15
(lp1470
(iBasisSets
PrimitiveFunction
p1471
(dp1472
g19
F52.18
sg20
S'S'
p1473
sbasg20
S'S'
p1474
sba(iBasisSets
BasisFunction
p1475
(dp1476
g13
(lp1477
F1.0
asg15
(lp1478
(iBasisSets
PrimitiveFunction
p1479
(dp1480
g19
F20.34
sg20
S'S'
p1481
sbasg20
S'S'
p1482
sba(iBasisSets
BasisFunction
p1483
(dp1484
g13
(lp1485
F1.0
asg15
(lp1486
(iBasisSets
PrimitiveFunction
p1487
(dp1488
g19
F8.3810000000000002
sg20
S'S'
p1489
sbasg20
S'S'
p1490
sba(iBasisSets
BasisFunction
p1491
(dp1492
g13
(lp1493
F1.0
asg15
(lp1494
(iBasisSets
PrimitiveFunction
p1495
(dp1496
g19
F3.5289999999999999
sg20
S'S'
p1497
sbasg20
S'S'
p1498
sba(iBasisSets
BasisFunction
p1499
(dp1500
g13
(lp1501
F1.0
asg15
(lp1502
(iBasisSets
PrimitiveFunction
p1503
(dp1504
g19
F1.054
sg20
S'S'
p1505
sbasg20
S'S'
p1506
sba(iBasisSets
BasisFunction
p1507
(dp1508
g13
(lp1509
F1.0
asg15
(lp1510
(iBasisSets
PrimitiveFunction
p1511
(dp1512
g19
F0.4118
sg20
S'S'
p1513
sbasg20
S'S'
p1514
sba(iBasisSets
BasisFunction
p1515
(dp1516
g13
(lp1517
F1.0
asg15
(lp1518
(iBasisSets
PrimitiveFunction
p1519
(dp1520
g19
F0.1552
sg20
S'S'
p1521
sbasg20
S'S'
p1522
sba(iBasisSets
BasisFunction
p1523
(dp1524
g13
(lp1525
F1.0
asg15
(lp1526
(iBasisSets
PrimitiveFunction
p1527
(dp1528
g19
F0.054640000000000001
sg20
S'S'
p1529
sbasg20
S'S'
p1530
sbasg177
(lp1531
(iBasisSets
BasisFunction
p1532
(dp1533
g13
(lp1534
F1.0
asg15
(lp1535
(iBasisSets
PrimitiveFunction
p1536
(dp1537
g19
F2.8370000000000002
sg20
S'D'
p1538
sbasg20
S'D'
p1539
sba(iBasisSets
BasisFunction
p1540
(dp1541
g13
(lp1542
F1.0
asg15
(lp1543
(iBasisSets
PrimitiveFunction
p1544
(dp1545
g19
F0.96799999999999997
sg20
S'D'
p1546
sbasg20
S'D'
p1547
sba(iBasisSets
BasisFunction
p1548
(dp1549
g13
(lp1550
F1.0
asg15
(lp1551
(iBasisSets
PrimitiveFunction
p1552
(dp1553
g19
F0.33500000000000002
sg20
S'D'
p1554
sbasg20
S'D'
p1555
sba(iBasisSets
BasisFunction
p1556
(dp1557
g13
(lp1558
F1.0
asg15
(lp1559
(iBasisSets
PrimitiveFunction
p1560
(dp1561
g19
F0.111
sg20
S'D'
p1562
sbasg20
S'D'
p1563
sbasg211
(lp1564
(iBasisSets
BasisFunction
p1565
(dp1566
g13
(lp1567
F1.0
asg15
(lp1568
(iBasisSets
PrimitiveFunction
p1569
(dp1570
g19
F1.427
sg20
S'G'
p1571
sbasg20
S'G'
p1572
sba(iBasisSets
BasisFunction
p1573
(dp1574
g13
(lp1575
F1.0
asg15
(lp1576
(iBasisSets
PrimitiveFunction
p1577
(dp1578
g19
F0.55900000000000005
sg20
S'G'
p1579
sbasg20
S'G'
p1580
sbasg229
(lp1581
(iBasisSets
BasisFunction
p1582
(dp1583
g13
(lp1584
F1.0
asg15
(lp1585
(iBasisSets
PrimitiveFunction
p1586
(dp1587
g19
F2.0270000000000001
sg20
S'F'
p1588
sbasg20
S'F'
p1589
sba(iBasisSets
BasisFunction
p1590
(dp1591
g13
(lp1592
F1.0
asg15
(lp1593
(iBasisSets
PrimitiveFunction
p1594
(dp1595
g19
F0.68500000000000005
sg20
S'F'
p1596
sbasg20
S'F'
p1597
sba(iBasisSets
BasisFunction
p1598
(dp1599
g13
(lp1600
F1.0
asg15
(lp1601
(iBasisSets
PrimitiveFunction
p1602
(dp1603
g19
F0.245
sg20
S'F'
p1604
sbasg20
S'F'
p1605
sbassbsS'HE'
p1606
(iBasisSets
AtomBasis
p1607
(dp1608
g7
(dp1609
g9
(lp1610
(iBasisSets
BasisFunction
p1611
(dp1612
g13
(lp1613
F1.0
asg15
(lp1614
(iBasisSets
PrimitiveFunction
p1615
(dp1616
g19
F5.9939999999999998
sg20
S'P'
p1617
sbasg20
S'P'
p1618
sba(iBasisSets
BasisFunction
p1619
(dp1620
g13
(lp1621
F1.0
asg15
(lp1622
(iBasisSets
PrimitiveFunction
p1623
(dp1624
g19
F1.7450000000000001
sg20
S'P'
p1625
sbasg20
S'P'
p1626
sba(iBasisSets
BasisFunction
p1627
(dp1628
g13
(lp1629
F1.0
asg15
(lp1630
(iBasisSets
PrimitiveFunction
p1631
(dp1632
g19
F0.56000000000000005
sg20
S'P'
p1633
sbasg20
S'P'
p1634
sba(iBasisSets
BasisFunction
p1635
(dp1636
g13
(lp1637
F1.0
asg15
(lp1638
(iBasisSets
PrimitiveFunction
p1639
(dp1640
g19
F0.16259999999999999
sg20
S'P'
p1641
sbasg20
S'P'
p1642
sbasg71
(lp1643
(iBasisSets
BasisFunction
p1644
(dp1645
g13
(lp1646
F1.0
asg15
(lp1647
(iBasisSets
PrimitiveFunction
p1648
(dp1649
g19
F528.5
sg20
S'S'
p1650
sbasg20
S'S'
p1651
sba(iBasisSets
BasisFunction
p1652
(dp1653
g13
(lp1654
F1.0
asg15
(lp1655
(iBasisSets
PrimitiveFunction
p1656
(dp1657
g19
F79.310000000000002
sg20
S'S'
p1658
sbasg20
S'S'
p1659
sba(iBasisSets
BasisFunction
p1660
(dp1661
g13
(lp1662
F1.0
asg15
(lp1663
(iBasisSets
PrimitiveFunction
p1664
(dp1665
g19
F18.050000000000001
sg20
S'S'
p1666
sbasg20
S'S'
p1667
sba(iBasisSets
BasisFunction
p1668
(dp1669
g13
(lp1670
F1.0
asg15
(lp1671
(iBasisSets
PrimitiveFunction
p1672
(dp1673
g19
F5.085
sg20
S'S'
p1674
sbasg20
S'S'
p1675
sba(iBasisSets
BasisFunction
p1676
(dp1677
g13
(lp1678
F1.0
asg15
(lp1679
(iBasisSets
PrimitiveFunction
p1680
(dp1681
g19
F1.609
sg20
S'S'
p1682
sbasg20
S'S'
p1683
sba(iBasisSets
BasisFunction
p1684
(dp1685
g13
(lp1686
F1.0
asg15
(lp1687
(iBasisSets
PrimitiveFunction
p1688
(dp1689
g19
F0.5363
sg20
S'S'
p1690
sbasg20
S'S'
p1691
sba(iBasisSets
BasisFunction
p1692
(dp1693
g13
(lp1694
F1.0
asg15
(lp1695
(iBasisSets
PrimitiveFunction
p1696
(dp1697
g19
F0.18329999999999999
sg20
S'S'
p1698
sbasg20
S'S'
p1699
sba(iBasisSets
BasisFunction
p1700
(dp1701
g13
(lp1702
F1.0
asg15
(lp1703
(iBasisSets
PrimitiveFunction
p1704
(dp1705
g19
F0.048189999999999997
sg20
S'S'
p1706
sbasg20
S'S'
p1707
sbasg177
(lp1708
(iBasisSets
BasisFunction
p1709
(dp1710
g13
(lp1711
F1.0
asg15
(lp1712
(iBasisSets
PrimitiveFunction
p1713
(dp1714
g19
F4.2990000000000004
sg20
S'D'
p1715
sbasg20
S'D'
p1716
sba(iBasisSets
BasisFunction
p1717
(dp1718
g13
(lp1719
F1.0
asg15
(lp1720
(iBasisSets
PrimitiveFunction
p1721
(dp1722
g19
F1.2230000000000001
sg20
S'D'
p1723
sbasg20
S'D'
p1724
sba(iBasisSets
BasisFunction
p1725
(dp1726
g13
(lp1727
F1.0
asg15
(lp1728
(iBasisSets
PrimitiveFunction
p1729
(dp1730
g19
F0.35099999999999998
sg20
S'D'
p1731
sbasg20
S'D'
p1732
sbasg229
(lp1733
(iBasisSets
BasisFunction
p1734
(dp1735
g13
(lp1736
F1.0
asg15
(lp1737
(iBasisSets
PrimitiveFunction
p1738
(dp1739
g19
F2.6800000000000002
sg20
S'F'
p1740
sbasg20
S'F'
p1741
sba(iBasisSets
BasisFunction
p1742
(dp1743
g13
(lp1744
F1.0
asg15
(lp1745
(iBasisSets
PrimitiveFunction
p1746
(dp1747
g19
F0.69059999999999999
sg20
S'F'
p1748
sbasg20
S'F'
p1749
sbassbssb.