(ibasisset
BasisSet
p0
(dp1
S'basisDictionary'
p2
(dp3
S'C'
p4
(iBasisSets
AtomBasis
p5
(dp6
S'basisDictionary'
p7
(dp8
S'P'
p9
(lp10
(iBasisSets
BasisFunction
p11
(dp12
S'coefficientList'
p13
(lp14
F0.014031
aF0.086865999999999999
aF0.29021599999999997
aF0.50100800000000001
aF0.34340599999999999
asS'primitiveList'
p15
(lp16
(iBasisSets
PrimitiveFunction
p17
(dp18
S'exponent'
p19
F18.710000000000001
sS'angularMomentum'
p20
S'P'
p21
sba(iBasisSets
PrimitiveFunction
p22
(dp23
g19
F4.133
sg20
S'P'
p24
sba(iBasisSets
PrimitiveFunction
p25
(dp26
g19
F1.2
sg20
S'P'
p27
sba(iBasisSets
PrimitiveFunction
p28
(dp29
g19
F0.38269999999999998
sg20
S'P'
p30
sba(iBasisSets
PrimitiveFunction
p31
(dp32
g19
F0.12089999999999999
sg20
S'P'
p33
sbasg20
S'P'
p34
sba(iBasisSets
BasisFunction
p35
(dp36
g13
(lp37
F1.0
asg15
(lp38
(iBasisSets
PrimitiveFunction
p39
(dp40
g19
F0.38269999999999998
sg20
S'P'
p41
sbasg20
S'P'
p42
sba(iBasisSets
BasisFunction
p43
(dp44
g13
(lp45
F1.0
asg15
(lp46
(iBasisSets
PrimitiveFunction
p47
(dp48
g19
F0.12089999999999999
sg20
S'P'
p49
sbasg20
S'P'
p50
sba(iBasisSets
BasisFunction
p51
(dp52
g13
(lp53
F1.0
asg15
(lp54
(iBasisSets
PrimitiveFunction
p55
(dp56
g19
F0.03569
sg20
S'P'
p57
sbasg20
S'P'
p58
sbasS'S'
p59
(lp60
(iBasisSets
BasisFunction
p61
(dp62
g13
(lp63
F0.000531
aF0.0041079999999999997
aF0.021087000000000002
aF0.081852999999999995
aF0.234817
aF0.43440099999999998
aF0.34612900000000002
aF0.039378000000000003
aF-0.0089829999999999997
aF0.002385
asg15
(lp64
(iBasisSets
PrimitiveFunction
p65
(dp66
g19
F8236.0
sg20
S'S'
p67
sba(iBasisSets
PrimitiveFunction
p68
(dp69
g19
F1235.0
sg20
S'S'
p70
sba(iBasisSets
PrimitiveFunction
p71
(dp72
g19
F280.80000000000001
sg20
S'S'
p73
sba(iBasisSets
PrimitiveFunction
p74
(dp75
g19
F79.269999999999996
sg20
S'S'
p76
sba(iBasisSets
PrimitiveFunction
p77
(dp78
g19
F25.59
sg20
S'S'
p79
sba(iBasisSets
PrimitiveFunction
p80
(dp81
g19
F8.9969999999999999
sg20
S'S'
p82
sba(iBasisSets
PrimitiveFunction
p83
(dp84
g19
F3.319
sg20
S'S'
p85
sba(iBasisSets
PrimitiveFunction
p86
(dp87
g19
F0.90590000000000004
sg20
S'S'
p88
sba(iBasisSets
PrimitiveFunction
p89
(dp90
g19
F0.36430000000000001
sg20
S'S'
p91
sba(iBasisSets
PrimitiveFunction
p92
(dp93
g19
F0.1285
sg20
S'S'
p94
sbasg20
S'S'
p95
sba(iBasisSets
BasisFunction
p96
(dp97
g13
(lp98
F-0.000113
aF-0.00087799999999999998
aF-0.0045399999999999998
aF-0.018133
aF-0.055759999999999997
aF-0.12689500000000001
aF-0.170352
aF0.14038200000000001
aF0.59868399999999999
aF0.39538899999999999
asg15
(lp99
(iBasisSets
PrimitiveFunction
p100
(dp101
g19
F8236.0
sg20
S'S'
p102
sba(iBasisSets
PrimitiveFunction
p103
(dp104
g19
F1235.0
sg20
S'S'
p105
sba(iBasisSets
PrimitiveFunction
p106
(dp107
g19
F280.80000000000001
sg20
S'S'
p108
sba(iBasisSets
PrimitiveFunction
p109
(dp110
g19
F79.269999999999996
sg20
S'S'
p111
sba(iBasisSets
PrimitiveFunction
p112
(dp113
g19
F25.59
sg20
S'S'
p114
sba(iBasisSets
PrimitiveFunction
p115
(dp116
g19
F8.9969999999999999
sg20
S'S'
p117
sba(iBasisSets
PrimitiveFunction
p118
(dp119
g19
F3.319
sg20
S'S'
p120
sba(iBasisSets
PrimitiveFunction
p121
(dp122
g19
F0.90590000000000004
sg20
S'S'
p123
sba(iBasisSets
PrimitiveFunction
p124
(dp125
g19
F0.36430000000000001
sg20
S'S'
p126
sba(iBasisSets
PrimitiveFunction
p127
(dp128
g19
F0.1285
sg20
S'S'
p129
sbasg20
S'S'
p130
sba(iBasisSets
BasisFunction
p131
(dp132
g13
(lp133
F1.0
asg15
(lp134
(iBasisSets
PrimitiveFunction
p135
(dp136
g19
F0.90590000000000004
sg20
S'S'
p137
sbasg20
S'S'
p138
sba(iBasisSets
BasisFunction
p139
(dp140
g13
(lp141
F1.0
asg15
(lp142
(iBasisSets
PrimitiveFunction
p143
(dp144
g19
F0.1285
sg20
S'S'
p145
sbasg20
S'S'
p146
sba(iBasisSets
BasisFunction
p147
(dp148
g13
(lp149
F1.0
asg15
(lp150
(iBasisSets
PrimitiveFunction
p151
(dp152
g19
F0.044019999999999997
sg20
S'S'
p153
sbasg20
S'S'
p154
sbasS'D'
p155
(lp156
(iBasisSets
BasisFunction
p157
(dp158
g13
(lp159
F1.0
asg15
(lp160
(iBasisSets
PrimitiveFunction
p161
(dp162
g19
F1.097
sg20
S'D'
p163
sbasg20
S'D'
p164
sba(iBasisSets
BasisFunction
p165
(dp166
g13
(lp167
F1.0
asg15
(lp168
(iBasisSets
PrimitiveFunction
p169
(dp170
g19
F0.318
sg20
S'D'
p171
sbasg20
S'D'
p172
sba(iBasisSets
BasisFunction
p173
(dp174
g13
(lp175
F1.0
asg15
(lp176
(iBasisSets
PrimitiveFunction
p177
(dp178
g19
F0.10000000000000001
sg20
S'D'
p179
sbasg20
S'D'
p180
sbasS'F'
p181
(lp182
(iBasisSets
BasisFunction
p183
(dp184
g13
(lp185
F1.0
asg15
(lp186
(iBasisSets
PrimitiveFunction
p187
(dp188
g19
F0.76100000000000001
sg20
S'F'
p189
sbasg20
S'F'
p190
sba(iBasisSets
BasisFunction
p191
(dp192
g13
(lp193
F1.0
asg15
(lp194
(iBasisSets
PrimitiveFunction
p195
(dp196
g19
F0.26800000000000002
sg20
S'F'
p197
sbasg20
S'F'
p198
sbassbsS'B'
p199
(iBasisSets
AtomBasis
p200
(dp201
g7
(dp202
g9
(lp203
(iBasisSets
BasisFunction
p204
(dp205
g13
(lp206
F0.013117999999999999
aF0.079895999999999995
aF0.27727499999999999
aF0.50427
aF0.35367999999999999
asg15
(lp207
(iBasisSets
PrimitiveFunction
p208
(dp209
g19
F12.050000000000001
sg20
S'P'
p210
sba(iBasisSets
PrimitiveFunction
p211
(dp212
g19
F2.613
sg20
S'P'
p213
sba(iBasisSets
PrimitiveFunction
p214
(dp215
g19
F0.74750000000000005
sg20
S'P'
p216
sba(iBasisSets
PrimitiveFunction
p217
(dp218
g19
F0.23849999999999999
sg20
S'P'
p219
sba(iBasisSets
PrimitiveFunction
p220
(dp221
g19
F0.076980000000000007
sg20
S'P'
p222
sbasg20
S'P'
p223
sba(iBasisSets
BasisFunction
p224
(dp225
g13
(lp226
F1.0
asg15
(lp227
(iBasisSets
PrimitiveFunction
p228
(dp229
g19
F0.23849999999999999
sg20
S'P'
p230
sbasg20
S'P'
p231
sba(iBasisSets
BasisFunction
p232
(dp233
g13
(lp234
F1.0
asg15
(lp235
(iBasisSets
PrimitiveFunction
p236
(dp237
g19
F0.076980000000000007
sg20
S'P'
p238
sbasg20
S'P'
p239
sba(iBasisSets
BasisFunction
p240
(dp241
g13
(lp242
F1.0
asg15
(lp243
(iBasisSets
PrimitiveFunction
p244
(dp245
g19
F0.020959999999999999
sg20
S'P'
p246
sbasg20
S'P'
p247
sbasg59
(lp248
(iBasisSets
BasisFunction
p249
(dp250
g13
(lp251
F0.00055500000000000005
aF0.0042909999999999997
aF0.021949
aF0.084441000000000002
aF0.23855699999999999
aF0.43507200000000001
aF0.34195500000000001
aF0.036856
aF-0.0095449999999999997
aF0.0023679999999999999
asg15
(lp252
(iBasisSets
PrimitiveFunction
p253
(dp254
g19
F5473.0
sg20
S'S'
p255
sba(iBasisSets
PrimitiveFunction
p256
(dp257
g19
F820.89999999999998
sg20
S'S'
p258
sba(iBasisSets
PrimitiveFunction
p259
(dp260
g19
F186.80000000000001
sg20
S'S'
p261
sba(iBasisSets
PrimitiveFunction
p262
(dp263
g19
F52.829999999999998
sg20
S'S'
p264
sba(iBasisSets
PrimitiveFunction
p265
(dp266
g19
F17.079999999999998
sg20
S'S'
p267
sba(iBasisSets
PrimitiveFunction
p268
(dp269
g19
F5.9989999999999997
sg20
S'S'
p270
sba(iBasisSets
PrimitiveFunction
p271
(dp272
g19
F2.2080000000000002
sg20
S'S'
p273
sba(iBasisSets
PrimitiveFunction
p274
(dp275
g19
F0.58789999999999998
sg20
S'S'
p276
sba(iBasisSets
PrimitiveFunction
p277
(dp278
g19
F0.24149999999999999
sg20
S'S'
p279
sba(iBasisSets
PrimitiveFunction
p280
(dp281
g19
F0.086099999999999996
sg20
S'S'
p282
sbasg20
S'S'
p283
sba(iBasisSets
BasisFunction
p284
(dp285
g13
(lp286
F-0.000112
aF-0.00086799999999999996
aF-0.0044840000000000001
aF-0.017683000000000001
aF-0.053638999999999999
aF-0.119005
aF-0.165824
aF0.12010700000000001
aF0.59598099999999998
aF0.41102100000000003
asg15
(lp287
(iBasisSets
PrimitiveFunction
p288
(dp289
g19
F5473.0
sg20
S'S'
p290
sba(iBasisSets
PrimitiveFunction
p291
(dp292
g19
F820.89999999999998
sg20
S'S'
p293
sba(iBasisSets
PrimitiveFunction
p294
(dp295
g19
F186.80000000000001
sg20
S'S'
p296
sba(iBasisSets
PrimitiveFunction
p297
(dp298
g19
F52.829999999999998
sg20
S'S'
p299
sba(iBasisSets
PrimitiveFunction
p300
(dp301
g19
F17.079999999999998
sg20
S'S'
p302
sba(iBasisSets
PrimitiveFunction
p303
(dp304
g19
F5.9989999999999997
sg20
S'S'
p305
sba(iBasisSets
PrimitiveFunction
p306
(dp307
g19
F2.2080000000000002
sg20
S'S'
p308
sba(iBasisSets
PrimitiveFunction
p309
(dp310
g19
F0.58789999999999998
sg20
S'S'
p311
sba(iBasisSets
PrimitiveFunction
p312
(dp313
g19
F0.24149999999999999
sg20
S'S'
p314
sba(iBasisSets
PrimitiveFunction
p315
(dp316
g19
F0.086099999999999996
sg20
S'S'
p317
sbasg20
S'S'
p318
sba(iBasisSets
BasisFunction
p319
(dp320
g13
(lp321
F1.0
asg15
(lp322
(iBasisSets
PrimitiveFunction
p323
(dp324
g19
F0.58789999999999998
sg20
S'S'
p325
sbasg20
S'S'
p326
sba(iBasisSets
BasisFunction
p327
(dp328
g13
(lp329
F1.0
asg15
(lp330
(iBasisSets
PrimitiveFunction
p331
(dp332
g19
F0.086099999999999996
sg20
S'S'
p333
sbasg20
S'S'
p334
sba(iBasisSets
BasisFunction
p335
(dp336
g13
(lp337
F1.0
asg15
(lp338
(iBasisSets
PrimitiveFunction
p339
(dp340
g19
F0.029139999999999999
sg20
S'S'
p341
sbasg20
S'S'
p342
sbasg155
(lp343
(iBasisSets
BasisFunction
p344
(dp345
g13
(lp346
F1.0
asg15
(lp347
(iBasisSets
PrimitiveFunction
p348
(dp349
g19
F0.66100000000000003
sg20
S'D'
p350
sbasg20
S'D'
p351
sba(iBasisSets
BasisFunction
p352
(dp353
g13
(lp354
F1.0
asg15
(lp355
(iBasisSets
PrimitiveFunction
p356
(dp357
g19
F0.19900000000000001
sg20
S'D'
p358
sbasg20
S'D'
p359
sba(iBasisSets
BasisFunction
p360
(dp361
g13
(lp362
F1.0
asg15
(lp363
(iBasisSets
PrimitiveFunction
p364
(dp365
g19
F0.060400000000000002
sg20
S'D'
p366
sbasg20
S'D'
p367
sbasg181
(lp368
(iBasisSets
BasisFunction
p369
(dp370
g13
(lp371
F1.0
asg15
(lp372
(iBasisSets
PrimitiveFunction
p373
(dp374
g19
F0.48999999999999999
sg20
S'F'
p375
sbasg20
S'F'
p376
sba(iBasisSets
BasisFunction
p377
(dp378
g13
(lp379
F1.0
asg15
(lp380
(iBasisSets
PrimitiveFunction
p381
(dp382
g19
F0.16300000000000001
sg20
S'F'
p383
sbasg20
S'F'
p384
sbassbsg181
(iBasisSets
AtomBasis
p385
(dp386
g7
(dp387
g9
(lp388
(iBasisSets
BasisFunction
p389
(dp390
g13
(lp391
F0.016664999999999999
aF0.104472
aF0.31725999999999999
aF0.48734300000000003
aF0.33460400000000001
asg15
(lp392
(iBasisSets
PrimitiveFunction
p393
(dp394
g19
F43.880000000000003
sg20
S'P'
p395
sba(iBasisSets
PrimitiveFunction
p396
(dp397
g19
F9.9260000000000002
sg20
S'P'
p398
sba(iBasisSets
PrimitiveFunction
p399
(dp400
g19
F2.9300000000000002
sg20
S'P'
p401
sba(iBasisSets
PrimitiveFunction
p402
(dp403
g19
F0.91320000000000001
sg20
S'P'
p404
sba(iBasisSets
PrimitiveFunction
p405
(dp406
g19
F0.26719999999999999
sg20
S'P'
p407
sbasg20
S'P'
p408
sba(iBasisSets
BasisFunction
p409
(dp410
g13
(lp411
F1.0
asg15
(lp412
(iBasisSets
PrimitiveFunction
p413
(dp414
g19
F0.91320000000000001
sg20
S'P'
p415
sbasg20
S'P'
p416
sba(iBasisSets
BasisFunction
p417
(dp418
g13
(lp419
F1.0
asg15
(lp420
(iBasisSets
PrimitiveFunction
p421
(dp422
g19
F0.26719999999999999
sg20
S'P'
p423
sbasg20
S'P'
p424
sba(iBasisSets
BasisFunction
p425
(dp426
g13
(lp427
F1.0
asg15
(lp428
(iBasisSets
PrimitiveFunction
p429
(dp430
g19
F0.073609999999999995
sg20
S'P'
p431
sbasg20
S'P'
p432
sbasg59
(lp433
(iBasisSets
BasisFunction
p434
(dp435
g13
(lp436
F0.00050699999999999996
aF0.0039230000000000003
aF0.020199999999999999
aF0.079009999999999997
aF0.230439
aF0.43287199999999998
aF0.349964
aF0.043233000000000001
aF-0.0078919999999999997
aF0.0023839999999999998
asg15
(lp437
(iBasisSets
PrimitiveFunction
p438
(dp439
g19
F19500.0
sg20
S'S'
p440
sba(iBasisSets
PrimitiveFunction
p441
(dp442
g19
F2923.0
sg20
S'S'
p443
sba(iBasisSets
PrimitiveFunction
p444
(dp445
g19
F664.5
sg20
S'S'
p446
sba(iBasisSets
PrimitiveFunction
p447
(dp448
g19
F187.5
sg20
S'S'
p449
sba(iBasisSets
PrimitiveFunction
p450
(dp451
g19
F60.619999999999997
sg20
S'S'
p452
sba(iBasisSets
PrimitiveFunction
p453
(dp454
g19
F21.420000000000002
sg20
S'S'
p455
sba(iBasisSets
PrimitiveFunction
p456
(dp457
g19
F7.9500000000000002
sg20
S'S'
p458
sba(iBasisSets
PrimitiveFunction
p459
(dp460
g19
F2.2570000000000001
sg20
S'S'
p461
sba(iBasisSets
PrimitiveFunction
p462
(dp463
g19
F0.88149999999999995
sg20
S'S'
p464
sba(iBasisSets
PrimitiveFunction
p465
(dp466
g19
F0.30409999999999998
sg20
S'S'
p467
sbasg20
S'S'
p468
sba(iBasisSets
BasisFunction
p469
(dp470
g13
(lp471
F-0.000117
aF-0.00091200000000000005
aF-0.0047169999999999998
aF-0.019085999999999999
aF-0.059655
aF-0.14001
aF-0.17678199999999999
aF0.171625
aF0.605043
aF0.36951200000000001
asg15
(lp472
(iBasisSets
PrimitiveFunction
p473
(dp474
g19
F19500.0
sg20
S'S'
p475
sba(iBasisSets
PrimitiveFunction
p476
(dp477
g19
F2923.0
sg20
S'S'
p478
sba(iBasisSets
PrimitiveFunction
p479
(dp480
g19
F664.5
sg20
S'S'
p481
sba(iBasisSets
PrimitiveFunction
p482
(dp483
g19
F187.5
sg20
S'S'
p484
sba(iBasisSets
PrimitiveFunction
p485
(dp486
g19
F60.619999999999997
sg20
S'S'
p487
sba(iBasisSets
PrimitiveFunction
p488
(dp489
g19
F21.420000000000002
sg20
S'S'
p490
sba(iBasisSets
PrimitiveFunction
p491
(dp492
g19
F7.9500000000000002
sg20
S'S'
p493
sba(iBasisSets
PrimitiveFunction
p494
(dp495
g19
F2.2570000000000001
sg20
S'S'
p496
sba(iBasisSets
PrimitiveFunction
p497
(dp498
g19
F0.88149999999999995
sg20
S'S'
p499
sba(iBasisSets
PrimitiveFunction
p500
(dp501
g19
F0.30409999999999998
sg20
S'S'
p502
sbasg20
S'S'
p503
sba(iBasisSets
BasisFunction
p504
(dp505
g13
(lp506
F1.0
asg15
(lp507
(iBasisSets
PrimitiveFunction
p508
(dp509
g19
F2.2570000000000001
sg20
S'S'
p510
sbasg20
S'S'
p511
sba(iBasisSets
BasisFunction
p512
(dp513
g13
(lp514
F1.0
asg15
(lp515
(iBasisSets
PrimitiveFunction
p516
(dp517
g19
F0.30409999999999998
sg20
S'S'
p518
sbasg20
S'S'
p519
sba(iBasisSets
BasisFunction
p520
(dp521
g13
(lp522
F1.0
asg15
(lp523
(iBasisSets
PrimitiveFunction
p524
(dp525
g19
F0.091579999999999995
sg20
S'S'
p526
sbasg20
S'S'
p527
sbasg155
(lp528
(iBasisSets
BasisFunction
p529
(dp530
g13
(lp531
F1.0
asg15
(lp532
(iBasisSets
PrimitiveFunction
p533
(dp534
g19
F3.1070000000000002
sg20
S'D'
p535
sbasg20
S'D'
p536
sba(iBasisSets
BasisFunction
p537
(dp538
g13
(lp539
F1.0
asg15
(lp540
(iBasisSets
PrimitiveFunction
p541
(dp542
g19
F0.85499999999999998
sg20
S'D'
p543
sbasg20
S'D'
p544
sba(iBasisSets
BasisFunction
p545
(dp546
g13
(lp547
F1.0
asg15
(lp548
(iBasisSets
PrimitiveFunction
p549
(dp550
g19
F0.29199999999999998
sg20
S'D'
p551
sbasg20
S'D'
p552
sbasg181
(lp553
(iBasisSets
BasisFunction
p554
(dp555
g13
(lp556
F1.0
asg15
(lp557
(iBasisSets
PrimitiveFunction
p558
(dp559
g19
F1.917
sg20
S'F'
p560
sbasg20
S'F'
p561
sba(iBasisSets
BasisFunction
p562
(dp563
g13
(lp564
F1.0
asg15
(lp565
(iBasisSets
PrimitiveFunction
p566
(dp567
g19
F0.72399999999999998
sg20
S'F'
p568
sbasg20
S'F'
p569
sbassbsS'H'
p570
(iBasisSets
AtomBasis
p571
(dp572
g7
(dp573
g9
(lp574
(iBasisSets
BasisFunction
p575
(dp576
g13
(lp577
F1.0
asg15
(lp578
(iBasisSets
PrimitiveFunction
p579
(dp580
g19
F1.407
sg20
S'P'
p581
sbasg20
S'P'
p582
sba(iBasisSets
BasisFunction
p583
(dp584
g13
(lp585
F1.0
asg15
(lp586
(iBasisSets
PrimitiveFunction
p587
(dp588
g19
F0.38800000000000001
sg20
S'P'
p589
sbasg20
S'P'
p590
sba(iBasisSets
BasisFunction
p591
(dp592
g13
(lp593
F1.0
asg15
(lp594
(iBasisSets
PrimitiveFunction
p595
(dp596
g19
F0.10199999999999999
sg20
S'P'
p597
sbasg20
S'P'
p598
sbasg59
(lp599
(iBasisSets
BasisFunction
p600
(dp601
g13
(lp602
F0.0060679999999999996
aF0.045308000000000001
aF0.202822
aF0.50390299999999999
aF0.38342100000000001
asg15
(lp603
(iBasisSets
PrimitiveFunction
p604
(dp605
g19
F33.869999999999997
sg20
S'S'
p606
sba(iBasisSets
PrimitiveFunction
p607
(dp608
g19
F5.0949999999999998
sg20
S'S'
p609
sba(iBasisSets
PrimitiveFunction
p610
(dp611
g19
F1.159
sg20
S'S'
p612
sba(iBasisSets
PrimitiveFunction
p613
(dp614
g19
F0.32579999999999998
sg20
S'S'
p615
sba(iBasisSets
PrimitiveFunction
p616
(dp617
g19
F0.1027
sg20
S'S'
p618
sbasg20
S'S'
p619
sba(iBasisSets
BasisFunction
p620
(dp621
g13
(lp622
F1.0
asg15
(lp623
(iBasisSets
PrimitiveFunction
p624
(dp625
g19
F0.32579999999999998
sg20
S'S'
p626
sbasg20
S'S'
p627
sba(iBasisSets
BasisFunction
p628
(dp629
g13
(lp630
F1.0
asg15
(lp631
(iBasisSets
PrimitiveFunction
p632
(dp633
g19
F0.1027
sg20
S'S'
p634
sbasg20
S'S'
p635
sba(iBasisSets
BasisFunction
p636
(dp637
g13
(lp638
F1.0
asg15
(lp639
(iBasisSets
PrimitiveFunction
p640
(dp641
g19
F0.025260000000000001
sg20
S'S'
p642
sbasg20
S'S'
p643
sbasg155
(lp644
(iBasisSets
BasisFunction
p645
(dp646
g13
(lp647
F1.0
asg15
(lp648
(iBasisSets
PrimitiveFunction
p649
(dp650
g19
F1.0569999999999999
sg20
S'D'
p651
sbasg20
S'D'
p652
sba(iBasisSets
BasisFunction
p653
(dp654
g13
(lp655
F1.0
asg15
(lp656
(iBasisSets
PrimitiveFunction
p657
(dp658
g19
F0.247
sg20
S'D'
p659
sbasg20
S'D'
p660
sbassbsS'NE'
p661
(iBasisSets
AtomBasis
p662
(dp663
g7
(dp664
g9
(lp665
(iBasisSets
BasisFunction
p666
(dp667
g13
(lp668
F0.017151
aF0.107656
aF0.32168099999999999
aF0.485232
aF0.33258399999999999
asg15
(lp669
(iBasisSets
PrimitiveFunction
p670
(dp671
g19
F54.700000000000003
sg20
S'P'
p672
sba(iBasisSets
PrimitiveFunction
p673
(dp674
g19
F12.43
sg20
S'P'
p675
sba(iBasisSets
PrimitiveFunction
p676
(dp677
g19
F3.6789999999999998
sg20
S'P'
p678
sba(iBasisSets
PrimitiveFunction
p679
(dp680
g19
F1.143
sg20
S'P'
p681
sba(iBasisSets
PrimitiveFunction
p682
(dp683
g19
F0.33000000000000002
sg20
S'P'
p684
sbasg20
S'P'
p685
sba(iBasisSets
BasisFunction
p686
(dp687
g13
(lp688
F1.0
asg15
(lp689
(iBasisSets
PrimitiveFunction
p690
(dp691
g19
F1.143
sg20
S'P'
p692
sbasg20
S'P'
p693
sba(iBasisSets
BasisFunction
p694
(dp695
g13
(lp696
F1.0
asg15
(lp697
(iBasisSets
PrimitiveFunction
p698
(dp699
g19
F0.33000000000000002
sg20
S'P'
p700
sbasg20
S'P'
p701
sba(iBasisSets
BasisFunction
p702
(dp703
g13
(lp704
F1.0
asg15
(lp705
(iBasisSets
PrimitiveFunction
p706
(dp707
g19
F0.091749999999999998
sg20
S'P'
p708
sbasg20
S'P'
p709
sbasg59
(lp710
(iBasisSets
BasisFunction
p711
(dp712
g13
(lp713
F0.00050199999999999995
aF0.0038809999999999999
aF0.019997000000000001
aF0.078418000000000002
aF0.22967599999999999
aF0.432722
aF0.35064200000000001
aF0.043910999999999999
aF-0.0076449999999999999
aF0.0023749999999999999
asg15
(lp714
(iBasisSets
PrimitiveFunction
p715
(dp716
g19
F24350.0
sg20
S'S'
p717
sba(iBasisSets
PrimitiveFunction
p718
(dp719
g19
F3650.0
sg20
S'S'
p720
sba(iBasisSets
PrimitiveFunction
p721
(dp722
g19
F829.60000000000002
sg20
S'S'
p723
sba(iBasisSets
PrimitiveFunction
p724
(dp725
g19
F234.0
sg20
S'S'
p726
sba(iBasisSets
PrimitiveFunction
p727
(dp728
g19
F75.609999999999999
sg20
S'S'
p729
sba(iBasisSets
PrimitiveFunction
p730
(dp731
g19
F26.73
sg20
S'S'
p732
sba(iBasisSets
PrimitiveFunction
p733
(dp734
g19
F9.9269999999999996
sg20
S'S'
p735
sba(iBasisSets
PrimitiveFunction
p736
(dp737
g19
F2.8359999999999999
sg20
S'S'
p738
sba(iBasisSets
PrimitiveFunction
p739
(dp740
g19
F1.1020000000000001
sg20
S'S'
p741
sba(iBasisSets
PrimitiveFunction
p742
(dp743
g19
F0.37819999999999998
sg20
S'S'
p744
sbasg20
S'S'
p745
sba(iBasisSets
BasisFunction
p746
(dp747
g13
(lp748
F-0.000118
aF-0.00091500000000000001
aF-0.0047369999999999999
aF-0.019233
aF-0.060368999999999999
aF-0.142508
aF-0.17771000000000001
aF0.17735200000000001
aF0.60583600000000004
aF0.36510900000000002
asg15
(lp749
(iBasisSets
PrimitiveFunction
p750
(dp751
g19
F24350.0
sg20
S'S'
p752
sba(iBasisSets
PrimitiveFunction
p753
(dp754
g19
F3650.0
sg20
S'S'
p755
sba(iBasisSets
PrimitiveFunction
p756
(dp757
g19
F829.60000000000002
sg20
S'S'
p758
sba(iBasisSets
PrimitiveFunction
p759
(dp760
g19
F234.0
sg20
S'S'
p761
sba(iBasisSets
PrimitiveFunction
p762
(dp763
g19
F75.609999999999999
sg20
S'S'
p764
sba(iBasisSets
PrimitiveFunction
p765
(dp766
g19
F26.73
sg20
S'S'
p767
sba(iBasisSets
PrimitiveFunction
p768
(dp769
g19
F9.9269999999999996
sg20
S'S'
p770
sba(iBasisSets
PrimitiveFunction
p771
(dp772
g19
F2.8359999999999999
sg20
S'S'
p773
sba(iBasisSets
PrimitiveFunction
p774
(dp775
g19
F1.1020000000000001
sg20
S'S'
p776
sba(iBasisSets
PrimitiveFunction
p777
(dp778
g19
F0.37819999999999998
sg20
S'S'
p779
sbasg20
S'S'
p780
sba(iBasisSets
BasisFunction
p781
(dp782
g13
(lp783
F1.0
asg15
(lp784
(iBasisSets
PrimitiveFunction
p785
(dp786
g19
F2.8359999999999999
sg20
S'S'
p787
sbasg20
S'S'
p788
sba(iBasisSets
BasisFunction
p789
(dp790
g13
(lp791
F1.0
asg15
(lp792
(iBasisSets
PrimitiveFunction
p793
(dp794
g19
F0.37819999999999998
sg20
S'S'
p795
sbasg20
S'S'
p796
sba(iBasisSets
BasisFunction
p797
(dp798
g13
(lp799
F1.0
asg15
(lp800
(iBasisSets
PrimitiveFunction
p801
(dp802
g19
F0.1133
sg20
S'S'
p803
sbasg20
S'S'
p804
sbasg155
(lp805
(iBasisSets
BasisFunction
p806
(dp807
g13
(lp808
F1.0
asg15
(lp809
(iBasisSets
PrimitiveFunction
p810
(dp811
g19
F4.0140000000000002
sg20
S'D'
p812
sbasg20
S'D'
p813
sba(iBasisSets
BasisFunction
p814
(dp815
g13
(lp816
F1.0
asg15
(lp817
(iBasisSets
PrimitiveFunction
p818
(dp819
g19
F1.0960000000000001
sg20
S'D'
p820
sbasg20
S'D'
p821
sba(iBasisSets
BasisFunction
p822
(dp823
g13
(lp824
F1.0
asg15
(lp825
(iBasisSets
PrimitiveFunction
p826
(dp827
g19
F0.38600000000000001
sg20
S'D'
p828
sbasg20
S'D'
p829
sbasg181
(lp830
(iBasisSets
BasisFunction
p831
(dp832
g13
(lp833
F1.0
asg15
(lp834
(iBasisSets
PrimitiveFunction
p835
(dp836
g19
F2.544
sg20
S'F'
p837
sbasg20
S'F'
p838
sba(iBasisSets
BasisFunction
p839
(dp840
g13
(lp841
F1.0
asg15
(lp842
(iBasisSets
PrimitiveFunction
p843
(dp844
g19
F1.0840000000000001
sg20
S'F'
p845
sbasg20
S'F'
p846
sbassbsS'O'
p847
(iBasisSets
AtomBasis
p848
(dp849
g7
(dp850
g9
(lp851
(iBasisSets
BasisFunction
p852
(dp853
g13
(lp854
F0.015928000000000001
aF0.099739999999999995
aF0.31049199999999999
aF0.49102600000000002
aF0.336337
asg15
(lp855
(iBasisSets
PrimitiveFunction
p856
(dp857
g19
F34.460000000000001
sg20
S'P'
p858
sba(iBasisSets
PrimitiveFunction
p859
(dp860
g19
F7.7489999999999997
sg20
S'P'
p861
sba(iBasisSets
PrimitiveFunction
p862
(dp863
g19
F2.2799999999999998
sg20
S'P'
p864
sba(iBasisSets
PrimitiveFunction
p865
(dp866
g19
F0.71560000000000001
sg20
S'P'
p867
sba(iBasisSets
PrimitiveFunction
p868
(dp869
g19
F0.214
sg20
S'P'
p870
sbasg20
S'P'
p871
sba(iBasisSets
BasisFunction
p872
(dp873
g13
(lp874
F1.0
asg15
(lp875
(iBasisSets
PrimitiveFunction
p876
(dp877
g19
F0.71560000000000001
sg20
S'P'
p878
sbasg20
S'P'
p879
sba(iBasisSets
BasisFunction
p880
(dp881
g13
(lp882
F1.0
asg15
(lp883
(iBasisSets
PrimitiveFunction
p884
(dp885
g19
F0.214
sg20
S'P'
p886
sbasg20
S'P'
p887
sba(iBasisSets
BasisFunction
p888
(dp889
g13
(lp890
F1.0
asg15
(lp891
(iBasisSets
PrimitiveFunction
p892
(dp893
g19
F0.059740000000000001
sg20
S'P'
p894
sbasg20
S'P'
p895
sbasg59
(lp896
(iBasisSets
BasisFunction
p897
(dp898
g13
(lp899
F0.00050799999999999999
aF0.0039290000000000002
aF0.020243000000000001
aF0.079181000000000001
aF0.230687
aF0.433118
aF0.35026000000000002
aF0.042728000000000002
aF-0.0081539999999999998
aF0.0023809999999999999
asg15
(lp900
(iBasisSets
PrimitiveFunction
p901
(dp902
g19
F15330.0
sg20
S'S'
p903
sba(iBasisSets
PrimitiveFunction
p904
(dp905
g19
F2299.0
sg20
S'S'
p906
sba(iBasisSets
PrimitiveFunction
p907
(dp908
g19
F522.39999999999998
sg20
S'S'
p909
sba(iBasisSets
PrimitiveFunction
p910
(dp911
g19
F147.30000000000001
sg20
S'S'
p912
sba(iBasisSets
PrimitiveFunction
p913
(dp914
g19
F47.549999999999997
sg20
S'S'
p915
sba(iBasisSets
PrimitiveFunction
p916
(dp917
g19
F16.760000000000002
sg20
S'S'
p918
sba(iBasisSets
PrimitiveFunction
p919
(dp920
g19
F6.2069999999999999
sg20
S'S'
p921
sba(iBasisSets
PrimitiveFunction
p922
(dp923
g19
F1.752
sg20
S'S'
p924
sba(iBasisSets
PrimitiveFunction
p925
(dp926
g19
F0.68820000000000003
sg20
S'S'
p927
sba(iBasisSets
PrimitiveFunction
p928
(dp929
g19
F0.2384
sg20
S'S'
p930
sbasg20
S'S'
p931
sba(iBasisSets
BasisFunction
p932
(dp933
g13
(lp934
F-0.000115
aF-0.00089499999999999996
aF-0.0046360000000000004
aF-0.018724000000000001
aF-0.058463000000000001
aF-0.136463
aF-0.17574000000000001
aF0.16093399999999999
aF0.60341800000000001
aF0.37876500000000002
asg15
(lp935
(iBasisSets
PrimitiveFunction
p936
(dp937
g19
F15330.0
sg20
S'S'
p938
sba(iBasisSets
PrimitiveFunction
p939
(dp940
g19
F2299.0
sg20
S'S'
p941
sba(iBasisSets
PrimitiveFunction
p942
(dp943
g19
F522.39999999999998
sg20
S'S'
p944
sba(iBasisSets
PrimitiveFunction
p945
(dp946
g19
F147.30000000000001
sg20
S'S'
p947
sba(iBasisSets
PrimitiveFunction
p948
(dp949
g19
F47.549999999999997
sg20
S'S'
p950
sba(iBasisSets
PrimitiveFunction
p951
(dp952
g19
F16.760000000000002
sg20
S'S'
p953
sba(iBasisSets
PrimitiveFunction
p954
(dp955
g19
F6.2069999999999999
sg20
S'S'
p956
sba(iBasisSets
PrimitiveFunction
p957
(dp958
g19
F1.752
sg20
S'S'
p959
sba(iBasisSets
PrimitiveFunction
p960
(dp961
g19
F0.68820000000000003
sg20
S'S'
p962
sba(iBasisSets
PrimitiveFunction
p963
(dp964
g19
F0.2384
sg20
S'S'
p965
sbasg20
S'S'
p966
sba(iBasisSets
BasisFunction
p967
(dp968
g13
(lp969
F1.0
asg15
(lp970
(iBasisSets
PrimitiveFunction
p971
(dp972
g19
F1.752
sg20
S'S'
p973
sbasg20
S'S'
p974
sba(iBasisSets
BasisFunction
p975
(dp976
g13
(lp977
F1.0
asg15
(lp978
(iBasisSets
PrimitiveFunction
p979
(dp980
g19
F0.2384
sg20
S'S'
p981
sbasg20
S'S'
p982
sba(iBasisSets
BasisFunction
p983
(dp984
g13
(lp985
F1.0
asg15
(lp986
(iBasisSets
PrimitiveFunction
p987
(dp988
g19
F0.073760000000000006
sg20
S'S'
p989
sbasg20
S'S'
p990
sbasg155
(lp991
(iBasisSets
BasisFunction
p992
(dp993
g13
(lp994
F1.0
asg15
(lp995
(iBasisSets
PrimitiveFunction
p996
(dp997
g19
F2.3140000000000001
sg20
S'D'
p998
sbasg20
S'D'
p999
sba(iBasisSets
BasisFunction
p1000
(dp1001
g13
(lp1002
F1.0
asg15
(lp1003
(iBasisSets
PrimitiveFunction
p1004
(dp1005
g19
F0.64500000000000002
sg20
S'D'
p1006
sbasg20
S'D'
p1007
sba(iBasisSets
BasisFunction
p1008
(dp1009
g13
(lp1010
F1.0
asg15
(lp1011
(iBasisSets
PrimitiveFunction
p1012
(dp1013
g19
F0.214
sg20
S'D'
p1014
sbasg20
S'D'
p1015
sbasg181
(lp1016
(iBasisSets
BasisFunction
p1017
(dp1018
g13
(lp1019
F1.0
asg15
(lp1020
(iBasisSets
PrimitiveFunction
p1021
(dp1022
g19
F1.4279999999999999
sg20
S'F'
p1023
sbasg20
S'F'
p1024
sba(iBasisSets
BasisFunction
p1025
(dp1026
g13
(lp1027
F1.0
asg15
(lp1028
(iBasisSets
PrimitiveFunction
p1029
(dp1030
g19
F0.5
sg20
S'F'
p1031
sbasg20
S'F'
p1032
sbassbsS'N'
p1033
(iBasisSets
AtomBasis
p1034
(dp1035
g7
(dp1036
g9
(lp1037
(iBasisSets
BasisFunction
p1038
(dp1039
g13
(lp1040
F0.014670000000000001
aF0.091763999999999998
aF0.29868299999999998
aF0.49848700000000001
aF0.33702300000000002
asg15
(lp1041
(iBasisSets
PrimitiveFunction
p1042
(dp1043
g19
F26.629999999999999
sg20
S'P'
p1044
sba(iBasisSets
PrimitiveFunction
p1045
(dp1046
g19
F5.9480000000000004
sg20
S'P'
p1047
sba(iBasisSets
PrimitiveFunction
p1048
(dp1049
g19
F1.742
sg20
S'P'
p1050
sba(iBasisSets
PrimitiveFunction
p1051
(dp1052
g19
F0.55500000000000005
sg20
S'P'
p1053
sba(iBasisSets
PrimitiveFunction
p1054
(dp1055
g19
F0.17249999999999999
sg20
S'P'
p1056
sbasg20
S'P'
p1057
sba(iBasisSets
BasisFunction
p1058
(dp1059
g13
(lp1060
F1.0
asg15
(lp1061
(iBasisSets
PrimitiveFunction
p1062
(dp1063
g19
F0.55500000000000005
sg20
S'P'
p1064
sbasg20
S'P'
p1065
sba(iBasisSets
BasisFunction
p1066
(dp1067
g13
(lp1068
F1.0
asg15
(lp1069
(iBasisSets
PrimitiveFunction
p1070
(dp1071
g19
F0.17249999999999999
sg20
S'P'
p1072
sbasg20
S'P'
p1073
sba(iBasisSets
BasisFunction
p1074
(dp1075
g13
(lp1076
F1.0
asg15
(lp1077
(iBasisSets
PrimitiveFunction
p1078
(dp1079
g19
F0.049099999999999998
sg20
S'P'
p1080
sbasg20
S'P'
p1081
sbasg59
(lp1082
(iBasisSets
BasisFunction
p1083
(dp1084
g13
(lp1085
F0.00052300000000000003
aF0.004045
aF0.020774999999999998
aF0.080726999999999993
aF0.233074
aF0.43350100000000003
aF0.347472
aF0.041262
aF-0.0085079999999999999
aF0.0023839999999999998
asg15
(lp1086
(iBasisSets
PrimitiveFunction
p1087
(dp1088
g19
F11420.0
sg20
S'S'
p1089
sba(iBasisSets
PrimitiveFunction
p1090
(dp1091
g19
F1712.0
sg20
S'S'
p1092
sba(iBasisSets
PrimitiveFunction
p1093
(dp1094
g19
F389.30000000000001
sg20
S'S'
p1095
sba(iBasisSets
PrimitiveFunction
p1096
(dp1097
g19
F110.0
sg20
S'S'
p1098
sba(iBasisSets
PrimitiveFunction
p1099
(dp1100
g19
F35.57
sg20
S'S'
p1101
sba(iBasisSets
PrimitiveFunction
p1102
(dp1103
g19
F12.539999999999999
sg20
S'S'
p1104
sba(iBasisSets
PrimitiveFunction
p1105
(dp1106
g19
F4.6440000000000001
sg20
S'S'
p1107
sba(iBasisSets
PrimitiveFunction
p1108
(dp1109
g19
F1.2929999999999999
sg20
S'S'
p1110
sba(iBasisSets
PrimitiveFunction
p1111
(dp1112
g19
F0.51180000000000003
sg20
S'S'
p1113
sba(iBasisSets
PrimitiveFunction
p1114
(dp1115
g19
F0.1787
sg20
S'S'
p1116
sbasg20
S'S'
p1117
sba(iBasisSets
BasisFunction
p1118
(dp1119
g13
(lp1120
F-0.000115
aF-0.00089499999999999996
aF-0.0046239999999999996
aF-0.018527999999999999
aF-0.057339000000000001
aF-0.132076
aF-0.17251
aF0.151814
aF0.59994400000000003
aF0.38746199999999997
asg15
(lp1121
(iBasisSets
PrimitiveFunction
p1122
(dp1123
g19
F11420.0
sg20
S'S'
p1124
sba(iBasisSets
PrimitiveFunction
p1125
(dp1126
g19
F1712.0
sg20
S'S'
p1127
sba(iBasisSets
PrimitiveFunction
p1128
(dp1129
g19
F389.30000000000001
sg20
S'S'
p1130
sba(iBasisSets
PrimitiveFunction
p1131
(dp1132
g19
F110.0
sg20
S'S'
p1133
sba(iBasisSets
PrimitiveFunction
p1134
(dp1135
g19
F35.57
sg20
S'S'
p1136
sba(iBasisSets
PrimitiveFunction
p1137
(dp1138
g19
F12.539999999999999
sg20
S'S'
p1139
sba(iBasisSets
PrimitiveFunction
p1140
(dp1141
g19
F4.6440000000000001
sg20
S'S'
p1142
sba(iBasisSets
PrimitiveFunction
p1143
(dp1144
g19
F1.2929999999999999
sg20
S'S'
p1145
sba(iBasisSets
PrimitiveFunction
p1146
(dp1147
g19
F0.51180000000000003
sg20
S'S'
p1148
sba(iBasisSets
PrimitiveFunction
p1149
(dp1150
g19
F0.1787
sg20
S'S'
p1151
sbasg20
S'S'
p1152
sba(iBasisSets
BasisFunction
p1153
(dp1154
g13
(lp1155
F1.0
asg15
(lp1156
(iBasisSets
PrimitiveFunction
p1157
(dp1158
g19
F1.2929999999999999
sg20
S'S'
p1159
sbasg20
S'S'
p1160
sba(iBasisSets
BasisFunction
p1161
(dp1162
g13
(lp1163
F1.0
asg15
(lp1164
(iBasisSets
PrimitiveFunction
p1165
(dp1166
g19
F0.1787
sg20
S'S'
p1167
sbasg20
S'S'
p1168
sba(iBasisSets
BasisFunction
p1169
(dp1170
g13
(lp1171
F1.0
asg15
(lp1172
(iBasisSets
PrimitiveFunction
p1173
(dp1174
g19
F0.057599999999999998
sg20
S'S'
p1175
sbasg20
S'S'
p1176
sbasg155
(lp1177
(iBasisSets
BasisFunction
p1178
(dp1179
g13
(lp1180
F1.0
asg15
(lp1181
(iBasisSets
PrimitiveFunction
p1182
(dp1183
g19
F1.6539999999999999
sg20
S'D'
p1184
sbasg20
S'D'
p1185
sba(iBasisSets
BasisFunction
p1186
(dp1187
g13
(lp1188
F1.0
asg15
(lp1189
(iBasisSets
PrimitiveFunction
p1190
(dp1191
g19
F0.46899999999999997
sg20
S'D'
p1192
sbasg20
S'D'
p1193
sba(iBasisSets
BasisFunction
p1194
(dp1195
g13
(lp1196
F1.0
asg15
(lp1197
(iBasisSets
PrimitiveFunction
p1198
(dp1199
g19
F0.151
sg20
S'D'
p1200
sbasg20
S'D'
p1201
sbasg181
(lp1202
(iBasisSets
BasisFunction
p1203
(dp1204
g13
(lp1205
F1.0
asg15
(lp1206
(iBasisSets
PrimitiveFunction
p1207
(dp1208
g19
F1.093
sg20
S'F'
p1209
sbasg20
S'F'
p1210
sba(iBasisSets
BasisFunction
p1211
(dp1212
g13
(lp1213
F1.0
asg15
(lp1214
(iBasisSets
PrimitiveFunction
p1215
(dp1216
g19
F0.36399999999999999
sg20
S'F'
p1217
sbasg20
S'F'
p1218
sbassbsS'HE'
p1219
(iBasisSets
AtomBasis
p1220
(dp1221
g7
(dp1222
g9
(lp1223
(iBasisSets
BasisFunction
p1224
(dp1225
g13
(lp1226
F1.0
asg15
(lp1227
(iBasisSets
PrimitiveFunction
p1228
(dp1229
g19
F3.044
sg20
S'P'
p1230
sbasg20
S'P'
p1231
sba(iBasisSets
BasisFunction
p1232
(dp1233
g13
(lp1234
F1.0
asg15
(lp1235
(iBasisSets
PrimitiveFunction
p1236
(dp1237
g19
F0.75800000000000001
sg20
S'P'
p1238
sbasg20
S'P'
p1239
sba(iBasisSets
BasisFunction
p1240
(dp1241
g13
(lp1242
F1.0
asg15
(lp1243
(iBasisSets
PrimitiveFunction
p1244
(dp1245
g19
F0.1993
sg20
S'P'
p1246
sbasg20
S'P'
p1247
sbasg59
(lp1248
(iBasisSets
BasisFunction
p1249
(dp1250
g13
(lp1251
F0.0025869999999999999
aF0.019532999999999998
aF0.090997999999999996
aF0.27205000000000001
aF0.47806500000000002
aF0.30773699999999998
asg15
(lp1252
(iBasisSets
PrimitiveFunction
p1253
(dp1254
g19
F234.0
sg20
S'S'
p1255
sba(iBasisSets
PrimitiveFunction
p1256
(dp1257
g19
F35.159999999999997
sg20
S'S'
p1258
sba(iBasisSets
PrimitiveFunction
p1259
(dp1260
g19
F7.9889999999999999
sg20
S'S'
p1261
sba(iBasisSets
PrimitiveFunction
p1262
(dp1263
g19
F2.2120000000000002
sg20
S'S'
p1264
sba(iBasisSets
PrimitiveFunction
p1265
(dp1266
g19
F0.66690000000000005
sg20
S'S'
p1267
sba(iBasisSets
PrimitiveFunction
p1268
(dp1269
g19
F0.2089
sg20
S'S'
p1270
sbasg20
S'S'
p1271
sba(iBasisSets
BasisFunction
p1272
(dp1273
g13
(lp1274
F1.0
asg15
(lp1275
(iBasisSets
PrimitiveFunction
p1276
(dp1277
g19
F0.66690000000000005
sg20
S'S'
p1278
sbasg20
S'S'
p1279
sba(iBasisSets
BasisFunction
p1280
(dp1281
g13
(lp1282
F1.0
asg15
(lp1283
(iBasisSets
PrimitiveFunction
p1284
(dp1285
g19
F0.2089
sg20
S'S'
p1286
sbasg20
S'S'
p1287
sba(iBasisSets
BasisFunction
p1288
(dp1289
g13
(lp1290
F1.0
asg15
(lp1291
(iBasisSets
PrimitiveFunction
p1292
(dp1293
g19
F0.051380000000000002
sg20
S'S'
p1294
sbasg20
S'S'
p1295
sbasg155
(lp1296
(iBasisSets
BasisFunction
p1297
(dp1298
g13
(lp1299
F1.0
asg15
(lp1300
(iBasisSets
PrimitiveFunction
p1301
(dp1302
g19
F1.9650000000000001
sg20
S'D'
p1303
sbasg20
S'D'
p1304
sba(iBasisSets
BasisFunction
p1305
(dp1306
g13
(lp1307
F1.0
asg15
(lp1308
(iBasisSets
PrimitiveFunction
p1309
(dp1310
g19
F0.4592
sg20
S'D'
p1311
sbasg20
S'D'
p1312
sbassbssb.