(ibasisset
BasisSet
p0
(dp1
S'basisDictionary'
p2
(dp3
S'C'
p4
(iBasisSets
AtomBasis
p5
(dp6
S'basisDictionary'
p7
(dp8
S'P'
p9
(lp10
(iBasisSets
BasisFunction
p11
(dp12
S'coefficientList'
p13
(lp14
F0.014031
aF0.086865999999999999
aF0.29021599999999997
aF0.50100800000000001
aF0.34340599999999999
asS'primitiveList'
p15
(lp16
(iBasisSets
PrimitiveFunction
p17
(dp18
S'exponent'
p19
F18.710000000000001
sS'angularMomentum'
p20
S'P'
p21
sba(iBasisSets
PrimitiveFunction
p22
(dp23
g19
F4.133
sg20
S'P'
p24
sba(iBasisSets
PrimitiveFunction
p25
(dp26
g19
F1.2
sg20
S'P'
p27
sba(iBasisSets
PrimitiveFunction
p28
(dp29
g19
F0.38269999999999998
sg20
S'P'
p30
sba(iBasisSets
PrimitiveFunction
p31
(dp32
g19
F0.12089999999999999
sg20
S'P'
p33
sbasg20
S'P'
p34
sba(iBasisSets
BasisFunction
p35
(dp36
g13
(lp37
F1.0
asg15
(lp38
(iBasisSets
PrimitiveFunction
p39
(dp40
g19
F0.38269999999999998
sg20
S'P'
p41
sbasg20
S'P'
p42
sba(iBasisSets
BasisFunction
p43
(dp44
g13
(lp45
F1.0
asg15
(lp46
(iBasisSets
PrimitiveFunction
p47
(dp48
g19
F0.12089999999999999
sg20
S'P'
p49
sbasg20
S'P'
p50
sba(iBasisSets
BasisFunction
p51
(dp52
g13
(lp53
F1.0
asg15
(lp54
(iBasisSets
PrimitiveFunction
p55
(dp56
g19
F0.03569
sg20
S'P'
p57
sbasg20
S'P'
p58
sbasS'S'
p59
(lp60
(iBasisSets
BasisFunction
p61
(dp62
g13
(lp63
F0.000531
aF0.0041079999999999997
aF0.021087000000000002
aF0.081852999999999995
aF0.234817
aF0.43440099999999998
aF0.34612900000000002
aF0.039378000000000003
aF-0.0089829999999999997
aF0.002385
asg15
(lp64
(iBasisSets
PrimitiveFunction
p65
(dp66
g19
F8236.0
sg20
S'S'
p67
sba(iBasisSets
PrimitiveFunction
p68
(dp69
g19
F1235.0
sg20
S'S'
p70
sba(iBasisSets
PrimitiveFunction
p71
(dp72
g19
F280.80000000000001
sg20
S'S'
p73
sba(iBasisSets
PrimitiveFunction
p74
(dp75
g19
F79.269999999999996
sg20
S'S'
p76
sba(iBasisSets
PrimitiveFunction
p77
(dp78
g19
F25.59
sg20
S'S'
p79
sba(iBasisSets
PrimitiveFunction
p80
(dp81
g19
F8.9969999999999999
sg20
S'S'
p82
sba(iBasisSets
PrimitiveFunction
p83
(dp84
g19
F3.319
sg20
S'S'
p85
sba(iBasisSets
PrimitiveFunction
p86
(dp87
g19
F0.90590000000000004
sg20
S'S'
p88
sba(iBasisSets
PrimitiveFunction
p89
(dp90
g19
F0.36430000000000001
sg20
S'S'
p91
sba(iBasisSets
PrimitiveFunction
p92
(dp93
g19
F0.1285
sg20
S'S'
p94
sbasg20
S'S'
p95
sba(iBasisSets
BasisFunction
p96
(dp97
g13
(lp98
F-0.000113
aF-0.00087799999999999998
aF-0.0045399999999999998
aF-0.018133
aF-0.055759999999999997
aF-0.12689500000000001
aF-0.170352
aF0.14038200000000001
aF0.59868399999999999
aF0.39538899999999999
asg15
(lp99
(iBasisSets
PrimitiveFunction
p100
(dp101
g19
F8236.0
sg20
S'S'
p102
sba(iBasisSets
PrimitiveFunction
p103
(dp104
g19
F1235.0
sg20
S'S'
p105
sba(iBasisSets
PrimitiveFunction
p106
(dp107
g19
F280.80000000000001
sg20
S'S'
p108
sba(iBasisSets
PrimitiveFunction
p109
(dp110
g19
F79.269999999999996
sg20
S'S'
p111
sba(iBasisSets
PrimitiveFunction
p112
(dp113
g19
F25.59
sg20
S'S'
p114
sba(iBasisSets
PrimitiveFunction
p115
(dp116
g19
F8.9969999999999999
sg20
S'S'
p117
sba(iBasisSets
PrimitiveFunction
p118
(dp119
g19
F3.319
sg20
S'S'
p120
sba(iBasisSets
PrimitiveFunction
p121
(dp122
g19
F0.90590000000000004
sg20
S'S'
p123
sba(iBasisSets
PrimitiveFunction
p124
(dp125
g19
F0.36430000000000001
sg20
S'S'
p126
sba(iBasisSets
PrimitiveFunction
p127
(dp128
g19
F0.1285
sg20
S'S'
p129
sbasg20
S'S'
p130
sba(iBasisSets
BasisFunction
p131
(dp132
g13
(lp133
F1.0
asg15
(lp134
(iBasisSets
PrimitiveFunction
p135
(dp136
g19
F0.90590000000000004
sg20
S'S'
p137
sbasg20
S'S'
p138
sba(iBasisSets
BasisFunction
p139
(dp140
g13
(lp141
F1.0
asg15
(lp142
(iBasisSets
PrimitiveFunction
p143
(dp144
g19
F0.1285
sg20
S'S'
p145
sbasg20
S'S'
p146
sba(iBasisSets
BasisFunction
p147
(dp148
g13
(lp149
F1.0
asg15
(lp150
(iBasisSets
PrimitiveFunction
p151
(dp152
g19
F0.044019999999999997
sg20
S'S'
p153
sbasg20
S'S'
p154
sbasS'D'
p155
(lp156
(iBasisSets
BasisFunction
p157
(dp158
g13
(lp159
F1.0
asg15
(lp160
(iBasisSets
PrimitiveFunction
p161
(dp162
g19
F1.097
sg20
S'D'
p163
sbasg20
S'D'
p164
sba(iBasisSets
BasisFunction
p165
(dp166
g13
(lp167
F1.0
asg15
(lp168
(iBasisSets
PrimitiveFunction
p169
(dp170
g19
F0.318
sg20
S'D'
p171
sbasg20
S'D'
p172
sba(iBasisSets
BasisFunction
p173
(dp174
g13
(lp175
F1.0
asg15
(lp176
(iBasisSets
PrimitiveFunction
p177
(dp178
g19
F0.10000000000000001
sg20
S'D'
p179
sbasg20
S'D'
p180
sbasS'F'
p181
(lp182
(iBasisSets
BasisFunction
p183
(dp184
g13
(lp185
F1.0
asg15
(lp186
(iBasisSets
PrimitiveFunction
p187
(dp188
g19
F0.76100000000000001
sg20
S'F'
p189
sbasg20
S'F'
p190
sba(iBasisSets
BasisFunction
p191
(dp192
g13
(lp193
F1.0
asg15
(lp194
(iBasisSets
PrimitiveFunction
p195
(dp196
g19
F0.26800000000000002
sg20
S'F'
p197
sbasg20
S'F'
p198
sbassbsS'CL'
p199
(iBasisSets
AtomBasis
p200
(dp201
g7
(dp202
g9
(lp203
(iBasisSets
BasisFunction
p204
(dp205
g13
(lp206
F0.0024044800000000001
aF0.019214800000000001
aF0.088509699999999997
aF0.25602000000000003
aF0.43692700000000001
aF0.35033399999999998
aF0.058549499999999997
aF-0.0045842299999999999
aF0.0022696999999999999
asg15
(lp207
(iBasisSets
PrimitiveFunction
p208
(dp209
g19
F663.29999999999995
sg20
S'P'
p210
sba(iBasisSets
PrimitiveFunction
p211
(dp212
g19
F156.80000000000001
sg20
S'P'
p213
sba(iBasisSets
PrimitiveFunction
p214
(dp215
g19
F49.979999999999997
sg20
S'P'
p216
sba(iBasisSets
PrimitiveFunction
p217
(dp218
g19
F18.420000000000002
sg20
S'P'
p219
sba(iBasisSets
PrimitiveFunction
p220
(dp221
g19
F7.2400000000000002
sg20
S'P'
p222
sba(iBasisSets
PrimitiveFunction
p223
(dp224
g19
F2.9220000000000002
sg20
S'P'
p225
sba(iBasisSets
PrimitiveFunction
p226
(dp227
g19
F1.022
sg20
S'P'
p228
sba(iBasisSets
PrimitiveFunction
p229
(dp230
g19
F0.38179999999999997
sg20
S'P'
p231
sba(iBasisSets
PrimitiveFunction
p232
(dp233
g19
F0.13009999999999999
sg20
S'P'
p234
sbasg20
S'P'
p235
sba(iBasisSets
BasisFunction
p236
(dp237
g13
(lp238
F-0.00065214500000000003
aF-0.0051944499999999998
aF-0.024693799999999998
aF-0.072816699999999998
aF-0.13403000000000001
aF-0.094774200000000003
aF0.26228899999999999
aF0.56466700000000003
aF0.34125
asg15
(lp239
(iBasisSets
PrimitiveFunction
p240
(dp241
g19
F663.29999999999995
sg20
S'P'
p242
sba(iBasisSets
PrimitiveFunction
p243
(dp244
g19
F156.80000000000001
sg20
S'P'
p245
sba(iBasisSets
PrimitiveFunction
p246
(dp247
g19
F49.979999999999997
sg20
S'P'
p248
sba(iBasisSets
PrimitiveFunction
p249
(dp250
g19
F18.420000000000002
sg20
S'P'
p251
sba(iBasisSets
PrimitiveFunction
p252
(dp253
g19
F7.2400000000000002
sg20
S'P'
p254
sba(iBasisSets
PrimitiveFunction
p255
(dp256
g19
F2.9220000000000002
sg20
S'P'
p257
sba(iBasisSets
PrimitiveFunction
p258
(dp259
g19
F1.022
sg20
S'P'
p260
sba(iBasisSets
PrimitiveFunction
p261
(dp262
g19
F0.38179999999999997
sg20
S'P'
p263
sba(iBasisSets
PrimitiveFunction
p264
(dp265
g19
F0.13009999999999999
sg20
S'P'
p266
sbasg20
S'P'
p267
sba(iBasisSets
BasisFunction
p268
(dp269
g13
(lp270
F1.0
asg15
(lp271
(iBasisSets
PrimitiveFunction
p272
(dp273
g19
F1.022
sg20
S'P'
p274
sbasg20
S'P'
p275
sba(iBasisSets
BasisFunction
p276
(dp277
g13
(lp278
F1.0
asg15
(lp279
(iBasisSets
PrimitiveFunction
p280
(dp281
g19
F0.13009999999999999
sg20
S'P'
p282
sbasg20
S'P'
p283
sba(iBasisSets
BasisFunction
p284
(dp285
g13
(lp286
F1.0
asg15
(lp287
(iBasisSets
PrimitiveFunction
p288
(dp289
g19
F0.0419
sg20
S'P'
p290
sbasg20
S'P'
p291
sbasg59
(lp292
(iBasisSets
BasisFunction
p293
(dp294
g13
(lp295
F4.9296999999999999e-05
aF0.00038302900000000001
aF0.0020085400000000001
aF0.0083855800000000001
aF0.029470300000000001
aF0.087832499999999994
aF0.21147299999999999
aF0.36536400000000002
aF0.34088400000000002
aF0.102133
aF0.0031167500000000002
aF0.00105751
aF-0.00037800000000000003
aF0.000156136
aF-5.1412600000000003e-05
asg15
(lp296
(iBasisSets
PrimitiveFunction
p297
(dp298
g19
F456100.0
sg20
S'S'
p299
sba(iBasisSets
PrimitiveFunction
p300
(dp301
g19
F68330.0
sg20
S'S'
p302
sba(iBasisSets
PrimitiveFunction
p303
(dp304
g19
F15550.0
sg20
S'S'
p305
sba(iBasisSets
PrimitiveFunction
p306
(dp307
g19
F4405.0
sg20
S'S'
p308
sba(iBasisSets
PrimitiveFunction
p309
(dp310
g19
F1439.0
sg20
S'S'
p311
sba(iBasisSets
PrimitiveFunction
p312
(dp313
g19
F520.39999999999998
sg20
S'S'
p314
sba(iBasisSets
PrimitiveFunction
p315
(dp316
g19
F203.09999999999999
sg20
S'S'
p317
sba(iBasisSets
PrimitiveFunction
p318
(dp319
g19
F83.959999999999994
sg20
S'S'
p320
sba(iBasisSets
PrimitiveFunction
p321
(dp322
g19
F36.200000000000003
sg20
S'S'
p323
sba(iBasisSets
PrimitiveFunction
p324
(dp325
g19
F15.83
sg20
S'S'
p326
sba(iBasisSets
PrimitiveFunction
p327
(dp328
g19
F6.3339999999999996
sg20
S'S'
p329
sba(iBasisSets
PrimitiveFunction
p330
(dp331
g19
F2.694
sg20
S'S'
p332
sba(iBasisSets
PrimitiveFunction
p333
(dp334
g19
F0.9768
sg20
S'S'
p335
sba(iBasisSets
PrimitiveFunction
p336
(dp337
g19
F0.43130000000000002
sg20
S'S'
p338
sba(iBasisSets
PrimitiveFunction
p339
(dp340
g19
F0.16250000000000001
sg20
S'S'
p341
sbasg20
S'S'
p342
sba(iBasisSets
BasisFunction
p343
(dp344
g13
(lp345
F-1.3830400000000001e-05
aF-0.000107279
aF-0.00056508299999999997
aF-0.0023613499999999999
aF-0.0084588600000000003
aF-0.025963799999999999
aF-0.068636199999999994
aF-0.141874
aF-0.199319
aF-0.019566199999999999
aF0.49974099999999999
aF0.56373600000000001
aF0.079032500000000006
aF-0.0083509099999999996
aF0.0023245599999999998
asg15
(lp346
(iBasisSets
PrimitiveFunction
p347
(dp348
g19
F456100.0
sg20
S'S'
p349
sba(iBasisSets
PrimitiveFunction
p350
(dp351
g19
F68330.0
sg20
S'S'
p352
sba(iBasisSets
PrimitiveFunction
p353
(dp354
g19
F15550.0
sg20
S'S'
p355
sba(iBasisSets
PrimitiveFunction
p356
(dp357
g19
F4405.0
sg20
S'S'
p358
sba(iBasisSets
PrimitiveFunction
p359
(dp360
g19
F1439.0
sg20
S'S'
p361
sba(iBasisSets
PrimitiveFunction
p362
(dp363
g19
F520.39999999999998
sg20
S'S'
p364
sba(iBasisSets
PrimitiveFunction
p365
(dp366
g19
F203.09999999999999
sg20
S'S'
p367
sba(iBasisSets
PrimitiveFunction
p368
(dp369
g19
F83.959999999999994
sg20
S'S'
p370
sba(iBasisSets
PrimitiveFunction
p371
(dp372
g19
F36.200000000000003
sg20
S'S'
p373
sba(iBasisSets
PrimitiveFunction
p374
(dp375
g19
F15.83
sg20
S'S'
p376
sba(iBasisSets
PrimitiveFunction
p377
(dp378
g19
F6.3339999999999996
sg20
S'S'
p379
sba(iBasisSets
PrimitiveFunction
p380
(dp381
g19
F2.694
sg20
S'S'
p382
sba(iBasisSets
PrimitiveFunction
p383
(dp384
g19
F0.9768
sg20
S'S'
p385
sba(iBasisSets
PrimitiveFunction
p386
(dp387
g19
F0.43130000000000002
sg20
S'S'
p388
sba(iBasisSets
PrimitiveFunction
p389
(dp390
g19
F0.16250000000000001
sg20
S'S'
p391
sbasg20
S'S'
p392
sba(iBasisSets
BasisFunction
p393
(dp394
g13
(lp395
F4.1854599999999997e-06
aF3.24395e-05
aF0.00017110500000000001
aF0.00071417599999999996
aF0.00256705
aF0.00788552
aF0.0210867
aF0.044226399999999999
aF0.065167000000000003
aF0.0060301199999999999
aF-0.20649500000000001
aF-0.40587099999999998
aF0.075955800000000004
aF0.725661
aF0.39442300000000002
asg15
(lp396
(iBasisSets
PrimitiveFunction
p397
(dp398
g19
F456100.0
sg20
S'S'
p399
sba(iBasisSets
PrimitiveFunction
p400
(dp401
g19
F68330.0
sg20
S'S'
p402
sba(iBasisSets
PrimitiveFunction
p403
(dp404
g19
F15550.0
sg20
S'S'
p405
sba(iBasisSets
PrimitiveFunction
p406
(dp407
g19
F4405.0
sg20
S'S'
p408
sba(iBasisSets
PrimitiveFunction
p409
(dp410
g19
F1439.0
sg20
S'S'
p411
sba(iBasisSets
PrimitiveFunction
p412
(dp413
g19
F520.39999999999998
sg20
S'S'
p414
sba(iBasisSets
PrimitiveFunction
p415
(dp416
g19
F203.09999999999999
sg20
S'S'
p417
sba(iBasisSets
PrimitiveFunction
p418
(dp419
g19
F83.959999999999994
sg20
S'S'
p420
sba(iBasisSets
PrimitiveFunction
p421
(dp422
g19
F36.200000000000003
sg20
S'S'
p423
sba(iBasisSets
PrimitiveFunction
p424
(dp425
g19
F15.83
sg20
S'S'
p426
sba(iBasisSets
PrimitiveFunction
p427
(dp428
g19
F6.3339999999999996
sg20
S'S'
p429
sba(iBasisSets
PrimitiveFunction
p430
(dp431
g19
F2.694
sg20
S'S'
p432
sba(iBasisSets
PrimitiveFunction
p433
(dp434
g19
F0.9768
sg20
S'S'
p435
sba(iBasisSets
PrimitiveFunction
p436
(dp437
g19
F0.43130000000000002
sg20
S'S'
p438
sba(iBasisSets
PrimitiveFunction
p439
(dp440
g19
F0.16250000000000001
sg20
S'S'
p441
sbasg20
S'S'
p442
sba(iBasisSets
BasisFunction
p443
(dp444
g13
(lp445
F1.0
asg15
(lp446
(iBasisSets
PrimitiveFunction
p447
(dp448
g19
F0.9768
sg20
S'S'
p449
sbasg20
S'S'
p450
sba(iBasisSets
BasisFunction
p451
(dp452
g13
(lp453
F1.0
asg15
(lp454
(iBasisSets
PrimitiveFunction
p455
(dp456
g19
F0.16250000000000001
sg20
S'S'
p457
sbasg20
S'S'
p458
sba(iBasisSets
BasisFunction
p459
(dp460
g13
(lp461
F1.0
asg15
(lp462
(iBasisSets
PrimitiveFunction
p463
(dp464
g19
F0.0591
sg20
S'S'
p465
sbasg20
S'S'
p466
sbasg155
(lp467
(iBasisSets
BasisFunction
p468
(dp469
g13
(lp470
F1.0
asg15
(lp471
(iBasisSets
PrimitiveFunction
p472
(dp473
g19
F4.6100000000000003
sg20
S'D'
p474
sbasg20
S'D'
p475
sba(iBasisSets
BasisFunction
p476
(dp477
g13
(lp478
F1.0
asg15
(lp479
(iBasisSets
PrimitiveFunction
p480
(dp481
g19
F1.0109999999999999
sg20
S'D'
p482
sbasg20
S'D'
p483
sba(iBasisSets
BasisFunction
p484
(dp485
g13
(lp486
F1.0
asg15
(lp487
(iBasisSets
PrimitiveFunction
p488
(dp489
g19
F0.33900000000000002
sg20
S'D'
p490
sbasg20
S'D'
p491
sba(iBasisSets
BasisFunction
p492
(dp493
g13
(lp494
F1.0
asg15
(lp495
(iBasisSets
PrimitiveFunction
p496
(dp497
g19
F0.13
sg20
S'D'
p498
sbasg20
S'D'
p499
sbasg181
(lp500
(iBasisSets
BasisFunction
p501
(dp502
g13
(lp503
F1.0
asg15
(lp504
(iBasisSets
PrimitiveFunction
p505
(dp506
g19
F0.70599999999999996
sg20
S'F'
p507
sbasg20
S'F'
p508
sba(iBasisSets
BasisFunction
p509
(dp510
g13
(lp511
F1.0
asg15
(lp512
(iBasisSets
PrimitiveFunction
p513
(dp514
g19
F0.312
sg20
S'F'
p515
sbasg20
S'F'
p516
sbassbsS'H'
p517
(iBasisSets
AtomBasis
p518
(dp519
g7
(dp520
g9
(lp521
(iBasisSets
BasisFunction
p522
(dp523
g13
(lp524
F1.0
asg15
(lp525
(iBasisSets
PrimitiveFunction
p526
(dp527
g19
F1.407
sg20
S'P'
p528
sbasg20
S'P'
p529
sba(iBasisSets
BasisFunction
p530
(dp531
g13
(lp532
F1.0
asg15
(lp533
(iBasisSets
PrimitiveFunction
p534
(dp535
g19
F0.38800000000000001
sg20
S'P'
p536
sbasg20
S'P'
p537
sba(iBasisSets
BasisFunction
p538
(dp539
g13
(lp540
F1.0
asg15
(lp541
(iBasisSets
PrimitiveFunction
p542
(dp543
g19
F0.10199999999999999
sg20
S'P'
p544
sbasg20
S'P'
p545
sbasg59
(lp546
(iBasisSets
BasisFunction
p547
(dp548
g13
(lp549
F0.0060679999999999996
aF0.045308000000000001
aF0.202822
aF0.50390299999999999
aF0.38342100000000001
asg15
(lp550
(iBasisSets
PrimitiveFunction
p551
(dp552
g19
F33.869999999999997
sg20
S'S'
p553
sba(iBasisSets
PrimitiveFunction
p554
(dp555
g19
F5.0949999999999998
sg20
S'S'
p556
sba(iBasisSets
PrimitiveFunction
p557
(dp558
g19
F1.159
sg20
S'S'
p559
sba(iBasisSets
PrimitiveFunction
p560
(dp561
g19
F0.32579999999999998
sg20
S'S'
p562
sba(iBasisSets
PrimitiveFunction
p563
(dp564
g19
F0.1027
sg20
S'S'
p565
sbasg20
S'S'
p566
sba(iBasisSets
BasisFunction
p567
(dp568
g13
(lp569
F1.0
asg15
(lp570
(iBasisSets
PrimitiveFunction
p571
(dp572
g19
F0.32579999999999998
sg20
S'S'
p573
sbasg20
S'S'
p574
sba(iBasisSets
BasisFunction
p575
(dp576
g13
(lp577
F1.0
asg15
(lp578
(iBasisSets
PrimitiveFunction
p579
(dp580
g19
F0.1027
sg20
S'S'
p581
sbasg20
S'S'
p582
sba(iBasisSets
BasisFunction
p583
(dp584
g13
(lp585
F1.0
asg15
(lp586
(iBasisSets
PrimitiveFunction
p587
(dp588
g19
F0.025260000000000001
sg20
S'S'
p589
sbasg20
S'S'
p590
sbasg155
(lp591
(iBasisSets
BasisFunction
p592
(dp593
g13
(lp594
F1.0
asg15
(lp595
(iBasisSets
PrimitiveFunction
p596
(dp597
g19
F1.0569999999999999
sg20
S'D'
p598
sbasg20
S'D'
p599
sba(iBasisSets
BasisFunction
p600
(dp601
g13
(lp602
F1.0
asg15
(lp603
(iBasisSets
PrimitiveFunction
p604
(dp605
g19
F0.247
sg20
S'D'
p606
sbasg20
S'D'
p607
sbassbsg181
(iBasisSets
AtomBasis
p608
(dp609
g7
(dp610
g9
(lp611
(iBasisSets
BasisFunction
p612
(dp613
g13
(lp614
F0.016664999999999999
aF0.104472
aF0.31725999999999999
aF0.48734300000000003
aF0.33460400000000001
asg15
(lp615
(iBasisSets
PrimitiveFunction
p616
(dp617
g19
F43.880000000000003
sg20
S'P'
p618
sba(iBasisSets
PrimitiveFunction
p619
(dp620
g19
F9.9260000000000002
sg20
S'P'
p621
sba(iBasisSets
PrimitiveFunction
p622
(dp623
g19
F2.9300000000000002
sg20
S'P'
p624
sba(iBasisSets
PrimitiveFunction
p625
(dp626
g19
F0.91320000000000001
sg20
S'P'
p627
sba(iBasisSets
PrimitiveFunction
p628
(dp629
g19
F0.26719999999999999
sg20
S'P'
p630
sbasg20
S'P'
p631
sba(iBasisSets
BasisFunction
p632
(dp633
g13
(lp634
F1.0
asg15
(lp635
(iBasisSets
PrimitiveFunction
p636
(dp637
g19
F0.91320000000000001
sg20
S'P'
p638
sbasg20
S'P'
p639
sba(iBasisSets
BasisFunction
p640
(dp641
g13
(lp642
F1.0
asg15
(lp643
(iBasisSets
PrimitiveFunction
p644
(dp645
g19
F0.26719999999999999
sg20
S'P'
p646
sbasg20
S'P'
p647
sba(iBasisSets
BasisFunction
p648
(dp649
g13
(lp650
F1.0
asg15
(lp651
(iBasisSets
PrimitiveFunction
p652
(dp653
g19
F0.073609999999999995
sg20
S'P'
p654
sbasg20
S'P'
p655
sbasg59
(lp656
(iBasisSets
BasisFunction
p657
(dp658
g13
(lp659
F0.00050699999999999996
aF0.0039230000000000003
aF0.020199999999999999
aF0.079009999999999997
aF0.230439
aF0.43287199999999998
aF0.349964
aF0.043233000000000001
aF-0.0078919999999999997
aF0.0023839999999999998
asg15
(lp660
(iBasisSets
PrimitiveFunction
p661
(dp662
g19
F19500.0
sg20
S'S'
p663
sba(iBasisSets
PrimitiveFunction
p664
(dp665
g19
F2923.0
sg20
S'S'
p666
sba(iBasisSets
PrimitiveFunction
p667
(dp668
g19
F664.5
sg20
S'S'
p669
sba(iBasisSets
PrimitiveFunction
p670
(dp671
g19
F187.5
sg20
S'S'
p672
sba(iBasisSets
PrimitiveFunction
p673
(dp674
g19
F60.619999999999997
sg20
S'S'
p675
sba(iBasisSets
PrimitiveFunction
p676
(dp677
g19
F21.420000000000002
sg20
S'S'
p678
sba(iBasisSets
PrimitiveFunction
p679
(dp680
g19
F7.9500000000000002
sg20
S'S'
p681
sba(iBasisSets
PrimitiveFunction
p682
(dp683
g19
F2.2570000000000001
sg20
S'S'
p684
sba(iBasisSets
PrimitiveFunction
p685
(dp686
g19
F0.88149999999999995
sg20
S'S'
p687
sba(iBasisSets
PrimitiveFunction
p688
(dp689
g19
F0.30409999999999998
sg20
S'S'
p690
sbasg20
S'S'
p691
sba(iBasisSets
BasisFunction
p692
(dp693
g13
(lp694
F-0.000117
aF-0.00091200000000000005
aF-0.0047169999999999998
aF-0.019085999999999999
aF-0.059655
aF-0.14001
aF-0.17678199999999999
aF0.171625
aF0.605043
aF0.36951200000000001
asg15
(lp695
(iBasisSets
PrimitiveFunction
p696
(dp697
g19
F19500.0
sg20
S'S'
p698
sba(iBasisSets
PrimitiveFunction
p699
(dp700
g19
F2923.0
sg20
S'S'
p701
sba(iBasisSets
PrimitiveFunction
p702
(dp703
g19
F664.5
sg20
S'S'
p704
sba(iBasisSets
PrimitiveFunction
p705
(dp706
g19
F187.5
sg20
S'S'
p707
sba(iBasisSets
PrimitiveFunction
p708
(dp709
g19
F60.619999999999997
sg20
S'S'
p710
sba(iBasisSets
PrimitiveFunction
p711
(dp712
g19
F21.420000000000002
sg20
S'S'
p713
sba(iBasisSets
PrimitiveFunction
p714
(dp715
g19
F7.9500000000000002
sg20
S'S'
p716
sba(iBasisSets
PrimitiveFunction
p717
(dp718
g19
F2.2570000000000001
sg20
S'S'
p719
sba(iBasisSets
PrimitiveFunction
p720
(dp721
g19
F0.88149999999999995
sg20
S'S'
p722
sba(iBasisSets
PrimitiveFunction
p723
(dp724
g19
F0.30409999999999998
sg20
S'S'
p725
sbasg20
S'S'
p726
sba(iBasisSets
BasisFunction
p727
(dp728
g13
(lp729
F1.0
asg15
(lp730
(iBasisSets
PrimitiveFunction
p731
(dp732
g19
F2.2570000000000001
sg20
S'S'
p733
sbasg20
S'S'
p734
sba(iBasisSets
BasisFunction
p735
(dp736
g13
(lp737
F1.0
asg15
(lp738
(iBasisSets
PrimitiveFunction
p739
(dp740
g19
F0.30409999999999998
sg20
S'S'
p741
sbasg20
S'S'
p742
sba(iBasisSets
BasisFunction
p743
(dp744
g13
(lp745
F1.0
asg15
(lp746
(iBasisSets
PrimitiveFunction
p747
(dp748
g19
F0.091579999999999995
sg20
S'S'
p749
sbasg20
S'S'
p750
sbasg155
(lp751
(iBasisSets
BasisFunction
p752
(dp753
g13
(lp754
F1.0
asg15
(lp755
(iBasisSets
PrimitiveFunction
p756
(dp757
g19
F3.1070000000000002
sg20
S'D'
p758
sbasg20
S'D'
p759
sba(iBasisSets
BasisFunction
p760
(dp761
g13
(lp762
F1.0
asg15
(lp763
(iBasisSets
PrimitiveFunction
p764
(dp765
g19
F0.85499999999999998
sg20
S'D'
p766
sbasg20
S'D'
p767
sba(iBasisSets
BasisFunction
p768
(dp769
g13
(lp770
F1.0
asg15
(lp771
(iBasisSets
PrimitiveFunction
p772
(dp773
g19
F0.29199999999999998
sg20
S'D'
p774
sbasg20
S'D'
p775
sbasg181
(lp776
(iBasisSets
BasisFunction
p777
(dp778
g13
(lp779
F1.0
asg15
(lp780
(iBasisSets
PrimitiveFunction
p781
(dp782
g19
F1.917
sg20
S'F'
p783
sbasg20
S'F'
p784
sba(iBasisSets
BasisFunction
p785
(dp786
g13
(lp787
F1.0
asg15
(lp788
(iBasisSets
PrimitiveFunction
p789
(dp790
g19
F0.72399999999999998
sg20
S'F'
p791
sbasg20
S'F'
p792
sbassbsS'O'
p793
(iBasisSets
AtomBasis
p794
(dp795
g7
(dp796
g9
(lp797
(iBasisSets
BasisFunction
p798
(dp799
g13
(lp800
F0.015928000000000001
aF0.099739999999999995
aF0.31049199999999999
aF0.49102600000000002
aF0.336337
asg15
(lp801
(iBasisSets
PrimitiveFunction
p802
(dp803
g19
F34.460000000000001
sg20
S'P'
p804
sba(iBasisSets
PrimitiveFunction
p805
(dp806
g19
F7.7489999999999997
sg20
S'P'
p807
sba(iBasisSets
PrimitiveFunction
p808
(dp809
g19
F2.2799999999999998
sg20
S'P'
p810
sba(iBasisSets
PrimitiveFunction
p811
(dp812
g19
F0.71560000000000001
sg20
S'P'
p813
sba(iBasisSets
PrimitiveFunction
p814
(dp815
g19
F0.214
sg20
S'P'
p816
sbasg20
S'P'
p817
sba(iBasisSets
BasisFunction
p818
(dp819
g13
(lp820
F1.0
asg15
(lp821
(iBasisSets
PrimitiveFunction
p822
(dp823
g19
F0.71560000000000001
sg20
S'P'
p824
sbasg20
S'P'
p825
sba(iBasisSets
BasisFunction
p826
(dp827
g13
(lp828
F1.0
asg15
(lp829
(iBasisSets
PrimitiveFunction
p830
(dp831
g19
F0.214
sg20
S'P'
p832
sbasg20
S'P'
p833
sba(iBasisSets
BasisFunction
p834
(dp835
g13
(lp836
F1.0
asg15
(lp837
(iBasisSets
PrimitiveFunction
p838
(dp839
g19
F0.059740000000000001
sg20
S'P'
p840
sbasg20
S'P'
p841
sbasg59
(lp842
(iBasisSets
BasisFunction
p843
(dp844
g13
(lp845
F0.00050799999999999999
aF0.0039290000000000002
aF0.020243000000000001
aF0.079181000000000001
aF0.230687
aF0.433118
aF0.35026000000000002
aF0.042728000000000002
aF-0.0081539999999999998
aF0.0023809999999999999
asg15
(lp846
(iBasisSets
PrimitiveFunction
p847
(dp848
g19
F15330.0
sg20
S'S'
p849
sba(iBasisSets
PrimitiveFunction
p850
(dp851
g19
F2299.0
sg20
S'S'
p852
sba(iBasisSets
PrimitiveFunction
p853
(dp854
g19
F522.39999999999998
sg20
S'S'
p855
sba(iBasisSets
PrimitiveFunction
p856
(dp857
g19
F147.30000000000001
sg20
S'S'
p858
sba(iBasisSets
PrimitiveFunction
p859
(dp860
g19
F47.549999999999997
sg20
S'S'
p861
sba(iBasisSets
PrimitiveFunction
p862
(dp863
g19
F16.760000000000002
sg20
S'S'
p864
sba(iBasisSets
PrimitiveFunction
p865
(dp866
g19
F6.2069999999999999
sg20
S'S'
p867
sba(iBasisSets
PrimitiveFunction
p868
(dp869
g19
F1.752
sg20
S'S'
p870
sba(iBasisSets
PrimitiveFunction
p871
(dp872
g19
F0.68820000000000003
sg20
S'S'
p873
sba(iBasisSets
PrimitiveFunction
p874
(dp875
g19
F0.2384
sg20
S'S'
p876
sbasg20
S'S'
p877
sba(iBasisSets
BasisFunction
p878
(dp879
g13
(lp880
F-0.000115
aF-0.00089499999999999996
aF-0.0046360000000000004
aF-0.018724000000000001
aF-0.058463000000000001
aF-0.136463
aF-0.17574000000000001
aF0.16093399999999999
aF0.60341800000000001
aF0.37876500000000002
asg15
(lp881
(iBasisSets
PrimitiveFunction
p882
(dp883
g19
F15330.0
sg20
S'S'
p884
sba(iBasisSets
PrimitiveFunction
p885
(dp886
g19
F2299.0
sg20
S'S'
p887
sba(iBasisSets
PrimitiveFunction
p888
(dp889
g19
F522.39999999999998
sg20
S'S'
p890
sba(iBasisSets
PrimitiveFunction
p891
(dp892
g19
F147.30000000000001
sg20
S'S'
p893
sba(iBasisSets
PrimitiveFunction
p894
(dp895
g19
F47.549999999999997
sg20
S'S'
p896
sba(iBasisSets
PrimitiveFunction
p897
(dp898
g19
F16.760000000000002
sg20
S'S'
p899
sba(iBasisSets
PrimitiveFunction
p900
(dp901
g19
F6.2069999999999999
sg20
S'S'
p902
sba(iBasisSets
PrimitiveFunction
p903
(dp904
g19
F1.752
sg20
S'S'
p905
sba(iBasisSets
PrimitiveFunction
p906
(dp907
g19
F0.68820000000000003
sg20
S'S'
p908
sba(iBasisSets
PrimitiveFunction
p909
(dp910
g19
F0.2384
sg20
S'S'
p911
sbasg20
S'S'
p912
sba(iBasisSets
BasisFunction
p913
(dp914
g13
(lp915
F1.0
asg15
(lp916
(iBasisSets
PrimitiveFunction
p917
(dp918
g19
F1.752
sg20
S'S'
p919
sbasg20
S'S'
p920
sba(iBasisSets
BasisFunction
p921
(dp922
g13
(lp923
F1.0
asg15
(lp924
(iBasisSets
PrimitiveFunction
p925
(dp926
g19
F0.2384
sg20
S'S'
p927
sbasg20
S'S'
p928
sba(iBasisSets
BasisFunction
p929
(dp930
g13
(lp931
F1.0
asg15
(lp932
(iBasisSets
PrimitiveFunction
p933
(dp934
g19
F0.073760000000000006
sg20
S'S'
p935
sbasg20
S'S'
p936
sbasg155
(lp937
(iBasisSets
BasisFunction
p938
(dp939
g13
(lp940
F1.0
asg15
(lp941
(iBasisSets
PrimitiveFunction
p942
(dp943
g19
F2.3140000000000001
sg20
S'D'
p944
sbasg20
S'D'
p945
sba(iBasisSets
BasisFunction
p946
(dp947
g13
(lp948
F1.0
asg15
(lp949
(iBasisSets
PrimitiveFunction
p950
(dp951
g19
F0.64500000000000002
sg20
S'D'
p952
sbasg20
S'D'
p953
sba(iBasisSets
BasisFunction
p954
(dp955
g13
(lp956
F1.0
asg15
(lp957
(iBasisSets
PrimitiveFunction
p958
(dp959
g19
F0.214
sg20
S'D'
p960
sbasg20
S'D'
p961
sbasg181
(lp962
(iBasisSets
BasisFunction
p963
(dp964
g13
(lp965
F1.0
asg15
(lp966
(iBasisSets
PrimitiveFunction
p967
(dp968
g19
F1.4279999999999999
sg20
S'F'
p969
sbasg20
S'F'
p970
sba(iBasisSets
BasisFunction
p971
(dp972
g13
(lp973
F1.0
asg15
(lp974
(iBasisSets
PrimitiveFunction
p975
(dp976
g19
F0.5
sg20
S'F'
p977
sbasg20
S'F'
p978
sbassbsS'N'
p979
(iBasisSets
AtomBasis
p980
(dp981
g7
(dp982
g9
(lp983
(iBasisSets
BasisFunction
p984
(dp985
g13
(lp986
F0.014670000000000001
aF0.091763999999999998
aF0.29868299999999998
aF0.49848700000000001
aF0.33702300000000002
asg15
(lp987
(iBasisSets
PrimitiveFunction
p988
(dp989
g19
F26.629999999999999
sg20
S'P'
p990
sba(iBasisSets
PrimitiveFunction
p991
(dp992
g19
F5.9480000000000004
sg20
S'P'
p993
sba(iBasisSets
PrimitiveFunction
p994
(dp995
g19
F1.742
sg20
S'P'
p996
sba(iBasisSets
PrimitiveFunction
p997
(dp998
g19
F0.55500000000000005
sg20
S'P'
p999
sba(iBasisSets
PrimitiveFunction
p1000
(dp1001
g19
F0.17249999999999999
sg20
S'P'
p1002
sbasg20
S'P'
p1003
sba(iBasisSets
BasisFunction
p1004
(dp1005
g13
(lp1006
F1.0
asg15
(lp1007
(iBasisSets
PrimitiveFunction
p1008
(dp1009
g19
F0.55500000000000005
sg20
S'P'
p1010
sbasg20
S'P'
p1011
sba(iBasisSets
BasisFunction
p1012
(dp1013
g13
(lp1014
F1.0
asg15
(lp1015
(iBasisSets
PrimitiveFunction
p1016
(dp1017
g19
F0.17249999999999999
sg20
S'P'
p1018
sbasg20
S'P'
p1019
sba(iBasisSets
BasisFunction
p1020
(dp1021
g13
(lp1022
F1.0
asg15
(lp1023
(iBasisSets
PrimitiveFunction
p1024
(dp1025
g19
F0.049099999999999998
sg20
S'P'
p1026
sbasg20
S'P'
p1027
sbasg59
(lp1028
(iBasisSets
BasisFunction
p1029
(dp1030
g13
(lp1031
F0.00052300000000000003
aF0.004045
aF0.020774999999999998
aF0.080726999999999993
aF0.233074
aF0.43350100000000003
aF0.347472
aF0.041262
aF-0.0085079999999999999
aF0.0023839999999999998
asg15
(lp1032
(iBasisSets
PrimitiveFunction
p1033
(dp1034
g19
F11420.0
sg20
S'S'
p1035
sba(iBasisSets
PrimitiveFunction
p1036
(dp1037
g19
F1712.0
sg20
S'S'
p1038
sba(iBasisSets
PrimitiveFunction
p1039
(dp1040
g19
F389.30000000000001
sg20
S'S'
p1041
sba(iBasisSets
PrimitiveFunction
p1042
(dp1043
g19
F110.0
sg20
S'S'
p1044
sba(iBasisSets
PrimitiveFunction
p1045
(dp1046
g19
F35.57
sg20
S'S'
p1047
sba(iBasisSets
PrimitiveFunction
p1048
(dp1049
g19
F12.539999999999999
sg20
S'S'
p1050
sba(iBasisSets
PrimitiveFunction
p1051
(dp1052
g19
F4.6440000000000001
sg20
S'S'
p1053
sba(iBasisSets
PrimitiveFunction
p1054
(dp1055
g19
F1.2929999999999999
sg20
S'S'
p1056
sba(iBasisSets
PrimitiveFunction
p1057
(dp1058
g19
F0.51180000000000003
sg20
S'S'
p1059
sba(iBasisSets
PrimitiveFunction
p1060
(dp1061
g19
F0.1787
sg20
S'S'
p1062
sbasg20
S'S'
p1063
sba(iBasisSets
BasisFunction
p1064
(dp1065
g13
(lp1066
F-0.000115
aF-0.00089499999999999996
aF-0.0046239999999999996
aF-0.018527999999999999
aF-0.057339000000000001
aF-0.132076
aF-0.17251
aF0.151814
aF0.59994400000000003
aF0.38746199999999997
asg15
(lp1067
(iBasisSets
PrimitiveFunction
p1068
(dp1069
g19
F11420.0
sg20
S'S'
p1070
sba(iBasisSets
PrimitiveFunction
p1071
(dp1072
g19
F1712.0
sg20
S'S'
p1073
sba(iBasisSets
PrimitiveFunction
p1074
(dp1075
g19
F389.30000000000001
sg20
S'S'
p1076
sba(iBasisSets
PrimitiveFunction
p1077
(dp1078
g19
F110.0
sg20
S'S'
p1079
sba(iBasisSets
PrimitiveFunction
p1080
(dp1081
g19
F35.57
sg20
S'S'
p1082
sba(iBasisSets
PrimitiveFunction
p1083
(dp1084
g19
F12.539999999999999
sg20
S'S'
p1085
sba(iBasisSets
PrimitiveFunction
p1086
(dp1087
g19
F4.6440000000000001
sg20
S'S'
p1088
sba(iBasisSets
PrimitiveFunction
p1089
(dp1090
g19
F1.2929999999999999
sg20
S'S'
p1091
sba(iBasisSets
PrimitiveFunction
p1092
(dp1093
g19
F0.51180000000000003
sg20
S'S'
p1094
sba(iBasisSets
PrimitiveFunction
p1095
(dp1096
g19
F0.1787
sg20
S'S'
p1097
sbasg20
S'S'
p1098
sba(iBasisSets
BasisFunction
p1099
(dp1100
g13
(lp1101
F1.0
asg15
(lp1102
(iBasisSets
PrimitiveFunction
p1103
(dp1104
g19
F1.2929999999999999
sg20
S'S'
p1105
sbasg20
S'S'
p1106
sba(iBasisSets
BasisFunction
p1107
(dp1108
g13
(lp1109
F1.0
asg15
(lp1110
(iBasisSets
PrimitiveFunction
p1111
(dp1112
g19
F0.1787
sg20
S'S'
p1113
sbasg20
S'S'
p1114
sba(iBasisSets
BasisFunction
p1115
(dp1116
g13
(lp1117
F1.0
asg15
(lp1118
(iBasisSets
PrimitiveFunction
p1119
(dp1120
g19
F0.057599999999999998
sg20
S'S'
p1121
sbasg20
S'S'
p1122
sbasg155
(lp1123
(iBasisSets
BasisFunction
p1124
(dp1125
g13
(lp1126
F1.0
asg15
(lp1127
(iBasisSets
PrimitiveFunction
p1128
(dp1129
g19
F1.6539999999999999
sg20
S'D'
p1130
sbasg20
S'D'
p1131
sba(iBasisSets
BasisFunction
p1132
(dp1133
g13
(lp1134
F1.0
asg15
(lp1135
(iBasisSets
PrimitiveFunction
p1136
(dp1137
g19
F0.46899999999999997
sg20
S'D'
p1138
sbasg20
S'D'
p1139
sba(iBasisSets
BasisFunction
p1140
(dp1141
g13
(lp1142
F1.0
asg15
(lp1143
(iBasisSets
PrimitiveFunction
p1144
(dp1145
g19
F0.151
sg20
S'D'
p1146
sbasg20
S'D'
p1147
sbasg181
(lp1148
(iBasisSets
BasisFunction
p1149
(dp1150
g13
(lp1151
F1.0
asg15
(lp1152
(iBasisSets
PrimitiveFunction
p1153
(dp1154
g19
F1.093
sg20
S'F'
p1155
sbasg20
S'F'
p1156
sba(iBasisSets
BasisFunction
p1157
(dp1158
g13
(lp1159
F1.0
asg15
(lp1160
(iBasisSets
PrimitiveFunction
p1161
(dp1162
g19
F0.36399999999999999
sg20
S'F'
p1163
sbasg20
S'F'
p1164
sbassbsS'S'
p1165
(iBasisSets
AtomBasis
p1166
(dp1167
S'basisDictionary'
p1168
(dp1169
S'P'
p1170
(lp1171
(iBasisSets
BasisFunction
p1172
(dp1173
S'coefficientList'
p1174
(lp1175
F0.0024226400000000002
aF0.019279600000000001
aF0.088540099999999997
aF0.25465399999999999
aF0.43398399999999998
aF0.35495300000000002
aF0.061894100000000001
aF-0.0050297700000000002
aF0.0020981300000000001
asS'primitiveList'
p1176
(lp1177
(iBasisSets
PrimitiveFunction
p1178
(dp1179
S'exponent'
p1180
F574.39999999999998
sS'angularMomentum'
p1181
S'P'
p1182
sba(iBasisSets
PrimitiveFunction
p1183
(dp1184
g1180
F135.80000000000001
sg1181
S'P'
p1185
sba(iBasisSets
PrimitiveFunction
p1186
(dp1187
g1180
F43.189999999999998
sg1181
S'P'
p1188
sba(iBasisSets
PrimitiveFunction
p1189
(dp1190
g1180
F15.869999999999999
sg1181
S'P'
p1191
sba(iBasisSets
PrimitiveFunction
p1192
(dp1193
g1180
F6.2080000000000002
sg1181
S'P'
p1194
sba(iBasisSets
PrimitiveFunction
p1195
(dp1196
g1180
F2.4830000000000001
sg1181
S'P'
p1197
sba(iBasisSets
PrimitiveFunction
p1198
(dp1199
g1180
F0.86880000000000002
sg1181
S'P'
p1200
sba(iBasisSets
PrimitiveFunction
p1201
(dp1202
g1180
F0.32290000000000002
sg1181
S'P'
p1203
sba(iBasisSets
PrimitiveFunction
p1204
(dp1205
g1180
F0.10979999999999999
sg1181
S'P'
p1206
sbasg1181
S'P'
p1207
sba(iBasisSets
BasisFunction
p1208
(dp1209
g1174
(lp1210
F-0.00062010199999999998
aF-0.00493882
aF-0.023264699999999999
aF-0.068519499999999997
aF-0.12389600000000001
aF-0.096949900000000006
aF0.228215
aF0.56939399999999996
aF0.36630200000000002
asg1176
(lp1211
(iBasisSets
PrimitiveFunction
p1212
(dp1213
g1180
F574.39999999999998
sg1181
S'P'
p1214
sba(iBasisSets
PrimitiveFunction
p1215
(dp1216
g1180
F135.80000000000001
sg1181
S'P'
p1217
sba(iBasisSets
PrimitiveFunction
p1218
(dp1219
g1180
F43.189999999999998
sg1181
S'P'
p1220
sba(iBasisSets
PrimitiveFunction
p1221
(dp1222
g1180
F15.869999999999999
sg1181
S'P'
p1223
sba(iBasisSets
PrimitiveFunction
p1224
(dp1225
g1180
F6.2080000000000002
sg1181
S'P'
p1226
sba(iBasisSets
PrimitiveFunction
p1227
(dp1228
g1180
F2.4830000000000001
sg1181
S'P'
p1229
sba(iBasisSets
PrimitiveFunction
p1230
(dp1231
g1180
F0.86880000000000002
sg1181
S'P'
p1232
sba(iBasisSets
PrimitiveFunction
p1233
(dp1234
g1180
F0.32290000000000002
sg1181
S'P'
p1235
sba(iBasisSets
PrimitiveFunction
p1236
(dp1237
g1180
F0.10979999999999999
sg1181
S'P'
p1238
sbasg1181
S'P'
p1239
sba(iBasisSets
BasisFunction
p1240
(dp1241
g1174
(lp1242
F1.0
asg1176
(lp1243
(iBasisSets
PrimitiveFunction
p1244
(dp1245
g1180
F0.86880000000000002
sg1181
S'P'
p1246
sbasg1181
S'P'
p1247
sba(iBasisSets
BasisFunction
p1248
(dp1249
g1174
(lp1250
F1.0
asg1176
(lp1251
(iBasisSets
PrimitiveFunction
p1252
(dp1253
g1180
F0.10979999999999999
sg1181
S'P'
p1254
sbasg1181
S'P'
p1255
sba(iBasisSets
BasisFunction
p1256
(dp1257
g1174
(lp1258
F1.0
asg1176
(lp1259
(iBasisSets
PrimitiveFunction
p1260
(dp1261
g1180
F0.035099999999999999
sg1181
S'P'
p1262
sbasg1181
S'P'
p1263
sbasS'S'
p1264
(lp1265
(iBasisSets
BasisFunction
p1266
(dp1267
g1174
(lp1268
F5.4214e-05
aF0.00042085499999999998
aF0.0022069799999999999
aF0.0091925800000000005
aF0.032112300000000003
aF0.094668299999999997
aF0.22363
aF0.37439299999999998
aF0.32910800000000001
aF0.084703799999999996
aF0.00044085100000000002
aF0.0016482700000000001
aF-0.00062233199999999996
aF0.00030130599999999999
aF-8.4128999999999994e-05
asg1176
(lp1269
(iBasisSets
PrimitiveFunction
p1270
(dp1271
g1180
F374100.0
sg1181
S'S'
p1272
sba(iBasisSets
PrimitiveFunction
p1273
(dp1274
g1180
F56050.0
sg1181
S'S'
p1275
sba(iBasisSets
PrimitiveFunction
p1276
(dp1277
g1180
F12760.0
sg1181
S'S'
p1278
sba(iBasisSets
PrimitiveFunction
p1279
(dp1280
g1180
F3615.0
sg1181
S'S'
p1281
sba(iBasisSets
PrimitiveFunction
p1282
(dp1283
g1180
F1183.0
sg1181
S'S'
p1284
sba(iBasisSets
PrimitiveFunction
p1285
(dp1286
g1180
F428.80000000000001
sg1181
S'S'
p1287
sba(iBasisSets
PrimitiveFunction
p1288
(dp1289
g1180
F167.80000000000001
sg1181
S'S'
p1290
sba(iBasisSets
PrimitiveFunction
p1291
(dp1292
g1180
F69.469999999999999
sg1181
S'S'
p1293
sba(iBasisSets
PrimitiveFunction
p1294
(dp1295
g1180
F29.84
sg1181
S'S'
p1296
sba(iBasisSets
PrimitiveFunction
p1297
(dp1298
g1180
F12.720000000000001
sg1181
S'S'
p1299
sba(iBasisSets
PrimitiveFunction
p1300
(dp1301
g1180
F5.2439999999999998
sg1181
S'S'
p1302
sba(iBasisSets
PrimitiveFunction
p1303
(dp1304
g1180
F2.2189999999999999
sg1181
S'S'
p1305
sba(iBasisSets
PrimitiveFunction
p1306
(dp1307
g1180
F0.77669999999999995
sg1181
S'S'
p1308
sba(iBasisSets
PrimitiveFunction
p1309
(dp1310
g1180
F0.34899999999999998
sg1181
S'S'
p1311
sba(iBasisSets
PrimitiveFunction
p1312
(dp1313
g1180
F0.13220000000000001
sg1181
S'S'
p1314
sbasg1181
S'S'
p1315
sba(iBasisSets
BasisFunction
p1316
(dp1317
g1174
(lp1318
F-1.49837e-05
aF-0.000116198
aF-0.00061158299999999996
aF-0.0025536999999999999
aF-0.0090870800000000009
aF-0.0277045
aF-0.072001999999999997
aF-0.14643900000000001
aF-0.19514999999999999
aF0.00819193
aF0.51660099999999998
aF0.54217800000000005
aF0.068843000000000001
aF-0.0091807199999999999
aF0.0022683199999999999
asg1176
(lp1319
(iBasisSets
PrimitiveFunction
p1320
(dp1321
g1180
F374100.0
sg1181
S'S'
p1322
sba(iBasisSets
PrimitiveFunction
p1323
(dp1324
g1180
F56050.0
sg1181
S'S'
p1325
sba(iBasisSets
PrimitiveFunction
p1326
(dp1327
g1180
F12760.0
sg1181
S'S'
p1328
sba(iBasisSets
PrimitiveFunction
p1329
(dp1330
g1180
F3615.0
sg1181
S'S'
p1331
sba(iBasisSets
PrimitiveFunction
p1332
(dp1333
g1180
F1183.0
sg1181
S'S'
p1334
sba(iBasisSets
PrimitiveFunction
p1335
(dp1336
g1180
F428.80000000000001
sg1181
S'S'
p1337
sba(iBasisSets
PrimitiveFunction
p1338
(dp1339
g1180
F167.80000000000001
sg1181
S'S'
p1340
sba(iBasisSets
PrimitiveFunction
p1341
(dp1342
g1180
F69.469999999999999
sg1181
S'S'
p1343
sba(iBasisSets
PrimitiveFunction
p1344
(dp1345
g1180
F29.84
sg1181
S'S'
p1346
sba(iBasisSets
PrimitiveFunction
p1347
(dp1348
g1180
F12.720000000000001
sg1181
S'S'
p1349
sba(iBasisSets
PrimitiveFunction
p1350
(dp1351
g1180
F5.2439999999999998
sg1181
S'S'
p1352
sba(iBasisSets
PrimitiveFunction
p1353
(dp1354
g1180
F2.2189999999999999
sg1181
S'S'
p1355
sba(iBasisSets
PrimitiveFunction
p1356
(dp1357
g1180
F0.77669999999999995
sg1181
S'S'
p1358
sba(iBasisSets
PrimitiveFunction
p1359
(dp1360
g1180
F0.34899999999999998
sg1181
S'S'
p1361
sba(iBasisSets
PrimitiveFunction
p1362
(dp1363
g1180
F0.13220000000000001
sg1181
S'S'
p1364
sbasg1181
S'S'
p1365
sba(iBasisSets
BasisFunction
p1366
(dp1367
g1174
(lp1368
F4.3506600000000003e-06
aF3.3714000000000003e-05
aF0.00017767400000000001
aF0.000741116
aF0.00264591
aF0.0080748699999999996
aF0.021227599999999999
aF0.043832299999999998
aF0.061271600000000002
aF-0.0036151
aF-0.20451
aF-0.38187100000000002
aF0.082684400000000005
aF0.71414699999999998
aF0.393791
asg1176
(lp1369
(iBasisSets
PrimitiveFunction
p1370
(dp1371
g1180
F374100.0
sg1181
S'S'
p1372
sba(iBasisSets
PrimitiveFunction
p1373
(dp1374
g1180
F56050.0
sg1181
S'S'
p1375
sba(iBasisSets
PrimitiveFunction
p1376
(dp1377
g1180
F12760.0
sg1181
S'S'
p1378
sba(iBasisSets
PrimitiveFunction
p1379
(dp1380
g1180
F3615.0
sg1181
S'S'
p1381
sba(iBasisSets
PrimitiveFunction
p1382
(dp1383
g1180
F1183.0
sg1181
S'S'
p1384
sba(iBasisSets
PrimitiveFunction
p1385
(dp1386
g1180
F428.80000000000001
sg1181
S'S'
p1387
sba(iBasisSets
PrimitiveFunction
p1388
(dp1389
g1180
F167.80000000000001
sg1181
S'S'
p1390
sba(iBasisSets
PrimitiveFunction
p1391
(dp1392
g1180
F69.469999999999999
sg1181
S'S'
p1393
sba(iBasisSets
PrimitiveFunction
p1394
(dp1395
g1180
F29.84
sg1181
S'S'
p1396
sba(iBasisSets
PrimitiveFunction
p1397
(dp1398
g1180
F12.720000000000001
sg1181
S'S'
p1399
sba(iBasisSets
PrimitiveFunction
p1400
(dp1401
g1180
F5.2439999999999998
sg1181
S'S'
p1402
sba(iBasisSets
PrimitiveFunction
p1403
(dp1404
g1180
F2.2189999999999999
sg1181
S'S'
p1405
sba(iBasisSets
PrimitiveFunction
p1406
(dp1407
g1180
F0.77669999999999995
sg1181
S'S'
p1408
sba(iBasisSets
PrimitiveFunction
p1409
(dp1410
g1180
F0.34899999999999998
sg1181
S'S'
p1411
sba(iBasisSets
PrimitiveFunction
p1412
(dp1413
g1180
F0.13220000000000001
sg1181
S'S'
p1414
sbasg1181
S'S'
p1415
sba(iBasisSets
BasisFunction
p1416
(dp1417
g1174
(lp1418
F1.0
asg1176
(lp1419
(iBasisSets
PrimitiveFunction
p1420
(dp1421
g1180
F0.77669999999999995
sg1181
S'S'
p1422
sbasg1181
S'S'
p1423
sba(iBasisSets
BasisFunction
p1424
(dp1425
g1174
(lp1426
F1.0
asg1176
(lp1427
(iBasisSets
PrimitiveFunction
p1428
(dp1429
g1180
F0.13220000000000001
sg1181
S'S'
p1430
sbasg1181
S'S'
p1431
sba(iBasisSets
BasisFunction
p1432
(dp1433
g1174
(lp1434
F1.0
asg1176
(lp1435
(iBasisSets
PrimitiveFunction
p1436
(dp1437
g1180
F0.049700000000000001
sg1181
S'S'
p1438
sbasg1181
S'S'
p1439
sbasS'D'
p1440
(lp1441
(iBasisSets
BasisFunction
p1442
(dp1443
g1174
(lp1444
F1.0
asg1176
(lp1445
(iBasisSets
PrimitiveFunction
p1446
(dp1447
g1180
F3.7559999999999998
sg1181
S'D'
p1448
sbasg1181
S'D'
p1449
sba(iBasisSets
BasisFunction
p1450
(dp1451
g1174
(lp1452
F1.0
asg1176
(lp1453
(iBasisSets
PrimitiveFunction
p1454
(dp1455
g1180
F0.81200000000000006
sg1181
S'D'
p1456
sbasg1181
S'D'
p1457
sba(iBasisSets
BasisFunction
p1458
(dp1459
g1174
(lp1460
F1.0
asg1176
(lp1461
(iBasisSets
PrimitiveFunction
p1462
(dp1463
g1180
F0.27300000000000002
sg1181
S'D'
p1464
sbasg1181
S'D'
p1465
sba(iBasisSets
BasisFunction
p1466
(dp1467
g1174
(lp1468
F1.0
asg1176
(lp1469
(iBasisSets
PrimitiveFunction
p1470
(dp1471
g1180
F0.10100000000000001
sg1181
S'D'
p1472
sbasg1181
S'D'
p1473
sbasS'F'
p1474
(lp1475
(iBasisSets
BasisFunction
p1476
(dp1477
g1174
(lp1478
F1.0
asg1176
(lp1479
(iBasisSets
PrimitiveFunction
p1480
(dp1481
g1180
F0.55700000000000005
sg1181
S'F'
p1482
sbasg1181
S'F'
p1483
sba(iBasisSets
BasisFunction
p1484
(dp1485
g1174
(lp1486
F1.0
asg1176
(lp1487
(iBasisSets
PrimitiveFunction
p1488
(dp1489
g1180
F0.218
sg1181
S'F'
p1490
sbasg1181
S'F'
p1491
sbassbssb.