ccopy_reg
_reconstructor
p0
(cbasisset
BasisSet
p1
c__builtin__
object
p2
Ntp3
Rp4
(dp5
S'basisDictionary'
p6
(dp7
S'BE'
p8
(lp9
g0
(cbasisset
Shell
p10
g2
Ntp11
Rp12
(dp13
S'angularMomentum'
p14
S'S'
p15
sS'exponents'
p16
(lp17
F2940.0
aF441.19999999999999
aF100.5
aF28.43
aF9.1690000000000005
aF3.1960000000000002
aF1.159
aF0.18110000000000001
asS'coefficients'
p18
(lp19
(lp20
F0.00068000000000000005
aF0.0052360000000000002
aF0.026606000000000001
aF0.099992999999999999
aF0.269702
aF0.45146900000000001
aF0.295074
aF0.012586999999999999
aa(lp21
F-0.00012300000000000001
aF-0.00096599999999999995
aF-0.0048310000000000002
aF-0.019314000000000001
aF-0.053280000000000001
aF-0.120723
aF-0.133435
aF0.53076699999999999
aasS'atom'
p22
S'BE'
p23
sbag0
(g10
g2
Ntp24
Rp25
(dp26
g14
S'S'
p27
sg16
(lp28
F0.058900000000000001
asg18
(lp29
(lp30
F1.0
aasg22
S'BE'
p31
sbag0
(g10
g2
Ntp32
Rp33
(dp34
g14
S'P'
p35
sg16
(lp36
F3.6190000000000002
aF0.71099999999999997
aF0.1951
asg18
(lp37
(lp38
F0.029111000000000001
aF0.16936499999999999
aF0.51345799999999997
aasg22
S'BE'
p39
sbag0
(g10
g2
Ntp40
Rp41
(dp42
g14
S'P'
p43
sg16
(lp44
F0.060179999999999997
asg18
(lp45
(lp46
F1.0
aasg22
S'BE'
p47
sbag0
(g10
g2
Ntp48
Rp49
(dp50
g14
S'D'
p51
sg16
(lp52
F0.23799999999999999
asg18
(lp53
(lp54
F1.0
aasg22
S'BE'
p55
sbassb.