ccopy_reg
_reconstructor
p0
(cbasisset
BasisSet
p1
c__builtin__
object
p2
Ntp3
Rp4
(dp5
S'basisDictionary'
p6
(dp7
S'H'
p8
(lp9
g0
(cbasisset
Shell
p10
g2
Ntp11
Rp12
(dp13
S'angularMomentum'
p14
S'S'
p15
sS'exponents'
p16
(lp17
F402.0
aF60.240000000000002
aF13.73
aF3.9049999999999998
asS'coefficients'
p18
(lp19
(lp20
F0.00027900000000000001
aF0.0021649999999999998
aF0.011200999999999999
aF0.044878000000000001
aasS'atom'
p21
S' H'
p22
sbag0
(g10
g2
Ntp23
Rp24
(dp25
g14
S'S'
p26
sg16
(lp27
F1.2829999999999999
asg18
(lp28
(lp29
F1.0
aasg21
S' H'
p30
sbag0
(g10
g2
Ntp31
Rp32
(dp33
g14
S'S'
p34
sg16
(lp35
F0.46550000000000002
asg18
(lp36
(lp37
F1.0
aasg21
S' H'
p38
sbag0
(g10
g2
Ntp39
Rp40
(dp41
g14
S'S'
p42
sg16
(lp43
F0.18110000000000001
asg18
(lp44
(lp45
F1.0
aasg21
S' H'
p46
sbag0
(g10
g2
Ntp47
Rp48
(dp49
g14
S'S'
p50
sg16
(lp51
F0.072789999999999994
asg18
(lp52
(lp53
F1.0
aasg21
S' H'
p54
sbag0
(g10
g2
Ntp55
Rp56
(dp57
g14
S'P'
p58
sg16
(lp59
F4.516
asg18
(lp60
(lp61
F1.0
aasg21
S' H'
p62
sbag0
(g10
g2
Ntp63
Rp64
(dp65
g14
S'P'
p66
sg16
(lp67
F1.712
asg18
(lp68
(lp69
F1.0
aasg21
S' H'
p70
sbag0
(g10
g2
Ntp71
Rp72
(dp73
g14
S'P'
p74
sg16
(lp75
F0.64900000000000002
asg18
(lp76
(lp77
F1.0
aasg21
S' H'
p78
sbag0
(g10
g2
Ntp79
Rp80
(dp81
g14
S'P'
p82
sg16
(lp83
F0.246
asg18
(lp84
(lp85
F1.0
aasg21
S' H'
p86
sbag0
(g10
g2
Ntp87
Rp88
(dp89
g14
S'D'
p90
sg16
(lp91
F2.9500000000000002
asg18
(lp92
(lp93
F1.0
aasg21
S' H'
p94
sbag0
(g10
g2
Ntp95
Rp96
(dp97
g14
S'D'
p98
sg16
(lp99
F1.206
asg18
(lp100
(lp101
F1.0
aasg21
S' H'
p102
sbag0
(g10
g2
Ntp103
Rp104
(dp105
g14
S'D'
p106
sg16
(lp107
F0.49299999999999999
asg18
(lp108
(lp109
F1.0
aasg21
S' H'
p110
sbag0
(g10
g2
Ntp111
Rp112
(dp113
g14
S'F'
p114
sg16
(lp115
F2.5059999999999998
asg18
(lp116
(lp117
F1.0
aasg21
S' H'
p118
sbag0
(g10
g2
Ntp119
Rp120
(dp121
g14
S'F'
p122
sg16
(lp123
F0.875
asg18
(lp124
(lp125
F1.0
aasg21
S' H'
p126
sbag0
(g10
g2
Ntp127
Rp128
(dp129
g14
S'G'
p130
sg16
(lp131
F2.3580000000000001
asg18
(lp132
(lp133
F1.0
aasg21
S' H'
p134
sbasS'C'
p135
(lp136
g0
(g10
g2
Ntp137
Rp138
(dp139
S'angularMomentum'
p140
S'S'
p141
sS'exponents'
p142
(lp143
F96770.0
aF14500.0
aF3300.0
aF935.79999999999995
aF306.19999999999999
aF111.3
aF43.899999999999999
aF18.399999999999999
aF8.0540000000000003
aF3.637
asS'coefficients'
p144
(lp145
(lp146
F2.5000000000000001e-05
aF0.00019000000000000001
aF0.001
aF0.0041830000000000001
aF0.014859000000000001
aF0.045301000000000001
aF0.116504
aF0.24024899999999999
aF0.35879899999999998
aF0.29394100000000001
aa(lp147
F-5.0000000000000004e-06
aF-4.1e-05
aF-0.000213
aF-0.00089700000000000001
aF-0.0031870000000000002
aF-0.0099609999999999994
aF-0.026374999999999999
aF-0.060000999999999999
aF-0.106825
aF-0.14416599999999999
aasS'atom'
p148
S' C'
p149
sbag0
(g10
g2
Ntp150
Rp151
(dp152
g140
S'S'
p153
sg142
(lp154
F1.6559999999999999
asg144
(lp155
(lp156
F1.0
aasg148
S' C'
p157
sbag0
(g10
g2
Ntp158
Rp159
(dp160
g140
S'S'
p161
sg142
(lp162
F0.63329999999999997
asg144
(lp163
(lp164
F1.0
aasg148
S' C'
p165
sbag0
(g10
g2
Ntp166
Rp167
(dp168
g140
S'S'
p169
sg142
(lp170
F0.2545
asg144
(lp171
(lp172
F1.0
aasg148
S' C'
p173
sbag0
(g10
g2
Ntp174
Rp175
(dp176
g140
S'S'
p177
sg142
(lp178
F0.1019
asg144
(lp179
(lp180
F1.0
aasg148
S' C'
p181
sbag0
(g10
g2
Ntp182
Rp183
(dp184
g140
S'P'
p185
sg142
(lp186
F101.8
aF24.039999999999999
aF7.5709999999999997
aF2.7320000000000002
asg144
(lp187
(lp188
F0.00089099999999999997
aF0.0069760000000000004
aF0.031669000000000003
aF0.104006
aasg148
S' C'
p189
sbag0
(g10
g2
Ntp190
Rp191
(dp192
g140
S'P'
p193
sg142
(lp194
F1.085
asg144
(lp195
(lp196
F1.0
aasg148
S' C'
p197
sbag0
(g10
g2
Ntp198
Rp199
(dp200
g140
S'P'
p201
sg142
(lp202
F0.4496
asg144
(lp203
(lp204
F1.0
aasg148
S' C'
p205
sbag0
(g10
g2
Ntp206
Rp207
(dp208
g140
S'P'
p209
sg142
(lp210
F0.18759999999999999
asg144
(lp211
(lp212
F1.0
aasg148
S' C'
p213
sbag0
(g10
g2
Ntp214
Rp215
(dp216
g140
S'P'
p217
sg142
(lp218
F0.076060000000000003
asg144
(lp219
(lp220
F1.0
aasg148
S' C'
p221
sbag0
(g10
g2
Ntp222
Rp223
(dp224
g140
S'D'
p225
sg142
(lp226
F3.1339999999999999
asg144
(lp227
(lp228
F1.0
aasg148
S' C'
p229
sbag0
(g10
g2
Ntp230
Rp231
(dp232
g140
S'D'
p233
sg142
(lp234
F1.2330000000000001
asg144
(lp235
(lp236
F1.0
aasg148
S' C'
p237
sbag0
(g10
g2
Ntp238
Rp239
(dp240
g140
S'D'
p241
sg142
(lp242
F0.48499999999999999
asg144
(lp243
(lp244
F1.0
aasg148
S' C'
p245
sbag0
(g10
g2
Ntp246
Rp247
(dp248
g140
S'D'
p249
sg142
(lp250
F0.191
asg144
(lp251
(lp252
F1.0
aasg148
S' C'
p253
sbag0
(g10
g2
Ntp254
Rp255
(dp256
g140
S'F'
p257
sg142
(lp258
F2.0059999999999998
asg144
(lp259
(lp260
F1.0
aasg148
S' C'
p261
sbag0
(g10
g2
Ntp262
Rp263
(dp264
g140
S'F'
p265
sg142
(lp266
F0.83799999999999997
asg144
(lp267
(lp268
F1.0
aasg148
S' C'
p269
sbag0
(g10
g2
Ntp270
Rp271
(dp272
g140
S'F'
p273
sg142
(lp274
F0.34999999999999998
asg144
(lp275
(lp276
F1.0
aasg148
S' C'
p277
sbag0
(g10
g2
Ntp278
Rp279
(dp280
g140
S'G'
p281
sg142
(lp282
F1.7529999999999999
asg144
(lp283
(lp284
F1.0
aasg148
S' C'
p285
sbag0
(g10
g2
Ntp286
Rp287
(dp288
g140
S'G'
p289
sg142
(lp290
F0.67800000000000005
asg144
(lp291
(lp292
F1.0
aasg148
S' C'
p293
sbag0
(g10
g2
Ntp294
Rp295
(dp296
g140
S'H'
p297
sg142
(lp298
F1.2589999999999999
asg144
(lp299
(lp300
F1.0
aasg148
S' C'
p301
sbag0
(g10
g2
Ntp302
Rp303
(dp304
g140
S'S'
p305
sg142
(lp306
F9.1850000000000005
asg144
(lp307
(lp308
F1.0
aasg148
S' C'
p309
sbag0
(g10
g2
Ntp310
Rp311
(dp312
g140
S'S'
p313
sg142
(lp314
F20.795000000000002
asg144
(lp315
(lp316
F1.0
aasg148
S' C'
p317
sbag0
(g10
g2
Ntp318
Rp319
(dp320
g140
S'S'
p321
sg142
(lp322
F47.079999999999998
asg144
(lp323
(lp324
F1.0
aasg148
S' C'
p325
sbag0
(g10
g2
Ntp326
Rp327
(dp328
g140
S'S'
p329
sg142
(lp330
F106.58799999999999
asg144
(lp331
(lp332
F1.0
aasg148
S' C'
p333
sbag0
(g10
g2
Ntp334
Rp335
(dp336
g140
S'P'
p337
sg142
(lp338
F7.6680000000000001
asg144
(lp339
(lp340
F1.0
aasg148
S' C'
p341
sbag0
(g10
g2
Ntp342
Rp343
(dp344
g140
S'P'
p345
sg142
(lp346
F19.484000000000002
asg144
(lp347
(lp348
F1.0
aasg148
S' C'
p349
sbag0
(g10
g2
Ntp350
Rp351
(dp352
g140
S'P'
p353
sg142
(lp354
F49.509999999999998
asg144
(lp355
(lp356
F1.0
aasg148
S' C'
p357
sbag0
(g10
g2
Ntp358
Rp359
(dp360
g140
S'P'
p361
sg142
(lp362
F125.804
asg144
(lp363
(lp364
F1.0
aasg148
S' C'
p365
sbag0
(g10
g2
Ntp366
Rp367
(dp368
g140
S'D'
p369
sg142
(lp370
F10.009
asg144
(lp371
(lp372
F1.0
aasg148
S' C'
p373
sbag0
(g10
g2
Ntp374
Rp375
(dp376
g140
S'D'
p377
sg142
(lp378
F28.065000000000001
asg144
(lp379
(lp380
F1.0
aasg148
S' C'
p381
sbag0
(g10
g2
Ntp382
Rp383
(dp384
g140
S'D'
p385
sg142
(lp386
F78.694999999999993
asg144
(lp387
(lp388
F1.0
aasg148
S' C'
p389
sbag0
(g10
g2
Ntp390
Rp391
(dp392
g140
S'F'
p393
sg142
(lp394
F11.693
asg144
(lp395
(lp396
F1.0
aasg148
S' C'
p397
sbag0
(g10
g2
Ntp398
Rp399
(dp400
g140
S'F'
p401
sg142
(lp402
F41.569000000000003
asg144
(lp403
(lp404
F1.0
aasg148
S' C'
p405
sbag0
(g10
g2
Ntp406
Rp407
(dp408
g140
S'G'
p409
sg142
(lp410
F32.780000000000001
asg144
(lp411
(lp412
F1.0
aasg148
S' C'
p413
sbasS'O'
p414
(lp415
g0
(g10
g2
Ntp416
Rp417
(dp418
S'angularMomentum'
p419
S'S'
p420
sS'exponents'
p421
(lp422
F164200.0
aF24590.0
aF5592.0
aF1582.0
aF516.10000000000002
aF187.19999999999999
aF73.930000000000007
aF31.219999999999999
aF13.81
aF6.2560000000000002
asS'coefficients'
p423
(lp424
(lp425
F2.5999999999999998e-05
aF0.000205
aF0.0010759999999999999
aF0.004522
aF0.016108000000000001
aF0.049084999999999997
aF0.124857
aF0.25168600000000002
aF0.36242000000000002
aF0.27905099999999999
aa(lp426
F-6.0000000000000002e-06
aF-4.6e-05
aF-0.00024399999999999999
aF-0.001031
aF-0.0036879999999999999
aF-0.011514
aF-0.030435
aF-0.068146999999999999
aF-0.120368
aF-0.14826
aasS'atom'
p427
S' O'
p428
sbag0
(g10
g2
Ntp429
Rp430
(dp431
g419
S'S'
p432
sg421
(lp433
F2.7759999999999998
asg423
(lp434
(lp435
F1.0
aasg427
S' O'
p436
sbag0
(g10
g2
Ntp437
Rp438
(dp439
g419
S'S'
p440
sg421
(lp441
F1.1379999999999999
asg423
(lp442
(lp443
F1.0
aasg427
S' O'
p444
sbag0
(g10
g2
Ntp445
Rp446
(dp447
g419
S'S'
p448
sg421
(lp449
F0.46000000000000002
asg423
(lp450
(lp451
F1.0
aasg427
S' O'
p452
sbag0
(g10
g2
Ntp453
Rp454
(dp455
g419
S'S'
p456
sg421
(lp457
F0.18290000000000001
asg423
(lp458
(lp459
F1.0
aasg427
S' O'
p460
sbag0
(g10
g2
Ntp461
Rp462
(dp463
g419
S'P'
p464
sg421
(lp465
F195.5
aF46.159999999999997
aF14.58
aF5.2960000000000003
asg423
(lp466
(lp467
F0.00091799999999999998
aF0.0073879999999999996
aF0.034958000000000003
aF0.11543100000000001
aasg427
S' O'
p468
sbag0
(g10
g2
Ntp469
Rp470
(dp471
g419
S'P'
p472
sg421
(lp473
F2.0939999999999999
asg423
(lp474
(lp475
F1.0
aasg427
S' O'
p476
sbag0
(g10
g2
Ntp477
Rp478
(dp479
g419
S'P'
p480
sg421
(lp481
F0.84709999999999996
asg423
(lp482
(lp483
F1.0
aasg427
S' O'
p484
sbag0
(g10
g2
Ntp485
Rp486
(dp487
g419
S'P'
p488
sg421
(lp489
F0.33679999999999999
asg423
(lp490
(lp491
F1.0
aasg427
S' O'
p492
sbag0
(g10
g2
Ntp493
Rp494
(dp495
g419
S'P'
p496
sg421
(lp497
F0.1285
asg423
(lp498
(lp499
F1.0
aasg427
S' O'
p500
sbag0
(g10
g2
Ntp501
Rp502
(dp503
g419
S'D'
p504
sg421
(lp505
F5.8789999999999996
asg423
(lp506
(lp507
F1.0
aasg427
S' O'
p508
sbag0
(g10
g2
Ntp509
Rp510
(dp511
g419
S'D'
p512
sg421
(lp513
F2.3069999999999999
asg423
(lp514
(lp515
F1.0
aasg427
S' O'
p516
sbag0
(g10
g2
Ntp517
Rp518
(dp519
g419
S'D'
p520
sg421
(lp521
F0.90500000000000003
asg423
(lp522
(lp523
F1.0
aasg427
S' O'
p524
sbag0
(g10
g2
Ntp525
Rp526
(dp527
g419
S'D'
p528
sg421
(lp529
F0.35499999999999998
asg423
(lp530
(lp531
F1.0
aasg427
S' O'
p532
sbag0
(g10
g2
Ntp533
Rp534
(dp535
g419
S'F'
p536
sg421
(lp537
F4.016
asg423
(lp538
(lp539
F1.0
aasg427
S' O'
p540
sbag0
(g10
g2
Ntp541
Rp542
(dp543
g419
S'F'
p544
sg421
(lp545
F1.554
asg423
(lp546
(lp547
F1.0
aasg427
S' O'
p548
sbag0
(g10
g2
Ntp549
Rp550
(dp551
g419
S'F'
p552
sg421
(lp553
F0.60099999999999998
asg423
(lp554
(lp555
F1.0
aasg427
S' O'
p556
sbag0
(g10
g2
Ntp557
Rp558
(dp559
g419
S'G'
p560
sg421
(lp561
F3.3500000000000001
asg423
(lp562
(lp563
F1.0
aasg427
S' O'
p564
sbag0
(g10
g2
Ntp565
Rp566
(dp567
g419
S'G'
p568
sg421
(lp569
F1.1890000000000001
asg423
(lp570
(lp571
F1.0
aasg427
S' O'
p572
sbag0
(g10
g2
Ntp573
Rp574
(dp575
g419
S'H'
p576
sg421
(lp577
F2.319
asg423
(lp578
(lp579
F1.0
aasg427
S' O'
p580
sbag0
(g10
g2
Ntp581
Rp582
(dp583
g419
S'S'
p584
sg421
(lp585
F15.645
asg423
(lp586
(lp587
F1.0
aasg427
S' O'
p588
sbag0
(g10
g2
Ntp589
Rp590
(dp591
g419
S'S'
p592
sg421
(lp593
F35.874000000000002
asg423
(lp594
(lp595
F1.0
aasg427
S' O'
p596
sbag0
(g10
g2
Ntp597
Rp598
(dp599
g419
S'S'
p600
sg421
(lp601
F82.259
asg423
(lp602
(lp603
F1.0
aasg427
S' O'
p604
sbag0
(g10
g2
Ntp605
Rp606
(dp607
g419
S'S'
p608
sg421
(lp609
F188.62
asg423
(lp610
(lp611
F1.0
aasg427
S' O'
p612
sbag0
(g10
g2
Ntp613
Rp614
(dp615
g419
S'P'
p616
sg421
(lp617
F14.048999999999999
asg423
(lp618
(lp619
F1.0
aasg427
S' O'
p620
sbag0
(g10
g2
Ntp621
Rp622
(dp623
g419
S'P'
p624
sg421
(lp625
F35.445999999999998
asg423
(lp626
(lp627
F1.0
aasg427
S' O'
p628
sbag0
(g10
g2
Ntp629
Rp630
(dp631
g419
S'P'
p632
sg421
(lp633
F89.429000000000002
asg423
(lp634
(lp635
F1.0
aasg427
S' O'
p636
sbag0
(g10
g2
Ntp637
Rp638
(dp639
g419
S'P'
p640
sg421
(lp641
F225.63
asg423
(lp642
(lp643
F1.0
aasg427
S' O'
p644
sbag0
(g10
g2
Ntp645
Rp646
(dp647
g419
S'D'
p648
sg421
(lp649
F16.702999999999999
asg423
(lp650
(lp651
F1.0
aasg427
S' O'
p652
sbag0
(g10
g2
Ntp653
Rp654
(dp655
g419
S'D'
p656
sg421
(lp657
F47.32
asg423
(lp658
(lp659
F1.0
aasg427
S' O'
p660
sbag0
(g10
g2
Ntp661
Rp662
(dp663
g419
S'D'
p664
sg421
(lp665
F134.05600000000001
asg423
(lp666
(lp667
F1.0
aasg427
S' O'
p668
sbag0
(g10
g2
Ntp669
Rp670
(dp671
g419
S'F'
p672
sg421
(lp673
F17.353999999999999
asg423
(lp674
(lp675
F1.0
aasg427
S' O'
p676
sbag0
(g10
g2
Ntp677
Rp678
(dp679
g419
S'F'
p680
sg421
(lp681
F65.546000000000006
asg423
(lp682
(lp683
F1.0
aasg427
S' O'
p684
sbag0
(g10
g2
Ntp685
Rp686
(dp687
g419
S'G'
p688
sg421
(lp689
F48.578000000000003
asg423
(lp690
(lp691
F1.0
aasg427
S' O'
p692
sbasS'N'
p693
(lp694
g0
(g10
g2
Ntp695
Rp696
(dp697
g419
S'S'
p698
sg421
(lp699
F129200.0
aF19350.0
aF4404.0
aF1248.0
aF408.0
aF148.19999999999999
aF58.5
aF24.59
aF10.81
aF4.8819999999999997
asg423
(lp700
(lp701
F2.5000000000000001e-05
aF0.00019699999999999999
aF0.0010319999999999999
aF0.0043249999999999999
aF0.01538
aF0.046866999999999999
aF0.120116
aF0.245695
aF0.36137900000000001
aF0.28728300000000001
aa(lp702
F-6.0000000000000002e-06
aF-4.3000000000000002e-05
aF-0.00022699999999999999
aF-0.00095799999999999998
aF-0.0034160000000000002
aF-0.010666999999999999
aF-0.028278999999999999
aF-0.064019999999999994
aF-0.11393200000000001
aF-0.14699499999999999
aasg427
S' N'
p703
sbag0
(g10
g2
Ntp704
Rp705
(dp706
g419
S'S'
p707
sg421
(lp708
F2.1949999999999998
asg423
(lp709
(lp710
F1.0
aasg427
S' N'
p711
sbag0
(g10
g2
Ntp712
Rp713
(dp714
g419
S'S'
p715
sg421
(lp716
F0.87150000000000005
asg423
(lp717
(lp718
F1.0
aasg427
S' N'
p719
sbag0
(g10
g2
Ntp720
Rp721
(dp722
g419
S'S'
p723
sg421
(lp724
F0.35039999999999999
asg423
(lp725
(lp726
F1.0
aasg427
S' N'
p727
sbag0
(g10
g2
Ntp728
Rp729
(dp730
g419
S'S'
p731
sg421
(lp732
F0.13969999999999999
asg423
(lp733
(lp734
F1.0
aasg427
S' N'
p735
sbag0
(g10
g2
Ntp736
Rp737
(dp738
g419
S'P'
p739
sg421
(lp740
F147.0
aF34.759999999999998
aF11.0
aF3.9950000000000001
asg423
(lp741
(lp742
F0.000892
aF0.0070819999999999998
aF0.032815999999999998
aF0.108209
aasg427
S' N'
p743
sbag0
(g10
g2
Ntp744
Rp745
(dp746
g419
S'P'
p747
sg421
(lp748
F1.587
asg423
(lp749
(lp750
F1.0
aasg427
S' N'
p751
sbag0
(g10
g2
Ntp752
Rp753
(dp754
g419
S'P'
p755
sg421
(lp756
F0.65329999999999999
asg423
(lp757
(lp758
F1.0
aasg427
S' N'
p759
sbag0
(g10
g2
Ntp760
Rp761
(dp762
g419
S'P'
p763
sg421
(lp764
F0.26860000000000001
asg423
(lp765
(lp766
F1.0
aasg427
S' N'
p767
sbag0
(g10
g2
Ntp768
Rp769
(dp770
g419
S'P'
p771
sg421
(lp772
F0.1067
asg423
(lp773
(lp774
F1.0
aasg427
S' N'
p775
sbag0
(g10
g2
Ntp776
Rp777
(dp778
g419
S'D'
p779
sg421
(lp780
F4.6470000000000002
asg423
(lp781
(lp782
F1.0
aasg427
S' N'
p783
sbag0
(g10
g2
Ntp784
Rp785
(dp786
g419
S'D'
p787
sg421
(lp788
F1.8129999999999999
asg423
(lp789
(lp790
F1.0
aasg427
S' N'
p791
sbag0
(g10
g2
Ntp792
Rp793
(dp794
g419
S'D'
p795
sg421
(lp796
F0.70699999999999996
asg423
(lp797
(lp798
F1.0
aasg427
S' N'
p799
sbag0
(g10
g2
Ntp800
Rp801
(dp802
g419
S'D'
p803
sg421
(lp804
F0.27600000000000002
asg423
(lp805
(lp806
F1.0
aasg427
S' N'
p807
sbag0
(g10
g2
Ntp808
Rp809
(dp810
g419
S'F'
p811
sg421
(lp812
F2.9420000000000002
asg423
(lp813
(lp814
F1.0
aasg427
S' N'
p815
sbag0
(g10
g2
Ntp816
Rp817
(dp818
g419
S'F'
p819
sg421
(lp820
F1.204
asg423
(lp821
(lp822
F1.0
aasg427
S' N'
p823
sbag0
(g10
g2
Ntp824
Rp825
(dp826
g419
S'F'
p827
sg421
(lp828
F0.49299999999999999
asg423
(lp829
(lp830
F1.0
aasg427
S' N'
p831
sbag0
(g10
g2
Ntp832
Rp833
(dp834
g419
S'G'
p835
sg421
(lp836
F2.5110000000000001
asg423
(lp837
(lp838
F1.0
aasg427
S' N'
p839
sbag0
(g10
g2
Ntp840
Rp841
(dp842
g419
S'G'
p843
sg421
(lp844
F0.94199999999999995
asg423
(lp845
(lp846
F1.0
aasg427
S' N'
p847
sbag0
(g10
g2
Ntp848
Rp849
(dp850
g419
S'H'
p851
sg421
(lp852
F1.768
asg423
(lp853
(lp854
F1.0
aasg427
S' N'
p855
sbag0
(g10
g2
Ntp856
Rp857
(dp858
g419
S'S'
p859
sg421
(lp860
F12.275
asg423
(lp861
(lp862
F1.0
aasg427
S' N'
p863
sbag0
(g10
g2
Ntp864
Rp865
(dp866
g419
S'S'
p867
sg421
(lp868
F27.827000000000002
asg423
(lp869
(lp870
F1.0
aasg427
S' N'
p871
sbag0
(g10
g2
Ntp872
Rp873
(dp874
g419
S'S'
p875
sg421
(lp876
F63.085000000000001
asg423
(lp877
(lp878
F1.0
aasg427
S' N'
p879
sbag0
(g10
g2
Ntp880
Rp881
(dp882
g419
S'S'
p883
sg421
(lp884
F143.01300000000001
asg423
(lp885
(lp886
F1.0
aasg427
S' N'
p887
sbag0
(g10
g2
Ntp888
Rp889
(dp890
g419
S'P'
p891
sg421
(lp892
F10.76
asg423
(lp893
(lp894
F1.0
aasg427
S' N'
p895
sbag0
(g10
g2
Ntp896
Rp897
(dp898
g419
S'P'
p899
sg421
(lp900
F27.18
asg423
(lp901
(lp902
F1.0
aasg427
S' N'
p903
sbag0
(g10
g2
Ntp904
Rp905
(dp906
g419
S'P'
p907
sg421
(lp908
F68.656000000000006
asg423
(lp909
(lp910
F1.0
aasg427
S' N'
p911
sbag0
(g10
g2
Ntp912
Rp913
(dp914
g419
S'P'
p915
sg421
(lp916
F173.42500000000001
asg423
(lp917
(lp918
F1.0
aasg427
S' N'
p919
sbag0
(g10
g2
Ntp920
Rp921
(dp922
g419
S'D'
p923
sg421
(lp924
F14.053000000000001
asg423
(lp925
(lp926
F1.0
aasg427
S' N'
p927
sbag0
(g10
g2
Ntp928
Rp929
(dp930
g419
S'D'
p931
sg421
(lp932
F39.081000000000003
asg423
(lp933
(lp934
F1.0
aasg427
S' N'
p935
sbag0
(g10
g2
Ntp936
Rp937
(dp938
g419
S'D'
p939
sg421
(lp940
F108.685
asg423
(lp941
(lp942
F1.0
aasg427
S' N'
p943
sbag0
(g10
g2
Ntp944
Rp945
(dp946
g419
S'F'
p947
sg421
(lp948
F14.356999999999999
asg423
(lp949
(lp950
F1.0
aasg427
S' N'
p951
sbag0
(g10
g2
Ntp952
Rp953
(dp954
g419
S'F'
p955
sg421
(lp956
F52.689999999999998
asg423
(lp957
(lp958
F1.0
aasg427
S' N'
p959
sbag0
(g10
g2
Ntp960
Rp961
(dp962
g419
S'G'
p963
sg421
(lp964
F41.119999999999997
asg423
(lp965
(lp966
F1.0
aasg427
S' N'
p967
sbassb.