ccopy_reg
_reconstructor
p0
(cbasisset
BasisSet
p1
c__builtin__
object
p2
Ntp3
Rp4
(dp5
S'basisDictionary'
p6
(dp7
S'C'
p8
(lp9
g0
(cbasisset
Shell
p10
g2
Ntp11
Rp12
(dp13
S'angularMomentum'
p14
S'S'
p15
sS'exponents'
p16
(lp17
F1113.9867718999999
asS'coefficients'
p18
(lp19
(lp20
F1.0
aasS'atom'
p21
S'C'
p22
sbag0
(g10
g2
Ntp23
Rp24
(dp25
g14
S'S'
p26
sg16
(lp27
F369.16234179999998
asg18
(lp28
(lp29
F1.0
aasg21
S'C'
p30
sbag0
(g10
g2
Ntp31
Rp32
(dp33
g14
S'S'
p34
sg16
(lp35
F121.79275232000001
asg18
(lp36
(lp37
F1.0
aasg21
S'C'
p38
sbag0
(g10
g2
Ntp39
Rp40
(dp41
g14
S'S'
p42
sg16
(lp43
F48.127114540000001
asg18
(lp44
(lp45
F1.0
aasg21
S'C'
p46
sbag0
(g10
g2
Ntp47
Rp48
(dp49
g14
S'S'
p50
sg16
(lp51
F20.365074
asg18
(lp52
(lp53
F1.0
aasg21
S'C'
p54
sbag0
(g10
g2
Ntp55
Rp56
(dp57
g14
S'S'
p58
sg16
(lp59
F8.0883596900000008
asg18
(lp60
(lp61
F1.0
aasg21
S'C'
p62
sbag0
(g10
g2
Ntp63
Rp64
(dp65
g14
S'S'
p66
sg16
(lp67
F2.5068656599999999
asg18
(lp68
(lp69
F1.0
aasg21
S'C'
p70
sbag0
(g10
g2
Ntp71
Rp72
(dp73
g14
S'S'
p74
sg16
(lp75
F1.24385374
asg18
(lp76
(lp77
F1.0
aasg21
S'C'
p78
sbag0
(g10
g2
Ntp79
Rp80
(dp81
g14
S'S'
p82
sg16
(lp83
F0.48449900000000001
asg18
(lp84
(lp85
F1.0
aasg21
S'C'
p86
sbag0
(g10
g2
Ntp87
Rp88
(dp89
g14
S'S'
p90
sg16
(lp91
F0.19185160000000001
asg18
(lp92
(lp93
F1.0
aasg21
S'C'
p94
sbag0
(g10
g2
Ntp95
Rp96
(dp97
g14
S'P'
p98
sg16
(lp99
F102.99176249
asg18
(lp100
(lp101
F1.0
aasg21
S'C'
p102
sbag0
(g10
g2
Ntp103
Rp104
(dp105
g14
S'P'
p106
sg16
(lp107
F28.132594009999998
asg18
(lp108
(lp109
F1.0
aasg21
S'C'
p110
sbag0
(g10
g2
Ntp111
Rp112
(dp113
g14
S'P'
p114
sg16
(lp115
F9.8364318199999996
asg18
(lp116
(lp117
F1.0
aasg21
S'C'
p118
sbag0
(g10
g2
Ntp119
Rp120
(dp121
g14
S'P'
p122
sg16
(lp123
F3.3490544999999998
asg18
(lp124
(lp125
F1.0
aasg21
S'C'
p126
sbag0
(g10
g2
Ntp127
Rp128
(dp129
g14
S'P'
p130
sg16
(lp131
F1.4947618600000001
asg18
(lp132
(lp133
F1.0
aasg21
S'C'
p134
sbag0
(g10
g2
Ntp135
Rp136
(dp137
g14
S'P'
p138
sg16
(lp139
F0.57690109000000001
asg18
(lp140
(lp141
F1.0
aasg21
S'C'
p142
sbag0
(g10
g2
Ntp143
Rp144
(dp145
g14
S'P'
p146
sg16
(lp147
F0.20320062999999999
asg18
(lp148
(lp149
F1.0
aasg21
S'C'
p150
sbag0
(g10
g2
Ntp151
Rp152
(dp153
g14
S'D'
p154
sg16
(lp155
F10.59406836
asg18
(lp156
(lp157
F1.0
aasg21
S'C'
p158
sbag0
(g10
g2
Ntp159
Rp160
(dp161
g14
S'D'
p162
sg16
(lp163
F3.5997195400000002
asg18
(lp164
(lp165
F1.0
aasg21
S'C'
p166
sbag0
(g10
g2
Ntp167
Rp168
(dp169
g14
S'D'
p170
sg16
(lp171
F1.33556911
asg18
(lp172
(lp173
F1.0
aasg21
S'C'
p174
sbag0
(g10
g2
Ntp175
Rp176
(dp177
g14
S'D'
p178
sg16
(lp179
F0.51949765000000003
asg18
(lp180
(lp181
F1.0
aasg21
S'C'
p182
sbag0
(g10
g2
Ntp183
Rp184
(dp185
g14
S'D'
p186
sg16
(lp187
F0.19954125
asg18
(lp188
(lp189
F1.0
aasg21
S'C'
p190
sbag0
(g10
g2
Ntp191
Rp192
(dp193
g14
S'F'
p194
sg16
(lp195
F3.2229800000000002
asg18
(lp196
(lp197
F1.0
aasg21
S'C'
p198
sbag0
(g10
g2
Ntp199
Rp200
(dp201
g14
S'F'
p202
sg16
(lp203
F1.3219799999999999
asg18
(lp204
(lp205
F1.0
aasg21
S'C'
p206
sbag0
(g10
g2
Ntp207
Rp208
(dp209
g14
S'F'
p210
sg16
(lp211
F0.57398000000000005
asg18
(lp212
(lp213
F1.0
aasg21
S'C'
p214
sbag0
(g10
g2
Ntp215
Rp216
(dp217
g14
S'F'
p218
sg16
(lp219
F0.27998000000000001
asg18
(lp220
(lp221
F1.0
aasg21
S'C'
p222
sbag0
(g10
g2
Ntp223
Rp224
(dp225
g14
S'G'
p226
sg16
(lp227
F2.0949800000000001
asg18
(lp228
(lp229
F1.0
aasg21
S'C'
p230
sbag0
(g10
g2
Ntp231
Rp232
(dp233
g14
S'G'
p234
sg16
(lp235
F0.92698000000000003
asg18
(lp236
(lp237
F1.0
aasg21
S'C'
p238
sbag0
(g10
g2
Ntp239
Rp240
(dp241
g14
S'G'
p242
sg16
(lp243
F0.43897999999999998
asg18
(lp244
(lp245
F1.0
aasg21
S'C'
p246
sbag0
(g10
g2
Ntp247
Rp248
(dp249
g14
S'H'
p250
sg16
(lp251
F1.84198
asg18
(lp252
(lp253
F1.0
aasg21
S'C'
p254
sbag0
(g10
g2
Ntp255
Rp256
(dp257
g14
S'H'
p258
sg16
(lp259
F0.76698
asg18
(lp260
(lp261
F1.0
aasg21
S'C'
p262
sbag0
(g10
g2
Ntp263
Rp264
(dp265
g14
S'I'
p266
sg16
(lp267
F1.34798
asg18
(lp268
(lp269
F1.0
aasg21
S'C'
p270
sbasS'B'
p271
(lp272
g0
(g10
g2
Ntp273
Rp274
(dp275
g14
S'S'
p276
sg16
(lp277
F441.88913157000002
asg18
(lp278
(lp279
F1.0
aasg21
S'B'
p280
sbag0
(g10
g2
Ntp281
Rp282
(dp283
g14
S'S'
p284
sg16
(lp285
F92.069629789999993
asg18
(lp286
(lp287
F1.0
aasg21
S'B'
p288
sbag0
(g10
g2
Ntp289
Rp290
(dp291
g14
S'S'
p292
sg16
(lp293
F29.978448520000001
asg18
(lp294
(lp295
F1.0
aasg21
S'B'
p296
sbag0
(g10
g2
Ntp297
Rp298
(dp299
g14
S'S'
p300
sg16
(lp301
F11.42633079
asg18
(lp302
(lp303
F1.0
aasg21
S'B'
p304
sbag0
(g10
g2
Ntp305
Rp306
(dp307
g14
S'S'
p308
sg16
(lp309
F4.3808722400000004
asg18
(lp310
(lp311
F1.0
aasg21
S'B'
p312
sbag0
(g10
g2
Ntp313
Rp314
(dp315
g14
S'S'
p316
sg16
(lp317
F2.0594033500000002
asg18
(lp318
(lp319
F1.0
aasg21
S'B'
p320
sbag0
(g10
g2
Ntp321
Rp322
(dp323
g14
S'S'
p324
sg16
(lp325
F0.90115718
asg18
(lp326
(lp327
F1.0
aasg21
S'B'
p328
sbag0
(g10
g2
Ntp329
Rp330
(dp331
g14
S'S'
p332
sg16
(lp333
F0.52455289000000005
asg18
(lp334
(lp335
F1.0
aasg21
S'B'
p336
sbag0
(g10
g2
Ntp337
Rp338
(dp339
g14
S'S'
p340
sg16
(lp341
F0.24634726000000001
asg18
(lp342
(lp343
F1.0
aasg21
S'B'
p344
sbag0
(g10
g2
Ntp345
Rp346
(dp347
g14
S'S'
p348
sg16
(lp349
F0.12085806
asg18
(lp350
(lp351
F1.0
aasg21
S'B'
p352
sbag0
(g10
g2
Ntp353
Rp354
(dp355
g14
S'P'
p356
sg16
(lp357
F229.95115195
asg18
(lp358
(lp359
F1.0
aasg21
S'B'
p360
sbag0
(g10
g2
Ntp361
Rp362
(dp363
g14
S'P'
p364
sg16
(lp365
F36.381694760000002
asg18
(lp366
(lp367
F1.0
aasg21
S'B'
p368
sbag0
(g10
g2
Ntp369
Rp370
(dp371
g14
S'P'
p372
sg16
(lp373
F12.1197967
asg18
(lp374
(lp375
F1.0
aasg21
S'B'
p376
sbag0
(g10
g2
Ntp377
Rp378
(dp379
g14
S'P'
p380
sg16
(lp381
F3.84411294
asg18
(lp382
(lp383
F1.0
aasg21
S'B'
p384
sbag0
(g10
g2
Ntp385
Rp386
(dp387
g14
S'P'
p388
sg16
(lp389
F1.10027612
asg18
(lp390
(lp391
F1.0
aasg21
S'B'
p392
sbag0
(g10
g2
Ntp393
Rp394
(dp395
g14
S'P'
p396
sg16
(lp397
F0.39733118000000001
asg18
(lp398
(lp399
F1.0
aasg21
S'B'
p400
sbag0
(g10
g2
Ntp401
Rp402
(dp403
g14
S'P'
p404
sg16
(lp405
F0.13514765000000001
asg18
(lp406
(lp407
F1.0
aasg21
S'B'
p408
sbag0
(g10
g2
Ntp409
Rp410
(dp411
g14
S'D'
p412
sg16
(lp413
F9.3643373899999993
asg18
(lp414
(lp415
F1.0
aasg21
S'B'
p416
sbag0
(g10
g2
Ntp417
Rp418
(dp419
g14
S'D'
p420
sg16
(lp421
F3.1035658000000002
asg18
(lp422
(lp423
F1.0
aasg21
S'B'
p424
sbag0
(g10
g2
Ntp425
Rp426
(dp427
g14
S'D'
p428
sg16
(lp429
F1.20068351
asg18
(lp430
(lp431
F1.0
aasg21
S'B'
p432
sbag0
(g10
g2
Ntp433
Rp434
(dp435
g14
S'D'
p436
sg16
(lp437
F0.40829625000000003
asg18
(lp438
(lp439
F1.0
aasg21
S'B'
p440
sbag0
(g10
g2
Ntp441
Rp442
(dp443
g14
S'D'
p444
sg16
(lp445
F0.13188304000000001
asg18
(lp446
(lp447
F1.0
aasg21
S'B'
p448
sbag0
(g10
g2
Ntp449
Rp450
(dp451
g14
S'F'
p452
sg16
(lp453
F2.0694300000000001
asg18
(lp454
(lp455
F1.0
aasg21
S'B'
p456
sbag0
(g10
g2
Ntp457
Rp458
(dp459
g14
S'F'
p460
sg16
(lp461
F0.85543000000000002
asg18
(lp462
(lp463
F1.0
aasg21
S'B'
p464
sbag0
(g10
g2
Ntp465
Rp466
(dp467
g14
S'F'
p468
sg16
(lp469
F0.37542999999999999
asg18
(lp470
(lp471
F1.0
aasg21
S'B'
p472
sbag0
(g10
g2
Ntp473
Rp474
(dp475
g14
S'F'
p476
sg16
(lp477
F0.18443000000000001
asg18
(lp478
(lp479
F1.0
aasg21
S'B'
p480
sbag0
(g10
g2
Ntp481
Rp482
(dp483
g14
S'G'
p484
sg16
(lp485
F1.27443
asg18
(lp486
(lp487
F1.0
aasg21
S'B'
p488
sbag0
(g10
g2
Ntp489
Rp490
(dp491
g14
S'G'
p492
sg16
(lp493
F0.58443000000000001
asg18
(lp494
(lp495
F1.0
aasg21
S'B'
p496
sbag0
(g10
g2
Ntp497
Rp498
(dp499
g14
S'G'
p500
sg16
(lp501
F0.28643000000000002
asg18
(lp502
(lp503
F1.0
aasg21
S'B'
p504
sbag0
(g10
g2
Ntp505
Rp506
(dp507
g14
S'H'
p508
sg16
(lp509
F1.18343
asg18
(lp510
(lp511
F1.0
aasg21
S'B'
p512
sbag0
(g10
g2
Ntp513
Rp514
(dp515
g14
S'H'
p516
sg16
(lp517
F0.52042999999999995
asg18
(lp518
(lp519
F1.0
aasg21
S'B'
p520
sbag0
(g10
g2
Ntp521
Rp522
(dp523
g14
S'I'
p524
sg16
(lp525
F0.89342999999999995
asg18
(lp526
(lp527
F1.0
aasg21
S'B'
p528
sbasS'F'
p529
(lp530
g0
(g10
g2
Ntp531
Rp532
(dp533
g14
S'S'
p534
sg16
(lp535
F1885.0661216000001
asg18
(lp536
(lp537
F1.0
aasg21
S'F'
p538
sbag0
(g10
g2
Ntp539
Rp540
(dp541
g14
S'S'
p542
sg16
(lp543
F623.75582297000005
asg18
(lp544
(lp545
F1.0
aasg21
S'F'
p546
sbag0
(g10
g2
Ntp547
Rp548
(dp549
g14
S'S'
p550
sg16
(lp551
F227.92405029
asg18
(lp552
(lp553
F1.0
aasg21
S'F'
p554
sbag0
(g10
g2
Ntp555
Rp556
(dp557
g14
S'S'
p558
sg16
(lp559
F82.184178770000003
asg18
(lp560
(lp561
F1.0
aasg21
S'F'
p562
sbag0
(g10
g2
Ntp563
Rp564
(dp565
g14
S'S'
p566
sg16
(lp567
F32.628937579999999
asg18
(lp568
(lp569
F1.0
aasg21
S'F'
p570
sbag0
(g10
g2
Ntp571
Rp572
(dp573
g14
S'S'
p574
sg16
(lp575
F12.78327958
asg18
(lp576
(lp577
F1.0
aasg21
S'F'
p578
sbag0
(g10
g2
Ntp579
Rp580
(dp581
g14
S'S'
p582
sg16
(lp583
F5.6589257899999996
asg18
(lp584
(lp585
F1.0
aasg21
S'F'
p586
sbag0
(g10
g2
Ntp587
Rp588
(dp589
g14
S'S'
p590
sg16
(lp591
F2.3208306699999999
asg18
(lp592
(lp593
F1.0
aasg21
S'F'
p594
sbag0
(g10
g2
Ntp595
Rp596
(dp597
g14
S'S'
p598
sg16
(lp599
F1.01915209
asg18
(lp600
(lp601
F1.0
aasg21
S'F'
p602
sbag0
(g10
g2
Ntp603
Rp604
(dp605
g14
S'S'
p606
sg16
(lp607
F0.42196698999999999
asg18
(lp608
(lp609
F1.0
aasg21
S'F'
p610
sbag0
(g10
g2
Ntp611
Rp612
(dp613
g14
S'P'
p614
sg16
(lp615
F153.72069768
asg18
(lp616
(lp617
F1.0
aasg21
S'F'
p618
sbag0
(g10
g2
Ntp619
Rp620
(dp621
g14
S'P'
p622
sg16
(lp623
F45.390450870000002
asg18
(lp624
(lp625
F1.0
aasg21
S'F'
p626
sbag0
(g10
g2
Ntp627
Rp628
(dp629
g14
S'P'
p630
sg16
(lp631
F16.785845770000002
asg18
(lp632
(lp633
F1.0
aasg21
S'F'
p634
sbag0
(g10
g2
Ntp635
Rp636
(dp637
g14
S'P'
p638
sg16
(lp639
F6.7293857800000003
asg18
(lp640
(lp641
F1.0
aasg21
S'F'
p642
sbag0
(g10
g2
Ntp643
Rp644
(dp645
g14
S'P'
p646
sg16
(lp647
F2.6694607000000001
asg18
(lp648
(lp649
F1.0
aasg21
S'F'
p650
sbag0
(g10
g2
Ntp651
Rp652
(dp653
g14
S'P'
p654
sg16
(lp655
F1.1049787099999999
asg18
(lp656
(lp657
F1.0
aasg21
S'F'
p658
sbag0
(g10
g2
Ntp659
Rp660
(dp661
g14
S'P'
p662
sg16
(lp663
F0.45727704000000002
asg18
(lp664
(lp665
F1.0
aasg21
S'F'
p666
sbag0
(g10
g2
Ntp667
Rp668
(dp669
g14
S'D'
p670
sg16
(lp671
F24.869685350000001
asg18
(lp672
(lp673
F1.0
aasg21
S'F'
p674
sbag0
(g10
g2
Ntp675
Rp676
(dp677
g14
S'D'
p678
sg16
(lp679
F7.5554441600000004
asg18
(lp680
(lp681
F1.0
aasg21
S'F'
p682
sbag0
(g10
g2
Ntp683
Rp684
(dp685
g14
S'D'
p686
sg16
(lp687
F2.8268499199999999
asg18
(lp688
(lp689
F1.0
aasg21
S'F'
p690
sbag0
(g10
g2
Ntp691
Rp692
(dp693
g14
S'D'
p694
sg16
(lp695
F1.11233413
asg18
(lp696
(lp697
F1.0
aasg21
S'F'
p698
sbag0
(g10
g2
Ntp699
Rp700
(dp701
g14
S'D'
p702
sg16
(lp703
F0.43877754000000002
asg18
(lp704
(lp705
F1.0
aasg21
S'F'
p706
sbag0
(g10
g2
Ntp707
Rp708
(dp709
g14
S'F'
p710
sg16
(lp711
F7.9549000000000003
asg18
(lp712
(lp713
F1.0
aasg21
S'F'
p714
sbag0
(g10
g2
Ntp715
Rp716
(dp717
g14
S'F'
p718
sg16
(lp719
F3.2269000000000001
asg18
(lp720
(lp721
F1.0
aasg21
S'F'
p722
sbag0
(g10
g2
Ntp723
Rp724
(dp725
g14
S'F'
p726
sg16
(lp727
F1.3798999999999999
asg18
(lp728
(lp729
F1.0
aasg21
S'F'
p730
sbag0
(g10
g2
Ntp731
Rp732
(dp733
g14
S'F'
p734
sg16
(lp735
F0.65790000000000004
asg18
(lp736
(lp737
F1.0
aasg21
S'F'
p738
sbag0
(g10
g2
Ntp739
Rp740
(dp741
g14
S'G'
p742
sg16
(lp743
F5.5929000000000002
asg18
(lp744
(lp745
F1.0
aasg21
S'F'
p746
sbag0
(g10
g2
Ntp747
Rp748
(dp749
g14
S'G'
p750
sg16
(lp751
F2.2728999999999999
asg18
(lp752
(lp753
F1.0
aasg21
S'F'
p754
sbag0
(g10
g2
Ntp755
Rp756
(dp757
g14
S'G'
p758
sg16
(lp759
F0.99490000000000001
asg18
(lp760
(lp761
F1.0
aasg21
S'F'
p762
sbag0
(g10
g2
Ntp763
Rp764
(dp765
g14
S'H'
p766
sg16
(lp767
F4.5328999999999997
asg18
(lp768
(lp769
F1.0
aasg21
S'F'
p770
sbag0
(g10
g2
Ntp771
Rp772
(dp773
g14
S'H'
p774
sg16
(lp775
F1.7079
asg18
(lp776
(lp777
F1.0
aasg21
S'F'
p778
sbag0
(g10
g2
Ntp779
Rp780
(dp781
g14
S'I'
p782
sg16
(lp783
F3.1899000000000002
asg18
(lp784
(lp785
F1.0
aasg21
S'F'
p786
sbasS'H'
p787
(lp788
g0
(g10
g2
Ntp789
Rp790
(dp791
g14
S'S'
p792
sg16
(lp793
F9.5302493300000002
asg18
(lp794
(lp795
F1.0
aasg21
S'H'
p796
sbag0
(g10
g2
Ntp797
Rp798
(dp799
g14
S'S'
p800
sg16
(lp801
F1.9174506200000001
asg18
(lp802
(lp803
F1.0
aasg21
S'H'
p804
sbag0
(g10
g2
Ntp805
Rp806
(dp807
g14
S'S'
p808
sg16
(lp809
F0.68424048999999998
asg18
(lp810
(lp811
F1.0
aasg21
S'H'
p812
sbag0
(g10
g2
Ntp813
Rp814
(dp815
g14
S'S'
p816
sg16
(lp817
F0.28413255999999998
asg18
(lp818
(lp819
F1.0
aasg21
S'H'
p820
sbag0
(g10
g2
Ntp821
Rp822
(dp823
g14
S'P'
p824
sg16
(lp825
F2.9133231999999998
asg18
(lp826
(lp827
F1.0
aasg21
S'H'
p828
sbag0
(g10
g2
Ntp829
Rp830
(dp831
g14
S'P'
p832
sg16
(lp833
F1.26212054
asg18
(lp834
(lp835
F1.0
aasg21
S'H'
p836
sbag0
(g10
g2
Ntp837
Rp838
(dp839
g14
S'P'
p840
sg16
(lp841
F0.50199775999999996
asg18
(lp842
(lp843
F1.0
aasg21
S'H'
p844
sbag0
(g10
g2
Ntp845
Rp846
(dp847
g14
S'D'
p848
sg16
(lp849
F4.2855836399999996
asg18
(lp850
(lp851
F1.0
aasg21
S'H'
p852
sbag0
(g10
g2
Ntp853
Rp854
(dp855
g14
S'D'
p856
sg16
(lp857
F2.1689089199999998
asg18
(lp858
(lp859
F1.0
aasg21
S'H'
p860
sbag0
(g10
g2
Ntp861
Rp862
(dp863
g14
S'D'
p864
sg16
(lp865
F1.0087900999999999
asg18
(lp866
(lp867
F1.0
aasg21
S'H'
p868
sbag0
(g10
g2
Ntp869
Rp870
(dp871
g14
S'D'
p872
sg16
(lp873
F0.31898628000000001
asg18
(lp874
(lp875
F1.0
aasg21
S'H'
p876
sbag0
(g10
g2
Ntp877
Rp878
(dp879
g14
S'F'
p880
sg16
(lp881
F3.3345032300000002
asg18
(lp882
(lp883
F1.0
aasg21
S'H'
p884
sbag0
(g10
g2
Ntp885
Rp886
(dp887
g14
S'F'
p888
sg16
(lp889
F1.5617226099999999
asg18
(lp890
(lp891
F1.0
aasg21
S'H'
p892
sbag0
(g10
g2
Ntp893
Rp894
(dp895
g14
S'F'
p896
sg16
(lp897
F0.59378337000000003
asg18
(lp898
(lp899
F1.0
aasg21
S'H'
p900
sbag0
(g10
g2
Ntp901
Rp902
(dp903
g14
S'G'
p904
sg16
(lp905
F2.6722385599999998
asg18
(lp906
(lp907
F1.0
aasg21
S'H'
p908
sbag0
(g10
g2
Ntp909
Rp910
(dp911
g14
S'G'
p912
sg16
(lp913
F1.1602620400000001
asg18
(lp914
(lp915
F1.0
aasg21
S'H'
p916
sbag0
(g10
g2
Ntp917
Rp918
(dp919
g14
S'H'
p920
sg16
(lp921
F2.6004730899999999
asg18
(lp922
(lp923
F1.0
aasg21
S'H'
p924
sbasS'CL'
p925
(lp926
g0
(g10
g2
Ntp927
Rp928
(dp929
g14
S'S'
p930
sg16
(lp931
F7082.7970581
asg18
(lp932
(lp933
F1.0
aasg21
S'CL'
p934
sbag0
(g10
g2
Ntp935
Rp936
(dp937
g14
S'S'
p938
sg16
(lp939
F2109.3095076
asg18
(lp940
(lp941
F1.0
aasg21
S'CL'
p942
sbag0
(g10
g2
Ntp943
Rp944
(dp945
g14
S'S'
p946
sg16
(lp947
F768.41281873000003
asg18
(lp948
(lp949
F1.0
aasg21
S'CL'
p950
sbag0
(g10
g2
Ntp951
Rp952
(dp953
g14
S'S'
p954
sg16
(lp955
F284.79255416000001
asg18
(lp956
(lp957
F1.0
aasg21
S'CL'
p958
sbag0
(g10
g2
Ntp959
Rp960
(dp961
g14
S'S'
p962
sg16
(lp963
F116.55331731
asg18
(lp964
(lp965
F1.0
aasg21
S'CL'
p966
sbag0
(g10
g2
Ntp967
Rp968
(dp969
g14
S'S'
p970
sg16
(lp971
F46.394820989999999
asg18
(lp972
(lp973
F1.0
aasg21
S'CL'
p974
sbag0
(g10
g2
Ntp975
Rp976
(dp977
g14
S'S'
p978
sg16
(lp979
F21.956303389999999
asg18
(lp980
(lp981
F1.0
aasg21
S'CL'
p982
sbag0
(g10
g2
Ntp983
Rp984
(dp985
g14
S'S'
p986
sg16
(lp987
F9.9930272099999993
asg18
(lp988
(lp989
F1.0
aasg21
S'CL'
p990
sbag0
(g10
g2
Ntp991
Rp992
(dp993
g14
S'S'
p994
sg16
(lp995
F4.7199459600000004
asg18
(lp996
(lp997
F1.0
aasg21
S'CL'
p998
sbag0
(g10
g2
Ntp999
Rp1000
(dp1001
g14
S'S'
p1002
sg16
(lp1003
F2.6573396200000001
asg18
(lp1004
(lp1005
F1.0
aasg21
S'CL'
p1006
sbag0
(g10
g2
Ntp1007
Rp1008
(dp1009
g14
S'S'
p1010
sg16
(lp1011
F1.08134811
asg18
(lp1012
(lp1013
F1.0
aasg21
S'CL'
p1014
sbag0
(g10
g2
Ntp1015
Rp1016
(dp1017
g14
S'S'
p1018
sg16
(lp1019
F0.53154679000000005
asg18
(lp1020
(lp1021
F1.0
aasg21
S'CL'
p1022
sbag0
(g10
g2
Ntp1023
Rp1024
(dp1025
g14
S'S'
p1026
sg16
(lp1027
F0.23367039000000001
asg18
(lp1028
(lp1029
F1.0
aasg21
S'CL'
p1030
sbag0
(g10
g2
Ntp1031
Rp1032
(dp1033
g14
S'P'
p1034
sg16
(lp1035
F973.73528509000005
asg18
(lp1036
(lp1037
F1.0
aasg21
S'CL'
p1038
sbag0
(g10
g2
Ntp1039
Rp1040
(dp1041
g14
S'P'
p1042
sg16
(lp1043
F278.99109347000001
asg18
(lp1044
(lp1045
F1.0
aasg21
S'CL'
p1046
sbag0
(g10
g2
Ntp1047
Rp1048
(dp1049
g14
S'P'
p1050
sg16
(lp1051
F105.88644515999999
asg18
(lp1052
(lp1053
F1.0
aasg21
S'CL'
p1054
sbag0
(g10
g2
Ntp1055
Rp1056
(dp1057
g14
S'P'
p1058
sg16
(lp1059
F45.231846879999999
asg18
(lp1060
(lp1061
F1.0
aasg21
S'CL'
p1062
sbag0
(g10
g2
Ntp1063
Rp1064
(dp1065
g14
S'P'
p1066
sg16
(lp1067
F20.28916615
asg18
(lp1068
(lp1069
F1.0
aasg21
S'CL'
p1070
sbag0
(g10
g2
Ntp1071
Rp1072
(dp1073
g14
S'P'
p1074
sg16
(lp1075
F9.5829383799999999
asg18
(lp1076
(lp1077
F1.0
aasg21
S'CL'
p1078
sbag0
(g10
g2
Ntp1079
Rp1080
(dp1081
g14
S'P'
p1082
sg16
(lp1083
F4.4641678599999999
asg18
(lp1084
(lp1085
F1.0
aasg21
S'CL'
p1086
sbag0
(g10
g2
Ntp1087
Rp1088
(dp1089
g14
S'P'
p1090
sg16
(lp1091
F2.36256121
asg18
(lp1092
(lp1093
F1.0
aasg21
S'CL'
p1094
sbag0
(g10
g2
Ntp1095
Rp1096
(dp1097
g14
S'P'
p1098
sg16
(lp1099
F1.14919642
asg18
(lp1100
(lp1101
F1.0
aasg21
S'CL'
p1102
sbag0
(g10
g2
Ntp1103
Rp1104
(dp1105
g14
S'P'
p1106
sg16
(lp1107
F0.60310216999999999
asg18
(lp1108
(lp1109
F1.0
aasg21
S'CL'
p1110
sbag0
(g10
g2
Ntp1111
Rp1112
(dp1113
g14
S'P'
p1114
sg16
(lp1115
F0.30590910999999998
asg18
(lp1116
(lp1117
F1.0
aasg21
S'CL'
p1118
sbag0
(g10
g2
Ntp1119
Rp1120
(dp1121
g14
S'D'
p1122
sg16
(lp1123
F204.38030062999999
asg18
(lp1124
(lp1125
F1.0
aasg21
S'CL'
p1126
sbag0
(g10
g2
Ntp1127
Rp1128
(dp1129
g14
S'D'
p1130
sg16
(lp1131
F63.69389331
asg18
(lp1132
(lp1133
F1.0
aasg21
S'CL'
p1134
sbag0
(g10
g2
Ntp1135
Rp1136
(dp1137
g14
S'D'
p1138
sg16
(lp1139
F25.726668979999999
asg18
(lp1140
(lp1141
F1.0
aasg21
S'CL'
p1142
sbag0
(g10
g2
Ntp1143
Rp1144
(dp1145
g14
S'D'
p1146
sg16
(lp1147
F11.60246727
asg18
(lp1148
(lp1149
F1.0
aasg21
S'CL'
p1150
sbag0
(g10
g2
Ntp1151
Rp1152
(dp1153
g14
S'D'
p1154
sg16
(lp1155
F5.4574541500000002
asg18
(lp1156
(lp1157
F1.0
aasg21
S'CL'
p1158
sbag0
(g10
g2
Ntp1159
Rp1160
(dp1161
g14
S'D'
p1162
sg16
(lp1163
F2.8838397599999999
asg18
(lp1164
(lp1165
F1.0
aasg21
S'CL'
p1166
sbag0
(g10
g2
Ntp1167
Rp1168
(dp1169
g14
S'D'
p1170
sg16
(lp1171
F1.33940236
asg18
(lp1172
(lp1173
F1.0
aasg21
S'CL'
p1174
sbag0
(g10
g2
Ntp1175
Rp1176
(dp1177
g14
S'D'
p1178
sg16
(lp1179
F0.61649222000000004
asg18
(lp1180
(lp1181
F1.0
aasg21
S'CL'
p1182
sbag0
(g10
g2
Ntp1183
Rp1184
(dp1185
g14
S'D'
p1186
sg16
(lp1187
F0.27470143000000002
asg18
(lp1188
(lp1189
F1.0
aasg21
S'CL'
p1190
sbag0
(g10
g2
Ntp1191
Rp1192
(dp1193
g14
S'F'
p1194
sg16
(lp1195
F0.35926000000000002
asg18
(lp1196
(lp1197
F1.0
aasg21
S'CL'
p1198
sbag0
(g10
g2
Ntp1199
Rp1200
(dp1201
g14
S'F'
p1202
sg16
(lp1203
F0.72726000000000002
asg18
(lp1204
(lp1205
F1.0
aasg21
S'CL'
p1206
sbag0
(g10
g2
Ntp1207
Rp1208
(dp1209
g14
S'F'
p1210
sg16
(lp1211
F1.63826
asg18
(lp1212
(lp1213
F1.0
aasg21
S'CL'
p1214
sbag0
(g10
g2
Ntp1215
Rp1216
(dp1217
g14
S'F'
p1218
sg16
(lp1219
F3.8902600000000001
asg18
(lp1220
(lp1221
F1.0
aasg21
S'CL'
p1222
sbag0
(g10
g2
Ntp1223
Rp1224
(dp1225
g14
S'G'
p1226
sg16
(lp1227
F0.42925999999999997
asg18
(lp1228
(lp1229
F1.0
aasg21
S'CL'
p1230
sbag0
(g10
g2
Ntp1231
Rp1232
(dp1233
g14
S'G'
p1234
sg16
(lp1235
F0.76526000000000005
asg18
(lp1236
(lp1237
F1.0
aasg21
S'CL'
p1238
sbag0
(g10
g2
Ntp1239
Rp1240
(dp1241
g14
S'G'
p1242
sg16
(lp1243
F1.4542600000000001
asg18
(lp1244
(lp1245
F1.0
aasg21
S'CL'
p1246
sbag0
(g10
g2
Ntp1247
Rp1248
(dp1249
g14
S'H'
p1250
sg16
(lp1251
F0.66525999999999996
asg18
(lp1252
(lp1253
F1.0
aasg21
S'CL'
p1254
sbag0
(g10
g2
Ntp1255
Rp1256
(dp1257
g14
S'H'
p1258
sg16
(lp1259
F1.41126
asg18
(lp1260
(lp1261
F1.0
aasg21
S'CL'
p1262
sbag0
(g10
g2
Ntp1263
Rp1264
(dp1265
g14
S'I'
p1266
sg16
(lp1267
F1.1622600000000001
asg18
(lp1268
(lp1269
F1.0
aasg21
S'CL'
p1270
sbasS'NE'
p1271
(lp1272
sS'O'
p1273
(lp1274
g0
(g10
g2
Ntp1275
Rp1276
(dp1277
g14
S'S'
p1278
sg16
(lp1279
F1517.8667505999999
asg18
(lp1280
(lp1281
F1.0
aasg21
S'O'
p1282
sbag0
(g10
g2
Ntp1283
Rp1284
(dp1285
g14
S'S'
p1286
sg16
(lp1287
F489.67952007999997
asg18
(lp1288
(lp1289
F1.0
aasg21
S'O'
p1290
sbag0
(g10
g2
Ntp1291
Rp1292
(dp1293
g14
S'S'
p1294
sg16
(lp1295
F176.72118664999999
asg18
(lp1296
(lp1297
F1.0
aasg21
S'O'
p1298
sbag0
(g10
g2
Ntp1299
Rp1300
(dp1301
g14
S'S'
p1302
sg16
(lp1303
F63.79223314
asg18
(lp1304
(lp1305
F1.0
aasg21
S'O'
p1306
sbag0
(g10
g2
Ntp1307
Rp1308
(dp1309
g14
S'S'
p1310
sg16
(lp1311
F25.366499130000001
asg18
(lp1312
(lp1313
F1.0
aasg21
S'O'
p1314
sbag0
(g10
g2
Ntp1315
Rp1316
(dp1317
g14
S'S'
p1318
sg16
(lp1319
F9.9135491200000008
asg18
(lp1320
(lp1321
F1.0
aasg21
S'O'
p1322
sbag0
(g10
g2
Ntp1323
Rp1324
(dp1325
g14
S'S'
p1326
sg16
(lp1327
F4.4645306600000003
asg18
(lp1328
(lp1329
F1.0
aasg21
S'O'
p1330
sbag0
(g10
g2
Ntp1331
Rp1332
(dp1333
g14
S'S'
p1334
sg16
(lp1335
F1.80177437
asg18
(lp1336
(lp1337
F1.0
aasg21
S'O'
p1338
sbag0
(g10
g2
Ntp1339
Rp1340
(dp1341
g14
S'S'
p1342
sg16
(lp1343
F0.80789710999999997
asg18
(lp1344
(lp1345
F1.0
aasg21
S'O'
p1346
sbag0
(g10
g2
Ntp1347
Rp1348
(dp1349
g14
S'S'
p1350
sg16
(lp1351
F0.33864327
asg18
(lp1352
(lp1353
F1.0
aasg21
S'O'
p1354
sbag0
(g10
g2
Ntp1355
Rp1356
(dp1357
g14
S'P'
p1358
sg16
(lp1359
F120.16030920999999
asg18
(lp1360
(lp1361
F1.0
aasg21
S'O'
p1362
sbag0
(g10
g2
Ntp1363
Rp1364
(dp1365
g14
S'P'
p1366
sg16
(lp1367
F34.409622470000002
asg18
(lp1368
(lp1369
F1.0
aasg21
S'O'
p1370
sbag0
(g10
g2
Ntp1371
Rp1372
(dp1373
g14
S'P'
p1374
sg16
(lp1375
F12.58114861
asg18
(lp1376
(lp1377
F1.0
aasg21
S'O'
p1378
sbag0
(g10
g2
Ntp1379
Rp1380
(dp1381
g14
S'P'
p1382
sg16
(lp1383
F5.0663824200000001
asg18
(lp1384
(lp1385
F1.0
aasg21
S'O'
p1386
sbag0
(g10
g2
Ntp1387
Rp1388
(dp1389
g14
S'P'
p1390
sg16
(lp1391
F2.0346927099999998
asg18
(lp1392
(lp1393
F1.0
aasg21
S'O'
p1394
sbag0
(g10
g2
Ntp1395
Rp1396
(dp1397
g14
S'P'
p1398
sg16
(lp1399
F0.86092966999999998
asg18
(lp1400
(lp1401
F1.0
aasg21
S'O'
p1402
sbag0
(g10
g2
Ntp1403
Rp1404
(dp1405
g14
S'P'
p1406
sg16
(lp1407
F0.36681356999999998
asg18
(lp1408
(lp1409
F1.0
aasg21
S'O'
p1410
sbag0
(g10
g2
Ntp1411
Rp1412
(dp1413
g14
S'D'
p1414
sg16
(lp1415
F19.043062809999999
asg18
(lp1416
(lp1417
F1.0
aasg21
S'O'
p1418
sbag0
(g10
g2
Ntp1419
Rp1420
(dp1421
g14
S'D'
p1422
sg16
(lp1423
F5.8060381100000003
asg18
(lp1424
(lp1425
F1.0
aasg21
S'O'
p1426
sbag0
(g10
g2
Ntp1427
Rp1428
(dp1429
g14
S'D'
p1430
sg16
(lp1431
F2.1891841599999999
asg18
(lp1432
(lp1433
F1.0
aasg21
S'O'
p1434
sbag0
(g10
g2
Ntp1435
Rp1436
(dp1437
g14
S'D'
p1438
sg16
(lp1439
F0.87794614000000004
asg18
(lp1440
(lp1441
F1.0
aasg21
S'O'
p1442
sbag0
(g10
g2
Ntp1443
Rp1444
(dp1445
g14
S'D'
p1446
sg16
(lp1447
F0.35623647000000003
asg18
(lp1448
(lp1449
F1.0
aasg21
S'O'
p1450
sbag0
(g10
g2
Ntp1451
Rp1452
(dp1453
g14
S'F'
p1454
sg16
(lp1455
F6.0347
asg18
(lp1456
(lp1457
F1.0
aasg21
S'O'
p1458
sbag0
(g10
g2
Ntp1459
Rp1460
(dp1461
g14
S'F'
p1462
sg16
(lp1463
F2.4626999999999999
asg18
(lp1464
(lp1465
F1.0
aasg21
S'O'
p1466
sbag0
(g10
g2
Ntp1467
Rp1468
(dp1469
g14
S'F'
p1470
sg16
(lp1471
F1.0607
asg18
(lp1472
(lp1473
F1.0
aasg21
S'O'
p1474
sbag0
(g10
g2
Ntp1475
Rp1476
(dp1477
g14
S'F'
p1478
sg16
(lp1479
F0.51070000000000004
asg18
(lp1480
(lp1481
F1.0
aasg21
S'O'
p1482
sbag0
(g10
g2
Ntp1483
Rp1484
(dp1485
g14
S'G'
p1486
sg16
(lp1487
F4.1717000000000004
asg18
(lp1488
(lp1489
F1.0
aasg21
S'O'
p1490
sbag0
(g10
g2
Ntp1491
Rp1492
(dp1493
g14
S'G'
p1494
sg16
(lp1495
F1.7097
asg18
(lp1496
(lp1497
F1.0
aasg21
S'O'
p1498
sbag0
(g10
g2
Ntp1499
Rp1500
(dp1501
g14
S'G'
p1502
sg16
(lp1503
F0.75670000000000004
asg18
(lp1504
(lp1505
F1.0
aasg21
S'O'
p1506
sbag0
(g10
g2
Ntp1507
Rp1508
(dp1509
g14
S'H'
p1510
sg16
(lp1511
F3.5057
asg18
(lp1512
(lp1513
F1.0
aasg21
S'O'
p1514
sbag0
(g10
g2
Ntp1515
Rp1516
(dp1517
g14
S'H'
p1518
sg16
(lp1519
F1.3447
asg18
(lp1520
(lp1521
F1.0
aasg21
S'O'
p1522
sbag0
(g10
g2
Ntp1523
Rp1524
(dp1525
g14
S'I'
p1526
sg16
(lp1527
F2.4746999999999999
asg18
(lp1528
(lp1529
F1.0
aasg21
S'O'
p1530
sbasS'N'
p1531
(lp1532
g0
(g10
g2
Ntp1533
Rp1534
(dp1535
g14
S'S'
p1536
sg16
(lp1537
F1102.8622453
asg18
(lp1538
(lp1539
F1.0
aasg21
S'N'
p1540
sbag0
(g10
g2
Ntp1541
Rp1542
(dp1543
g14
S'S'
p1544
sg16
(lp1545
F370.98041153000003
asg18
(lp1546
(lp1547
F1.0
aasg21
S'N'
p1548
sbag0
(g10
g2
Ntp1549
Rp1550
(dp1551
g14
S'S'
p1552
sg16
(lp1553
F136.73555938000001
asg18
(lp1554
(lp1555
F1.0
aasg21
S'N'
p1556
sbag0
(g10
g2
Ntp1557
Rp1558
(dp1559
g14
S'S'
p1560
sg16
(lp1561
F50.755871919999997
asg18
(lp1562
(lp1563
F1.0
aasg21
S'N'
p1564
sbag0
(g10
g2
Ntp1565
Rp1566
(dp1567
g14
S'S'
p1568
sg16
(lp1569
F20.535656100000001
asg18
(lp1570
(lp1571
F1.0
aasg21
S'N'
p1572
sbag0
(g10
g2
Ntp1573
Rp1574
(dp1575
g14
S'S'
p1576
sg16
(lp1577
F7.8318737199999999
asg18
(lp1578
(lp1579
F1.0
aasg21
S'N'
p1580
sbag0
(g10
g2
Ntp1581
Rp1582
(dp1583
g14
S'S'
p1584
sg16
(lp1585
F3.47840639
asg18
(lp1586
(lp1587
F1.0
aasg21
S'N'
p1588
sbag0
(g10
g2
Ntp1589
Rp1590
(dp1591
g14
S'S'
p1592
sg16
(lp1593
F1.4552856599999999
asg18
(lp1594
(lp1595
F1.0
aasg21
S'N'
p1596
sbag0
(g10
g2
Ntp1597
Rp1598
(dp1599
g14
S'S'
p1600
sg16
(lp1601
F0.63068988999999998
asg18
(lp1602
(lp1603
F1.0
aasg21
S'N'
p1604
sbag0
(g10
g2
Ntp1605
Rp1606
(dp1607
g14
S'S'
p1608
sg16
(lp1609
F0.27276595999999997
asg18
(lp1610
(lp1611
F1.0
aasg21
S'N'
p1612
sbag0
(g10
g2
Ntp1613
Rp1614
(dp1615
g14
S'P'
p1616
sg16
(lp1617
F93.540954069999998
asg18
(lp1618
(lp1619
F1.0
aasg21
S'N'
p1620
sbag0
(g10
g2
Ntp1621
Rp1622
(dp1623
g14
S'P'
p1624
sg16
(lp1625
F29.52401953
asg18
(lp1626
(lp1627
F1.0
aasg21
S'N'
p1628
sbag0
(g10
g2
Ntp1629
Rp1630
(dp1631
g14
S'P'
p1632
sg16
(lp1633
F10.917502989999999
asg18
(lp1634
(lp1635
F1.0
aasg21
S'N'
p1636
sbag0
(g10
g2
Ntp1637
Rp1638
(dp1639
g14
S'P'
p1640
sg16
(lp1641
F4.3449289000000002
asg18
(lp1642
(lp1643
F1.0
aasg21
S'N'
p1644
sbag0
(g10
g2
Ntp1645
Rp1646
(dp1647
g14
S'P'
p1648
sg16
(lp1649
F1.8216912599999999
asg18
(lp1650
(lp1651
F1.0
aasg21
S'N'
p1652
sbag0
(g10
g2
Ntp1653
Rp1654
(dp1655
g14
S'P'
p1656
sg16
(lp1657
F0.75792424000000003
asg18
(lp1658
(lp1659
F1.0
aasg21
S'N'
p1660
sbag0
(g10
g2
Ntp1661
Rp1662
(dp1663
g14
S'P'
p1664
sg16
(lp1665
F0.28241469000000002
asg18
(lp1666
(lp1667
F1.0
aasg21
S'N'
p1668
sbag0
(g10
g2
Ntp1669
Rp1670
(dp1671
g14
S'D'
p1672
sg16
(lp1673
F16.419378930000001
asg18
(lp1674
(lp1675
F1.0
aasg21
S'N'
p1676
sbag0
(g10
g2
Ntp1677
Rp1678
(dp1679
g14
S'D'
p1680
sg16
(lp1681
F5.0104049399999999
asg18
(lp1682
(lp1683
F1.0
aasg21
S'N'
p1684
sbag0
(g10
g2
Ntp1685
Rp1686
(dp1687
g14
S'D'
p1688
sg16
(lp1689
F1.97939719
asg18
(lp1690
(lp1691
F1.0
aasg21
S'N'
p1692
sbag0
(g10
g2
Ntp1693
Rp1694
(dp1695
g14
S'D'
p1696
sg16
(lp1697
F0.78495771999999997
asg18
(lp1698
(lp1699
F1.0
aasg21
S'N'
p1700
sbag0
(g10
g2
Ntp1701
Rp1702
(dp1703
g14
S'D'
p1704
sg16
(lp1705
F0.28954066000000001
asg18
(lp1706
(lp1707
F1.0
aasg21
S'N'
p1708
sbag0
(g10
g2
Ntp1709
Rp1710
(dp1711
g14
S'F'
p1712
sg16
(lp1713
F4.7702
asg18
(lp1714
(lp1715
F1.0
aasg21
S'N'
p1716
sbag0
(g10
g2
Ntp1717
Rp1718
(dp1719
g14
S'F'
p1720
sg16
(lp1721
F1.9361999999999999
asg18
(lp1722
(lp1723
F1.0
aasg21
S'N'
p1724
sbag0
(g10
g2
Ntp1725
Rp1726
(dp1727
g14
S'F'
p1728
sg16
(lp1729
F0.83020000000000005
asg18
(lp1730
(lp1731
F1.0
aasg21
S'N'
p1732
sbag0
(g10
g2
Ntp1733
Rp1734
(dp1735
g14
S'F'
p1736
sg16
(lp1737
F0.3992
asg18
(lp1738
(lp1739
F1.0
aasg21
S'N'
p1740
sbag0
(g10
g2
Ntp1741
Rp1742
(dp1743
g14
S'G'
p1744
sg16
(lp1745
F3.0651999999999999
asg18
(lp1746
(lp1747
F1.0
aasg21
S'N'
p1748
sbag0
(g10
g2
Ntp1749
Rp1750
(dp1751
g14
S'G'
p1752
sg16
(lp1753
F1.3271999999999999
asg18
(lp1754
(lp1755
F1.0
aasg21
S'N'
p1756
sbag0
(g10
g2
Ntp1757
Rp1758
(dp1759
g14
S'G'
p1760
sg16
(lp1761
F0.61619999999999997
asg18
(lp1762
(lp1763
F1.0
aasg21
S'N'
p1764
sbag0
(g10
g2
Ntp1765
Rp1766
(dp1767
g14
S'H'
p1768
sg16
(lp1769
F2.6341999999999999
asg18
(lp1770
(lp1771
F1.0
aasg21
S'N'
p1772
sbag0
(g10
g2
Ntp1773
Rp1774
(dp1775
g14
S'H'
p1776
sg16
(lp1777
F1.0651999999999999
asg18
(lp1778
(lp1779
F1.0
aasg21
S'N'
p1780
sbag0
(g10
g2
Ntp1781
Rp1782
(dp1783
g14
S'I'
p1784
sg16
(lp1785
F1.8912
asg18
(lp1786
(lp1787
F1.0
aasg21
S'N'
p1788
sbasS'P'
p1789
(lp1790
g0
(g10
g2
Ntp1791
Rp1792
(dp1793
g14
S'S'
p1794
sg16
(lp1795
F5107.3657112999999
asg18
(lp1796
(lp1797
F1.0
aasg21
S'P'
p1798
sbag0
(g10
g2
Ntp1799
Rp1800
(dp1801
g14
S'S'
p1802
sg16
(lp1803
F1086.7632676000001
asg18
(lp1804
(lp1805
F1.0
aasg21
S'P'
p1806
sbag0
(g10
g2
Ntp1807
Rp1808
(dp1809
g14
S'S'
p1810
sg16
(lp1811
F350.63674042999997
asg18
(lp1812
(lp1813
F1.0
aasg21
S'P'
p1814
sbag0
(g10
g2
Ntp1815
Rp1816
(dp1817
g14
S'S'
p1818
sg16
(lp1819
F136.65708749999999
asg18
(lp1820
(lp1821
F1.0
aasg21
S'P'
p1822
sbag0
(g10
g2
Ntp1823
Rp1824
(dp1825
g14
S'S'
p1826
sg16
(lp1827
F58.99220854
asg18
(lp1828
(lp1829
F1.0
aasg21
S'P'
p1830
sbag0
(g10
g2
Ntp1831
Rp1832
(dp1833
g14
S'S'
p1834
sg16
(lp1835
F25.652124180000001
asg18
(lp1836
(lp1837
F1.0
aasg21
S'P'
p1838
sbag0
(g10
g2
Ntp1839
Rp1840
(dp1841
g14
S'S'
p1842
sg16
(lp1843
F9.8584341799999997
asg18
(lp1844
(lp1845
F1.0
aasg21
S'P'
p1846
sbag0
(g10
g2
Ntp1847
Rp1848
(dp1849
g14
S'S'
p1850
sg16
(lp1851
F4.6827641199999999
asg18
(lp1852
(lp1853
F1.0
aasg21
S'P'
p1854
sbag0
(g10
g2
Ntp1855
Rp1856
(dp1857
g14
S'S'
p1858
sg16
(lp1859
F1.9275606999999999
asg18
(lp1860
(lp1861
F1.0
aasg21
S'P'
p1862
sbag0
(g10
g2
Ntp1863
Rp1864
(dp1865
g14
S'S'
p1866
sg16
(lp1867
F1.0059954099999999
asg18
(lp1868
(lp1869
F1.0
aasg21
S'P'
p1870
sbag0
(g10
g2
Ntp1871
Rp1872
(dp1873
g14
S'S'
p1874
sg16
(lp1875
F0.58812472999999998
asg18
(lp1876
(lp1877
F1.0
aasg21
S'P'
p1878
sbag0
(g10
g2
Ntp1879
Rp1880
(dp1881
g14
S'S'
p1882
sg16
(lp1883
F0.34131983999999999
asg18
(lp1884
(lp1885
F1.0
aasg21
S'P'
p1886
sbag0
(g10
g2
Ntp1887
Rp1888
(dp1889
g14
S'S'
p1890
sg16
(lp1891
F0.18002999
asg18
(lp1892
(lp1893
F1.0
aasg21
S'P'
p1894
sbag0
(g10
g2
Ntp1895
Rp1896
(dp1897
g14
S'P'
p1898
sg16
(lp1899
F575.56255465000004
asg18
(lp1900
(lp1901
F1.0
aasg21
S'P'
p1902
sbag0
(g10
g2
Ntp1903
Rp1904
(dp1905
g14
S'P'
p1906
sg16
(lp1907
F162.6403613
asg18
(lp1908
(lp1909
F1.0
aasg21
S'P'
p1910
sbag0
(g10
g2
Ntp1911
Rp1912
(dp1913
g14
S'P'
p1914
sg16
(lp1915
F62.433891600000003
asg18
(lp1916
(lp1917
F1.0
aasg21
S'P'
p1918
sbag0
(g10
g2
Ntp1919
Rp1920
(dp1921
g14
S'P'
p1922
sg16
(lp1923
F26.387393490000001
asg18
(lp1924
(lp1925
F1.0
aasg21
S'P'
p1926
sbag0
(g10
g2
Ntp1927
Rp1928
(dp1929
g14
S'P'
p1930
sg16
(lp1931
F13.077885119999999
asg18
(lp1932
(lp1933
F1.0
aasg21
S'P'
p1934
sbag0
(g10
g2
Ntp1935
Rp1936
(dp1937
g14
S'P'
p1938
sg16
(lp1939
F6.2324334300000004
asg18
(lp1940
(lp1941
F1.0
aasg21
S'P'
p1942
sbag0
(g10
g2
Ntp1943
Rp1944
(dp1945
g14
S'P'
p1946
sg16
(lp1947
F2.6964172
asg18
(lp1948
(lp1949
F1.0
aasg21
S'P'
p1950
sbag0
(g10
g2
Ntp1951
Rp1952
(dp1953
g14
S'P'
p1954
sg16
(lp1955
F1.59422189
asg18
(lp1956
(lp1957
F1.0
aasg21
S'P'
p1958
sbag0
(g10
g2
Ntp1959
Rp1960
(dp1961
g14
S'P'
p1962
sg16
(lp1963
F0.88999472999999996
asg18
(lp1964
(lp1965
F1.0
aasg21
S'P'
p1966
sbag0
(g10
g2
Ntp1967
Rp1968
(dp1969
g14
S'P'
p1970
sg16
(lp1971
F0.48955079000000001
asg18
(lp1972
(lp1973
F1.0
aasg21
S'P'
p1974
sbag0
(g10
g2
Ntp1975
Rp1976
(dp1977
g14
S'P'
p1978
sg16
(lp1979
F0.23083290000000001
asg18
(lp1980
(lp1981
F1.0
aasg21
S'P'
p1982
sbag0
(g10
g2
Ntp1983
Rp1984
(dp1985
g14
S'D'
p1986
sg16
(lp1987
F202.19451071
asg18
(lp1988
(lp1989
F1.0
aasg21
S'P'
p1990
sbag0
(g10
g2
Ntp1991
Rp1992
(dp1993
g14
S'D'
p1994
sg16
(lp1995
F60.141584369999997
asg18
(lp1996
(lp1997
F1.0
aasg21
S'P'
p1998
sbag0
(g10
g2
Ntp1999
Rp2000
(dp2001
g14
S'D'
p2002
sg16
(lp2003
F24.116762869999999
asg18
(lp2004
(lp2005
F1.0
aasg21
S'P'
p2006
sbag0
(g10
g2
Ntp2007
Rp2008
(dp2009
g14
S'D'
p2010
sg16
(lp2011
F11.02958626
asg18
(lp2012
(lp2013
F1.0
aasg21
S'P'
p2014
sbag0
(g10
g2
Ntp2015
Rp2016
(dp2017
g14
S'D'
p2018
sg16
(lp2019
F5.3635229000000004
asg18
(lp2020
(lp2021
F1.0
aasg21
S'P'
p2022
sbag0
(g10
g2
Ntp2023
Rp2024
(dp2025
g14
S'D'
p2026
sg16
(lp2027
F2.6589552200000002
asg18
(lp2028
(lp2029
F1.0
aasg21
S'P'
p2030
sbag0
(g10
g2
Ntp2031
Rp2032
(dp2033
g14
S'D'
p2034
sg16
(lp2035
F1.1768422300000001
asg18
(lp2036
(lp2037
F1.0
aasg21
S'P'
p2038
sbag0
(g10
g2
Ntp2039
Rp2040
(dp2041
g14
S'D'
p2042
sg16
(lp2043
F0.49537300000000001
asg18
(lp2044
(lp2045
F1.0
aasg21
S'P'
p2046
sbag0
(g10
g2
Ntp2047
Rp2048
(dp2049
g14
S'D'
p2050
sg16
(lp2051
F0.21042978000000001
asg18
(lp2052
(lp2053
F1.0
aasg21
S'P'
p2054
sbag0
(g10
g2
Ntp2055
Rp2056
(dp2057
g14
S'F'
p2058
sg16
(lp2059
F0.242925
asg18
(lp2060
(lp2061
F1.0
aasg21
S'P'
p2062
sbag0
(g10
g2
Ntp2063
Rp2064
(dp2065
g14
S'F'
p2066
sg16
(lp2067
F0.494925
asg18
(lp2068
(lp2069
F1.0
aasg21
S'P'
p2070
sbag0
(g10
g2
Ntp2071
Rp2072
(dp2073
g14
S'F'
p2074
sg16
(lp2075
F1.130925
asg18
(lp2076
(lp2077
F1.0
aasg21
S'P'
p2078
sbag0
(g10
g2
Ntp2079
Rp2080
(dp2081
g14
S'F'
p2082
sg16
(lp2083
F2.7329249999999998
asg18
(lp2084
(lp2085
F1.0
aasg21
S'P'
p2086
sbag0
(g10
g2
Ntp2087
Rp2088
(dp2089
g14
S'G'
p2090
sg16
(lp2091
F0.29592499999999999
asg18
(lp2092
(lp2093
F1.0
aasg21
S'P'
p2094
sbag0
(g10
g2
Ntp2095
Rp2096
(dp2097
g14
S'G'
p2098
sg16
(lp2099
F0.52692499999999998
asg18
(lp2100
(lp2101
F1.0
aasg21
S'P'
p2102
sbag0
(g10
g2
Ntp2103
Rp2104
(dp2105
g14
S'G'
p2106
sg16
(lp2107
F0.99992499999999995
asg18
(lp2108
(lp2109
F1.0
aasg21
S'P'
p2110
sbag0
(g10
g2
Ntp2111
Rp2112
(dp2113
g14
S'H'
p2114
sg16
(lp2115
F0.488925
asg18
(lp2116
(lp2117
F1.0
aasg21
S'P'
p2118
sbag0
(g10
g2
Ntp2119
Rp2120
(dp2121
g14
S'H'
p2122
sg16
(lp2123
F0.97992500000000005
asg18
(lp2124
(lp2125
F1.0
aasg21
S'P'
p2126
sbag0
(g10
g2
Ntp2127
Rp2128
(dp2129
g14
S'I'
p2130
sg16
(lp2131
F0.82192500000000002
asg18
(lp2132
(lp2133
F1.0
aasg21
S'P'
p2134
sbasS'S'
p2135
(lp2136
g0
(g10
g2
Ntp2137
Rp2138
(dp2139
g14
S'S'
p2140
sg16
(lp2141
F6402.4580815999998
asg18
(lp2142
(lp2143
F1.0
aasg21
S'S'
p2144
sbag0
(g10
g2
Ntp2145
Rp2146
(dp2147
g14
S'S'
p2148
sg16
(lp2149
F1704.9249408000001
asg18
(lp2150
(lp2151
F1.0
aasg21
S'S'
p2152
sbag0
(g10
g2
Ntp2153
Rp2154
(dp2155
g14
S'S'
p2156
sg16
(lp2157
F598.09038903999999
asg18
(lp2158
(lp2159
F1.0
aasg21
S'S'
p2160
sbag0
(g10
g2
Ntp2161
Rp2162
(dp2163
g14
S'S'
p2164
sg16
(lp2165
F225.90920363999999
asg18
(lp2166
(lp2167
F1.0
aasg21
S'S'
p2168
sbag0
(g10
g2
Ntp2169
Rp2170
(dp2171
g14
S'S'
p2172
sg16
(lp2173
F94.426261909999994
asg18
(lp2174
(lp2175
F1.0
aasg21
S'S'
p2176
sbag0
(g10
g2
Ntp2177
Rp2178
(dp2179
g14
S'S'
p2180
sg16
(lp2181
F37.222420839999998
asg18
(lp2182
(lp2183
F1.0
aasg21
S'S'
p2184
sbag0
(g10
g2
Ntp2185
Rp2186
(dp2187
g14
S'S'
p2188
sg16
(lp2189
F18.25910653
asg18
(lp2190
(lp2191
F1.0
aasg21
S'S'
p2192
sbag0
(g10
g2
Ntp2193
Rp2194
(dp2195
g14
S'S'
p2196
sg16
(lp2197
F8.7937857299999997
asg18
(lp2198
(lp2199
F1.0
aasg21
S'S'
p2200
sbag0
(g10
g2
Ntp2201
Rp2202
(dp2203
g14
S'S'
p2204
sg16
(lp2205
F4.4619424700000003
asg18
(lp2206
(lp2207
F1.0
aasg21
S'S'
p2208
sbag0
(g10
g2
Ntp2209
Rp2210
(dp2211
g14
S'S'
p2212
sg16
(lp2213
F2.27359877
asg18
(lp2214
(lp2215
F1.0
aasg21
S'S'
p2216
sbag0
(g10
g2
Ntp2217
Rp2218
(dp2219
g14
S'S'
p2220
sg16
(lp2221
F0.78075395000000003
asg18
(lp2222
(lp2223
F1.0
aasg21
S'S'
p2224
sbag0
(g10
g2
Ntp2225
Rp2226
(dp2227
g14
S'S'
p2228
sg16
(lp2229
F0.48191154000000003
asg18
(lp2230
(lp2231
F1.0
aasg21
S'S'
p2232
sbag0
(g10
g2
Ntp2233
Rp2234
(dp2235
g14
S'S'
p2236
sg16
(lp2237
F0.21573555
asg18
(lp2238
(lp2239
F1.0
aasg21
S'S'
p2240
sbag0
(g10
g2
Ntp2241
Rp2242
(dp2243
g14
S'P'
p2244
sg16
(lp2245
F796.16481618
asg18
(lp2246
(lp2247
F1.0
aasg21
S'S'
p2248
sbag0
(g10
g2
Ntp2249
Rp2250
(dp2251
g14
S'P'
p2252
sg16
(lp2253
F226.17928266000001
asg18
(lp2254
(lp2255
F1.0
aasg21
S'S'
p2256
sbag0
(g10
g2
Ntp2257
Rp2258
(dp2259
g14
S'P'
p2260
sg16
(lp2261
F85.598645759999997
asg18
(lp2262
(lp2263
F1.0
aasg21
S'S'
p2264
sbag0
(g10
g2
Ntp2265
Rp2266
(dp2267
g14
S'P'
p2268
sg16
(lp2269
F36.26897838
asg18
(lp2270
(lp2271
F1.0
aasg21
S'S'
p2272
sbag0
(g10
g2
Ntp2273
Rp2274
(dp2275
g14
S'P'
p2276
sg16
(lp2277
F16.325206999999999
asg18
(lp2278
(lp2279
F1.0
aasg21
S'S'
p2280
sbag0
(g10
g2
Ntp2281
Rp2282
(dp2283
g14
S'P'
p2284
sg16
(lp2285
F7.6145421600000001
asg18
(lp2286
(lp2287
F1.0
aasg21
S'S'
p2288
sbag0
(g10
g2
Ntp2289
Rp2290
(dp2291
g14
S'P'
p2292
sg16
(lp2293
F3.338813
asg18
(lp2294
(lp2295
F1.0
aasg21
S'S'
p2296
sbag0
(g10
g2
Ntp2297
Rp2298
(dp2299
g14
S'P'
p2300
sg16
(lp2301
F1.86652215
asg18
(lp2302
(lp2303
F1.0
aasg21
S'S'
p2304
sbag0
(g10
g2
Ntp2305
Rp2306
(dp2307
g14
S'P'
p2308
sg16
(lp2309
F0.94025159999999997
asg18
(lp2310
(lp2311
F1.0
aasg21
S'S'
p2312
sbag0
(g10
g2
Ntp2313
Rp2314
(dp2315
g14
S'P'
p2316
sg16
(lp2317
F0.51521256000000004
asg18
(lp2318
(lp2319
F1.0
aasg21
S'S'
p2320
sbag0
(g10
g2
Ntp2321
Rp2322
(dp2323
g14
S'P'
p2324
sg16
(lp2325
F0.26318380000000002
asg18
(lp2326
(lp2327
F1.0
aasg21
S'S'
p2328
sbag0
(g10
g2
Ntp2329
Rp2330
(dp2331
g14
S'D'
p2332
sg16
(lp2333
F190.55658672000001
asg18
(lp2334
(lp2335
F1.0
aasg21
S'S'
p2336
sbag0
(g10
g2
Ntp2337
Rp2338
(dp2339
g14
S'D'
p2340
sg16
(lp2341
F60.346801429999999
asg18
(lp2342
(lp2343
F1.0
aasg21
S'S'
p2344
sbag0
(g10
g2
Ntp2345
Rp2346
(dp2347
g14
S'D'
p2348
sg16
(lp2349
F25.141967059999999
asg18
(lp2350
(lp2351
F1.0
aasg21
S'S'
p2352
sbag0
(g10
g2
Ntp2353
Rp2354
(dp2355
g14
S'D'
p2356
sg16
(lp2357
F12.1467682
asg18
(lp2358
(lp2359
F1.0
aasg21
S'S'
p2360
sbag0
(g10
g2
Ntp2361
Rp2362
(dp2363
g14
S'D'
p2364
sg16
(lp2365
F6.2993488099999997
asg18
(lp2366
(lp2367
F1.0
aasg21
S'S'
p2368
sbag0
(g10
g2
Ntp2369
Rp2370
(dp2371
g14
S'D'
p2372
sg16
(lp2373
F3.0706106700000002
asg18
(lp2374
(lp2375
F1.0
aasg21
S'S'
p2376
sbag0
(g10
g2
Ntp2377
Rp2378
(dp2379
g14
S'D'
p2380
sg16
(lp2381
F1.2911977800000001
asg18
(lp2382
(lp2383
F1.0
aasg21
S'S'
p2384
sbag0
(g10
g2
Ntp2385
Rp2386
(dp2387
g14
S'D'
p2388
sg16
(lp2389
F0.56678603000000005
asg18
(lp2390
(lp2391
F1.0
aasg21
S'S'
p2392
sbag0
(g10
g2
Ntp2393
Rp2394
(dp2395
g14
S'D'
p2396
sg16
(lp2397
F0.24192419000000001
asg18
(lp2398
(lp2399
F1.0
aasg21
S'S'
p2400
sbag0
(g10
g2
Ntp2401
Rp2402
(dp2403
g14
S'F'
p2404
sg16
(lp2405
F0.29650500000000002
asg18
(lp2406
(lp2407
F1.0
aasg21
S'S'
p2408
sbag0
(g10
g2
Ntp2409
Rp2410
(dp2411
g14
S'F'
p2412
sg16
(lp2413
F0.60350499999999996
asg18
(lp2414
(lp2415
F1.0
aasg21
S'S'
p2416
sbag0
(g10
g2
Ntp2417
Rp2418
(dp2419
g14
S'F'
p2420
sg16
(lp2421
F1.3725050000000001
asg18
(lp2422
(lp2423
F1.0
aasg21
S'S'
p2424
sbag0
(g10
g2
Ntp2425
Rp2426
(dp2427
g14
S'F'
p2428
sg16
(lp2429
F3.294505
asg18
(lp2430
(lp2431
F1.0
aasg21
S'S'
p2432
sbag0
(g10
g2
Ntp2433
Rp2434
(dp2435
g14
S'G'
p2436
sg16
(lp2437
F0.34650500000000001
asg18
(lp2438
(lp2439
F1.0
aasg21
S'S'
p2440
sbag0
(g10
g2
Ntp2441
Rp2442
(dp2443
g14
S'G'
p2444
sg16
(lp2445
F0.62050499999999997
asg18
(lp2446
(lp2447
F1.0
aasg21
S'S'
p2448
sbag0
(g10
g2
Ntp2449
Rp2450
(dp2451
g14
S'G'
p2452
sg16
(lp2453
F1.187505
asg18
(lp2454
(lp2455
F1.0
aasg21
S'S'
p2456
sbag0
(g10
g2
Ntp2457
Rp2458
(dp2459
g14
S'H'
p2460
sg16
(lp2461
F0.55450500000000003
asg18
(lp2462
(lp2463
F1.0
aasg21
S'S'
p2464
sbag0
(g10
g2
Ntp2465
Rp2466
(dp2467
g14
S'H'
p2468
sg16
(lp2469
F1.1625049999999999
asg18
(lp2470
(lp2471
F1.0
aasg21
S'S'
p2472
sbag0
(g10
g2
Ntp2473
Rp2474
(dp2475
g14
S'I'
p2476
sg16
(lp2477
F0.96350499999999994
asg18
(lp2478
(lp2479
F1.0
aasg21
S'S'
p2480
sbag0
(g10
g2
Ntp2481
Rp2482
(dp2483
g14
S'S'
p2484
sg16
(lp2485
F29056.449629999999
asg18
(lp2486
(lp2487
F1.0
aasg21
S'S'
p2488
sbag0
(g10
g2
Ntp2489
Rp2490
(dp2491
g14
S'S'
p2492
sg16
(lp2493
F7789.3929019999996
asg18
(lp2494
(lp2495
F1.0
aasg21
S'S'
p2496
sbag0
(g10
g2
Ntp2497
Rp2498
(dp2499
g14
S'S'
p2500
sg16
(lp2501
F3115.0226965000002
asg18
(lp2502
(lp2503
F1.0
aasg21
S'S'
p2504
sbag0
(g10
g2
Ntp2505
Rp2506
(dp2507
g14
S'S'
p2508
sg16
(lp2509
F1219.4815189999999
asg18
(lp2510
(lp2511
F1.0
aasg21
S'S'
p2512
sbag0
(g10
g2
Ntp2513
Rp2514
(dp2515
g14
S'S'
p2516
sg16
(lp2517
F499.45157938
asg18
(lp2518
(lp2519
F1.0
aasg21
S'S'
p2520
sbag0
(g10
g2
Ntp2521
Rp2522
(dp2523
g14
S'S'
p2524
sg16
(lp2525
F198.66199714000001
asg18
(lp2526
(lp2527
F1.0
aasg21
S'S'
p2528
sbag0
(g10
g2
Ntp2529
Rp2530
(dp2531
g14
S'S'
p2532
sg16
(lp2533
F91.470410450000003
asg18
(lp2534
(lp2535
F1.0
aasg21
S'S'
p2536
sbag0
(g10
g2
Ntp2537
Rp2538
(dp2539
g14
S'S'
p2540
sg16
(lp2541
F45.410963459999998
asg18
(lp2542
(lp2543
F1.0
aasg21
S'S'
p2544
sbag0
(g10
g2
Ntp2545
Rp2546
(dp2547
g14
S'S'
p2548
sg16
(lp2549
F21.655233890000002
asg18
(lp2550
(lp2551
F1.0
aasg21
S'S'
p2552
sbag0
(g10
g2
Ntp2553
Rp2554
(dp2555
g14
S'S'
p2556
sg16
(lp2557
F12.268480569999999
asg18
(lp2558
(lp2559
F1.0
aasg21
S'S'
p2560
sbag0
(g10
g2
Ntp2561
Rp2562
(dp2563
g14
S'S'
p2564
sg16
(lp2565
F5.3458507600000003
asg18
(lp2566
(lp2567
F1.0
aasg21
S'S'
p2568
sbag0
(g10
g2
Ntp2569
Rp2570
(dp2571
g14
S'S'
p2572
sg16
(lp2573
F2.5087512900000002
asg18
(lp2574
(lp2575
F1.0
aasg21
S'S'
p2576
sbag0
(g10
g2
Ntp2577
Rp2578
(dp2579
g14
S'S'
p2580
sg16
(lp2581
F1.2426796499999999
asg18
(lp2582
(lp2583
F1.0
aasg21
S'S'
p2584
sbag0
(g10
g2
Ntp2585
Rp2586
(dp2587
g14
S'S'
p2588
sg16
(lp2589
F0.69509887999999997
asg18
(lp2590
(lp2591
F1.0
aasg21
S'S'
p2592
sbag0
(g10
g2
Ntp2593
Rp2594
(dp2595
g14
S'S'
p2596
sg16
(lp2597
F0.33790126999999998
asg18
(lp2598
(lp2599
F1.0
aasg21
S'S'
p2600
sbag0
(g10
g2
Ntp2601
Rp2602
(dp2603
g14
S'S'
p2604
sg16
(lp2605
F0.15326174000000001
asg18
(lp2606
(lp2607
F1.0
aasg21
S'S'
p2608
sbag0
(g10
g2
Ntp2609
Rp2610
(dp2611
g14
S'P'
p2612
sg16
(lp2613
F4192.9053911000001
asg18
(lp2614
(lp2615
F1.0
aasg21
S'S'
p2616
sbag0
(g10
g2
Ntp2617
Rp2618
(dp2619
g14
S'P'
p2620
sg16
(lp2621
F1307.4981236000001
asg18
(lp2622
(lp2623
F1.0
aasg21
S'S'
p2624
sbag0
(g10
g2
Ntp2625
Rp2626
(dp2627
g14
S'P'
p2628
sg16
(lp2629
F530.51279605000002
asg18
(lp2630
(lp2631
F1.0
aasg21
S'S'
p2632
sbag0
(g10
g2
Ntp2633
Rp2634
(dp2635
g14
S'P'
p2636
sg16
(lp2637
F234.91478017
asg18
(lp2638
(lp2639
F1.0
aasg21
S'S'
p2640
sbag0
(g10
g2
Ntp2641
Rp2642
(dp2643
g14
S'P'
p2644
sg16
(lp2645
F102.88158977000001
asg18
(lp2646
(lp2647
F1.0
aasg21
S'S'
p2648
sbag0
(g10
g2
Ntp2649
Rp2650
(dp2651
g14
S'P'
p2652
sg16
(lp2653
F51.931837629999997
asg18
(lp2654
(lp2655
F1.0
aasg21
S'S'
p2656
sbag0
(g10
g2
Ntp2657
Rp2658
(dp2659
g14
S'P'
p2660
sg16
(lp2661
F27.089778549999998
asg18
(lp2662
(lp2663
F1.0
aasg21
S'S'
p2664
sbag0
(g10
g2
Ntp2665
Rp2666
(dp2667
g14
S'P'
p2668
sg16
(lp2669
F13.91551417
asg18
(lp2670
(lp2671
F1.0
aasg21
S'S'
p2672
sbag0
(g10
g2
Ntp2673
Rp2674
(dp2675
g14
S'P'
p2676
sg16
(lp2677
F7.0649308399999997
asg18
(lp2678
(lp2679
F1.0
aasg21
S'S'
p2680
sbag0
(g10
g2
Ntp2681
Rp2682
(dp2683
g14
S'P'
p2684
sg16
(lp2685
F3.6229296799999999
asg18
(lp2686
(lp2687
F1.0
aasg21
S'S'
p2688
sbag0
(g10
g2
Ntp2689
Rp2690
(dp2691
g14
S'P'
p2692
sg16
(lp2693
F1.8016657599999999
asg18
(lp2694
(lp2695
F1.0
aasg21
S'S'
p2696
sbag0
(g10
g2
Ntp2697
Rp2698
(dp2699
g14
S'P'
p2700
sg16
(lp2701
F0.71178911
asg18
(lp2702
(lp2703
F1.0
aasg21
S'S'
p2704
sbag0
(g10
g2
Ntp2705
Rp2706
(dp2707
g14
S'P'
p2708
sg16
(lp2709
F0.42241171
asg18
(lp2710
(lp2711
F1.0
aasg21
S'S'
p2712
sbag0
(g10
g2
Ntp2713
Rp2714
(dp2715
g14
S'P'
p2716
sg16
(lp2717
F0.21074577999999999
asg18
(lp2718
(lp2719
F1.0
aasg21
S'S'
p2720
sbag0
(g10
g2
Ntp2721
Rp2722
(dp2723
g14
S'D'
p2724
sg16
(lp2725
F1031.134648
asg18
(lp2726
(lp2727
F1.0
aasg21
S'S'
p2728
sbag0
(g10
g2
Ntp2729
Rp2730
(dp2731
g14
S'D'
p2732
sg16
(lp2733
F329.70319071
asg18
(lp2734
(lp2735
F1.0
aasg21
S'S'
p2736
sbag0
(g10
g2
Ntp2737
Rp2738
(dp2739
g14
S'D'
p2740
sg16
(lp2741
F136.47043977000001
asg18
(lp2742
(lp2743
F1.0
aasg21
S'S'
p2744
sbag0
(g10
g2
Ntp2745
Rp2746
(dp2747
g14
S'D'
p2748
sg16
(lp2749
F64.107044290000005
asg18
(lp2750
(lp2751
F1.0
aasg21
S'S'
p2752
sbag0
(g10
g2
Ntp2753
Rp2754
(dp2755
g14
S'D'
p2756
sg16
(lp2757
F31.93907102
asg18
(lp2758
(lp2759
F1.0
aasg21
S'S'
p2760
sbag0
(g10
g2
Ntp2761
Rp2762
(dp2763
g14
S'D'
p2764
sg16
(lp2765
F15.92694666
asg18
(lp2766
(lp2767
F1.0
aasg21
S'S'
p2768
sbag0
(g10
g2
Ntp2769
Rp2770
(dp2771
g14
S'D'
p2772
sg16
(lp2773
F8.1339314999999992
asg18
(lp2774
(lp2775
F1.0
aasg21
S'S'
p2776
sbag0
(g10
g2
Ntp2777
Rp2778
(dp2779
g14
S'D'
p2780
sg16
(lp2781
F4.1572662300000003
asg18
(lp2782
(lp2783
F1.0
aasg21
S'S'
p2784
sbag0
(g10
g2
Ntp2785
Rp2786
(dp2787
g14
S'D'
p2788
sg16
(lp2789
F2.0135122999999999
asg18
(lp2790
(lp2791
F1.0
aasg21
S'S'
p2792
sbag0
(g10
g2
Ntp2793
Rp2794
(dp2795
g14
S'D'
p2796
sg16
(lp2797
F0.87861210000000001
asg18
(lp2798
(lp2799
F1.0
aasg21
S'S'
p2800
sbag0
(g10
g2
Ntp2801
Rp2802
(dp2803
g14
S'D'
p2804
sg16
(lp2805
F0.45642618000000001
asg18
(lp2806
(lp2807
F1.0
aasg21
S'S'
p2808
sbag0
(g10
g2
Ntp2809
Rp2810
(dp2811
g14
S'D'
p2812
sg16
(lp2813
F0.20057396999999999
asg18
(lp2814
(lp2815
F1.0
aasg21
S'S'
p2816
sbag0
(g10
g2
Ntp2817
Rp2818
(dp2819
g14
S'F'
p2820
sg16
(lp2821
F225.95276115999999
asg18
(lp2822
(lp2823
F1.0
aasg21
S'S'
p2824
sbag0
(g10
g2
Ntp2825
Rp2826
(dp2827
g14
S'F'
p2828
sg16
(lp2829
F86.124450879999998
asg18
(lp2830
(lp2831
F1.0
aasg21
S'S'
p2832
sbag0
(g10
g2
Ntp2833
Rp2834
(dp2835
g14
S'F'
p2836
sg16
(lp2837
F39.08459551
asg18
(lp2838
(lp2839
F1.0
aasg21
S'S'
p2840
sbag0
(g10
g2
Ntp2841
Rp2842
(dp2843
g14
S'F'
p2844
sg16
(lp2845
F18.270584150000001
asg18
(lp2846
(lp2847
F1.0
aasg21
S'S'
p2848
sbag0
(g10
g2
Ntp2849
Rp2850
(dp2851
g14
S'F'
p2852
sg16
(lp2853
F9.2240269099999992
asg18
(lp2854
(lp2855
F1.0
aasg21
S'S'
p2856
sbag0
(g10
g2
Ntp2857
Rp2858
(dp2859
g14
S'F'
p2860
sg16
(lp2861
F4.6658028800000002
asg18
(lp2862
(lp2863
F1.0
aasg21
S'S'
p2864
sbag0
(g10
g2
Ntp2865
Rp2866
(dp2867
g14
S'F'
p2868
sg16
(lp2869
F2.3111212999999999
asg18
(lp2870
(lp2871
F1.0
aasg21
S'S'
p2872
sbag0
(g10
g2
Ntp2873
Rp2874
(dp2875
g14
S'F'
p2876
sg16
(lp2877
F0.99548225000000001
asg18
(lp2878
(lp2879
F1.0
aasg21
S'S'
p2880
sbag0
(g10
g2
Ntp2881
Rp2882
(dp2883
g14
S'G'
p2884
sg16
(lp2885
F63.150620250000003
asg18
(lp2886
(lp2887
F1.0
aasg21
S'S'
p2888
sbag0
(g10
g2
Ntp2889
Rp2890
(dp2891
g14
S'G'
p2892
sg16
(lp2893
F23.823207969999999
asg18
(lp2894
(lp2895
F1.0
aasg21
S'S'
p2896
sbag0
(g10
g2
Ntp2897
Rp2898
(dp2899
g14
S'G'
p2900
sg16
(lp2901
F10.54349285
asg18
(lp2902
(lp2903
F1.0
aasg21
S'S'
p2904
sbag0
(g10
g2
Ntp2905
Rp2906
(dp2907
g14
S'G'
p2908
sg16
(lp2909
F4.9122517700000001
asg18
(lp2910
(lp2911
F1.0
aasg21
S'S'
p2912
sbag0
(g10
g2
Ntp2913
Rp2914
(dp2915
g14
S'G'
p2916
sg16
(lp2917
F2.2938738399999998
asg18
(lp2918
(lp2919
F1.0
aasg21
S'S'
p2920
sbag0
(g10
g2
Ntp2921
Rp2922
(dp2923
g14
S'G'
p2924
sg16
(lp2925
F0.88962182999999995
asg18
(lp2926
(lp2927
F1.0
aasg21
S'S'
p2928
sbag0
(g10
g2
Ntp2929
Rp2930
(dp2931
g14
S'F'
p2932
sg16
(lp2933
F0.70237749999999999
asg18
(lp2934
(lp2935
F1.0
aasg21
S'S'
p2936
sbag0
(g10
g2
Ntp2937
Rp2938
(dp2939
g14
S'F'
p2940
sg16
(lp2941
F0.34105449999999998
asg18
(lp2942
(lp2943
F1.0
aasg21
S'S'
p2944
sbag0
(g10
g2
Ntp2945
Rp2946
(dp2947
g14
S'F'
p2948
sg16
(lp2949
F0.18055950000000001
asg18
(lp2950
(lp2951
F1.0
aasg21
S'S'
p2952
sbag0
(g10
g2
Ntp2953
Rp2954
(dp2955
g14
S'G'
p2956
sg16
(lp2957
F0.26125949999999998
asg18
(lp2958
(lp2959
F1.0
aasg21
S'S'
p2960
sbag0
(g10
g2
Ntp2961
Rp2962
(dp2963
g14
S'G'
p2964
sg16
(lp2965
F0.45115949999999999
asg18
(lp2966
(lp2967
F1.0
aasg21
S'S'
p2968
sbag0
(g10
g2
Ntp2969
Rp2970
(dp2971
g14
S'H'
p2972
sg16
(lp2973
F0.55450500000000003
asg18
(lp2974
(lp2975
F1.0
aasg21
S'S'
p2976
sbag0
(g10
g2
Ntp2977
Rp2978
(dp2979
g14
S'H'
p2980
sg16
(lp2981
F1.1625049999999999
asg18
(lp2982
(lp2983
F1.0
aasg21
S'S'
p2984
sbag0
(g10
g2
Ntp2985
Rp2986
(dp2987
g14
S'I'
p2988
sg16
(lp2989
F0.96350499999999994
asg18
(lp2990
(lp2991
F1.0
aasg21
S'S'
p2992
sbassb.