ccopy_reg
_reconstructor
p0
(cbasisset
BasisSet
p1
c__builtin__
object
p2
Ntp3
Rp4
(dp5
S'basisDictionary'
p6
(dp7
S'H'
p8
(lp9
g0
(cbasisset
Shell
p10
g2
Ntp11
Rp12
(dp13
S'angularMomentum'
p14
S'S'
p15
sS'exponents'
p16
(lp17
F33.869999999999997
aF5.0949999999999998
aF1.159
asS'coefficients'
p18
(lp19
(lp20
F0.0060679999999999996
aF0.045308000000000001
aF0.202822
aasS'atom'
p21
S' H'
p22
sbag0
(g10
g2
Ntp23
Rp24
(dp25
g14
S'S'
p26
sg16
(lp27
F0.32579999999999998
asg18
(lp28
(lp29
F1.0
aasg21
S' H'
p30
sbag0
(g10
g2
Ntp31
Rp32
(dp33
g14
S'S'
p34
sg16
(lp35
F0.1027
asg18
(lp36
(lp37
F1.0
aasg21
S' H'
p38
sbag0
(g10
g2
Ntp39
Rp40
(dp41
g14
S'P'
p42
sg16
(lp43
F1.407
asg18
(lp44
(lp45
F1.0
aasg21
S' H'
p46
sbag0
(g10
g2
Ntp47
Rp48
(dp49
g14
S'P'
p50
sg16
(lp51
F0.38800000000000001
asg18
(lp52
(lp53
F1.0
aasg21
S' H'
p54
sbag0
(g10
g2
Ntp55
Rp56
(dp57
g14
S'D'
p58
sg16
(lp59
F1.0569999999999999
asg18
(lp60
(lp61
F1.0
aasg21
S' H'
p62
sbag0
(g10
g2
Ntp63
Rp64
(dp65
S'angularMomentum'
p66
S'S'
p67
sS'exponents'
p68
(lp69
F372.56999999999999
asS'coefficients'
p70
(lp71
(lp72
F1.0
aasS'atom'
p73
S'H'
p74
sbag0
(g10
g2
Ntp75
Rp76
(dp77
g66
S'S'
p78
sg68
(lp79
F812.87999999999988
asg70
(lp80
(lp81
F1.0
aasg73
S'H'
p82
sbag0
(g10
g2
Ntp83
Rp84
(dp85
g66
S'P'
p86
sg68
(lp87
F14.07
asg70
(lp88
(lp89
F1.0
aasg73
S'H'
p90
sbag0
(g10
g2
Ntp91
Rp92
(dp93
g66
S'D'
p94
sg68
(lp95
F2.1139999999999999
asg70
(lp96
(lp97
F1.0
aasg73
S'H'
p98
sbasS'C'
p99
(lp100
g0
(g10
g2
Ntp101
Rp102
(dp103
g14
S'S'
p104
sg16
(lp105
F8236.0
aF1235.0
aF280.80000000000001
aF79.269999999999996
aF25.59
aF8.9969999999999999
aF3.319
aF0.36430000000000001
asg18
(lp106
(lp107
F0.000531
aF0.0041079999999999997
aF0.021087000000000002
aF0.081852999999999995
aF0.234817
aF0.43440099999999998
aF0.34612900000000002
aF-0.0089829999999999997
aa(lp108
F-0.000113
aF-0.00087799999999999998
aF-0.0045399999999999998
aF-0.018133
aF-0.055759999999999997
aF-0.12689500000000001
aF-0.170352
aF0.59868399999999999
aasg21
S' C'
p109
sbag0
(g10
g2
Ntp110
Rp111
(dp112
g14
S'S'
p113
sg16
(lp114
F0.90590000000000004
asg18
(lp115
(lp116
F1.0
aasg21
S' C'
p117
sbag0
(g10
g2
Ntp118
Rp119
(dp120
g14
S'S'
p121
sg16
(lp122
F0.1285
asg18
(lp123
(lp124
F1.0
aasg21
S' C'
p125
sbag0
(g10
g2
Ntp126
Rp127
(dp128
g14
S'P'
p129
sg16
(lp130
F18.710000000000001
aF4.133
aF1.2
asg18
(lp131
(lp132
F0.014031
aF0.086865999999999999
aF0.29021599999999997
aasg21
S' C'
p133
sbag0
(g10
g2
Ntp134
Rp135
(dp136
g14
S'P'
p137
sg16
(lp138
F0.38269999999999998
asg18
(lp139
(lp140
F1.0
aasg21
S' C'
p141
sbag0
(g10
g2
Ntp142
Rp143
(dp144
g14
S'P'
p145
sg16
(lp146
F0.12089999999999999
asg18
(lp147
(lp148
F1.0
aasg21
S' C'
p149
sbag0
(g10
g2
Ntp150
Rp151
(dp152
g14
S'D'
p153
sg16
(lp154
F1.097
asg18
(lp155
(lp156
F1.0
aasg21
S' C'
p157
sbag0
(g10
g2
Ntp158
Rp159
(dp160
g14
S'D'
p161
sg16
(lp162
F0.318
asg18
(lp163
(lp164
F1.0
aasg21
S' C'
p165
sbag0
(g10
g2
Ntp166
Rp167
(dp168
g14
S'F'
p169
sg16
(lp170
F0.76100000000000001
asg18
(lp171
(lp172
F1.0
aasg21
S' C'
p173
sbag0
(g10
g2
Ntp174
Rp175
(dp176
g66
S'S'
p177
sg68
(lp178
F90596.0
asg70
(lp179
(lp180
F1.0
aasg73
S'C'
p181
sbag0
(g10
g2
Ntp182
Rp183
(dp184
g66
S'S'
p185
sg68
(lp186
F214136.0
asg70
(lp187
(lp188
F1.0
aasg73
S'C'
p189
sbag0
(g10
g2
Ntp190
Rp191
(dp192
g66
S'P'
p193
sg68
(lp194
F112.26000000000001
asg70
(lp195
(lp196
F1.0
aasg73
S'C'
p197
sbag0
(g10
g2
Ntp198
Rp199
(dp200
g66
S'D'
p201
sg68
(lp202
F4.3879999999999999
asg70
(lp203
(lp204
F1.0
aasg73
S'C'
p205
sbasS'S'
p206
(lp207
g0
(g10
g2
Ntp208
Rp209
(dp210
g14
S'S'
p211
sg16
(lp212
F374100.0
aF56050.0
aF12760.0
aF3615.0
aF1183.0
aF428.80000000000001
aF167.80000000000001
aF69.469999999999999
aF29.84
aF12.720000000000001
aF5.2439999999999998
aF2.2189999999999999
aF0.34899999999999998
asg18
(lp213
(lp214
F5.4214e-05
aF0.00042085499999999998
aF0.0022069799999999999
aF0.0091925800000000005
aF0.032112300000000003
aF0.094668299999999997
aF0.22363
aF0.37439299999999998
aF0.32910800000000001
aF0.084703799999999996
aF0.00044085100000000002
aF0.0016482700000000001
aF0.00030130599999999999
aa(lp215
F-1.49837e-05
aF-0.000116198
aF-0.00061158299999999996
aF-0.0025536999999999999
aF-0.0090870800000000009
aF-0.0277045
aF-0.072001999999999997
aF-0.14643900000000001
aF-0.19514999999999999
aF0.00819193
aF0.51660099999999998
aF0.54217800000000005
aF-0.0091807199999999999
aa(lp216
F4.3506600000000003e-06
aF3.3714000000000003e-05
aF0.00017767400000000001
aF0.000741116
aF0.00264591
aF0.0080748699999999996
aF0.021227599999999999
aF0.043832299999999998
aF0.061271600000000002
aF-0.0036151
aF-0.20451
aF-0.38187100000000002
aF0.71414699999999998
aasg21
S' S'
p217
sbag0
(g10
g2
Ntp218
Rp219
(dp220
g14
S'S'
p221
sg16
(lp222
F0.77669999999999995
asg18
(lp223
(lp224
F1.0
aasg21
S' S'
p225
sbag0
(g10
g2
Ntp226
Rp227
(dp228
g14
S'S'
p229
sg16
(lp230
F0.13220000000000001
asg18
(lp231
(lp232
F1.0
aasg21
S' S'
p233
sbag0
(g10
g2
Ntp234
Rp235
(dp236
g14
S'P'
p237
sg16
(lp238
F574.39999999999998
aF135.80000000000001
aF43.189999999999998
aF15.869999999999999
aF6.2080000000000002
aF2.4830000000000001
aF0.32290000000000002
asg18
(lp239
(lp240
F0.0024226400000000002
aF0.019279600000000001
aF0.088540099999999997
aF0.25465399999999999
aF0.43398399999999998
aF0.35495300000000002
aF-0.0050297700000000002
aa(lp241
F-0.00062010199999999998
aF-0.00493882
aF-0.023264699999999999
aF-0.068519499999999997
aF-0.12389600000000001
aF-0.096949900000000006
aF0.56939399999999996
aasg21
S' S'
p242
sbag0
(g10
g2
Ntp243
Rp244
(dp245
g14
S'P'
p246
sg16
(lp247
F0.86880000000000002
asg18
(lp248
(lp249
F1.0
aasg21
S' S'
p250
sbag0
(g10
g2
Ntp251
Rp252
(dp253
g14
S'P'
p254
sg16
(lp255
F0.10979999999999999
asg18
(lp256
(lp257
F1.0
aasg21
S' S'
p258
sbag0
(g10
g2
Ntp259
Rp260
(dp261
g14
S'D'
p262
sg16
(lp263
F0.26900000000000002
asg18
(lp264
(lp265
F1.0
aasg21
S' S'
p266
sbag0
(g10
g2
Ntp267
Rp268
(dp269
g14
S'D'
p270
sg16
(lp271
F0.81899999999999995
asg18
(lp272
(lp273
F1.0
aasg21
S' S'
p274
sbag0
(g10
g2
Ntp275
Rp276
(dp277
g14
S'F'
p278
sg16
(lp279
F0.55700000000000005
asg18
(lp280
(lp281
F1.0
aasg21
S' S'
p282
sbag0
(g10
g2
Ntp283
Rp284
(dp285
g66
S'S'
p286
sg68
(lp287
F4115100.0
asg70
(lp288
(lp289
F1.0
aasg73
S'S'
p290
sbag0
(g10
g2
Ntp291
Rp292
(dp293
g66
S'S'
p294
sg68
(lp295
F9726600.0
asg70
(lp296
(lp297
F1.0
aasg73
S'S'
p298
sbag0
(g10
g2
Ntp299
Rp300
(dp301
g66
S'P'
p302
sg68
(lp303
F3446.3999999999996
asg70
(lp304
(lp305
F1.0
aasg73
S'S'
p306
sbag0
(g10
g2
Ntp307
Rp308
(dp309
g66
S'D'
p310
sg68
(lp311
F3.2759999999999998
asg70
(lp312
(lp313
F1.0
aasg73
S'S'
p314
sbasS'O'
p315
(lp316
g0
(g10
g2
Ntp317
Rp318
(dp319
g14
S'S'
p320
sg16
(lp321
F15330.0
aF2299.0
aF522.39999999999998
aF147.30000000000001
aF47.549999999999997
aF16.760000000000002
aF6.2069999999999999
aF0.68820000000000003
asg18
(lp322
(lp323
F0.00050799999999999999
aF0.0039290000000000002
aF0.020243000000000001
aF0.079181000000000001
aF0.230687
aF0.433118
aF0.35026000000000002
aF-0.0081539999999999998
aa(lp324
F-0.000115
aF-0.00089499999999999996
aF-0.0046360000000000004
aF-0.018724000000000001
aF-0.058463000000000001
aF-0.136463
aF-0.17574000000000001
aF0.60341800000000001
aasg21
S' O'
p325
sbag0
(g10
g2
Ntp326
Rp327
(dp328
g14
S'S'
p329
sg16
(lp330
F1.752
asg18
(lp331
(lp332
F1.0
aasg21
S' O'
p333
sbag0
(g10
g2
Ntp334
Rp335
(dp336
g14
S'S'
p337
sg16
(lp338
F0.2384
asg18
(lp339
(lp340
F1.0
aasg21
S' O'
p341
sbag0
(g10
g2
Ntp342
Rp343
(dp344
g14
S'P'
p345
sg16
(lp346
F34.460000000000001
aF7.7489999999999997
aF2.2799999999999998
asg18
(lp347
(lp348
F0.015928000000000001
aF0.099739999999999995
aF0.31049199999999999
aasg21
S' O'
p349
sbag0
(g10
g2
Ntp350
Rp351
(dp352
g14
S'P'
p353
sg16
(lp354
F0.71560000000000001
asg18
(lp355
(lp356
F1.0
aasg21
S' O'
p357
sbag0
(g10
g2
Ntp358
Rp359
(dp360
g14
S'P'
p361
sg16
(lp362
F0.214
asg18
(lp363
(lp364
F1.0
aasg21
S' O'
p365
sbag0
(g10
g2
Ntp366
Rp367
(dp368
g14
S'D'
p369
sg16
(lp370
F2.3140000000000001
asg18
(lp371
(lp372
F1.0
aasg21
S' O'
p373
sbag0
(g10
g2
Ntp374
Rp375
(dp376
g14
S'D'
p377
sg16
(lp378
F0.64500000000000002
asg18
(lp379
(lp380
F1.0
aasg21
S' O'
p381
sbag0
(g10
g2
Ntp382
Rp383
(dp384
g14
S'F'
p385
sg16
(lp386
F1.4279999999999999
asg18
(lp387
(lp388
F1.0
aasg21
S' O'
p389
sbag0
(g10
g2
Ntp390
Rp391
(dp392
g66
S'S'
p393
sg68
(lp394
F168630.0
asg70
(lp395
(lp396
F1.0
aasg73
S'O'
p397
sbag0
(g10
g2
Ntp398
Rp399
(dp400
g66
S'S'
p401
sg68
(lp402
F398580.0
asg70
(lp403
(lp404
F1.0
aasg73
S'O'
p405
sbag0
(g10
g2
Ntp406
Rp407
(dp408
g66
S'P'
p409
sg68
(lp410
F206.75999999999999
asg70
(lp411
(lp412
F1.0
aasg73
S'O'
p413
sbag0
(g10
g2
Ntp414
Rp415
(dp416
g66
S'D'
p417
sg68
(lp418
F9.2560000000000002
asg70
(lp419
(lp420
F1.0
aasg73
S'O'
p421
sbasS'N'
p422
(lp423
g0
(g10
g2
Ntp424
Rp425
(dp426
g14
S'S'
p427
sg16
(lp428
F11420.0
aF1712.0
aF389.30000000000001
aF110.0
aF35.57
aF12.539999999999999
aF4.6440000000000001
aF0.51180000000000003
asg18
(lp429
(lp430
F0.00052300000000000003
aF0.004045
aF0.020774999999999998
aF0.080726999999999993
aF0.233074
aF0.43350100000000003
aF0.347472
aF-0.0085079999999999999
aa(lp431
F-0.000115
aF-0.00089499999999999996
aF-0.0046239999999999996
aF-0.018527999999999999
aF-0.057339000000000001
aF-0.132076
aF-0.17251
aF0.59994400000000003
aasg21
S' N'
p432
sbag0
(g10
g2
Ntp433
Rp434
(dp435
g14
S'S'
p436
sg16
(lp437
F1.2929999999999999
asg18
(lp438
(lp439
F1.0
aasg21
S' N'
p440
sbag0
(g10
g2
Ntp441
Rp442
(dp443
g14
S'S'
p444
sg16
(lp445
F0.1787
asg18
(lp446
(lp447
F1.0
aasg21
S' N'
p448
sbag0
(g10
g2
Ntp449
Rp450
(dp451
g14
S'P'
p452
sg16
(lp453
F26.629999999999999
aF5.9480000000000004
aF1.742
asg18
(lp454
(lp455
F0.014670000000000001
aF0.091763999999999998
aF0.29868299999999998
aasg21
S' N'
p456
sbag0
(g10
g2
Ntp457
Rp458
(dp459
g14
S'P'
p460
sg16
(lp461
F0.55500000000000005
asg18
(lp462
(lp463
F1.0
aasg21
S' N'
p464
sbag0
(g10
g2
Ntp465
Rp466
(dp467
g14
S'P'
p468
sg16
(lp469
F0.17249999999999999
asg18
(lp470
(lp471
F1.0
aasg21
S' N'
p472
sbag0
(g10
g2
Ntp473
Rp474
(dp475
g14
S'D'
p476
sg16
(lp477
F1.6539999999999999
asg18
(lp478
(lp479
F1.0
aasg21
S' N'
p480
sbag0
(g10
g2
Ntp481
Rp482
(dp483
g14
S'D'
p484
sg16
(lp485
F0.46899999999999997
asg18
(lp486
(lp487
F1.0
aasg21
S' N'
p488
sbag0
(g10
g2
Ntp489
Rp490
(dp491
g14
S'F'
p492
sg16
(lp493
F1.093
asg18
(lp494
(lp495
F1.0
aasg21
S' N'
p496
sbag0
(g10
g2
Ntp497
Rp498
(dp499
g66
S'S'
p500
sg68
(lp501
F125620.0
asg70
(lp502
(lp503
F1.0
aasg73
S'N'
p504
sbag0
(g10
g2
Ntp505
Rp506
(dp507
g66
S'S'
p508
sg68
(lp509
F296920.0
asg70
(lp510
(lp511
F1.0
aasg73
S'N'
p512
sbag0
(g10
g2
Ntp513
Rp514
(dp515
g66
S'P'
p516
sg68
(lp517
F159.78
asg70
(lp518
(lp519
F1.0
aasg73
S'N'
p520
sbag0
(g10
g2
Ntp521
Rp522
(dp523
g66
S'D'
p524
sg68
(lp525
F6.6159999999999997
asg70
(lp526
(lp527
F1.0
aasg73
S'N'
p528
sbag0
(g10
g2
Ntp529
Rp530
(dp531
g66
S'S'
p532
sg68
(lp533
F3266120.0
asg70
(lp534
(lp535
F1.0
aasg73
S'N'
p536
sbag0
(g10
g2
Ntp537
Rp538
(dp539
g66
S'S'
p540
sg68
(lp541
F7719920.0
asg70
(lp542
(lp543
F1.0
aasg73
S'N'
p544
sbag0
(g10
g2
Ntp545
Rp546
(dp547
g66
S'P'
p548
sg68
(lp549
F958.68000000000006
asg70
(lp550
(lp551
F1.0
aasg73
S'N'
p552
sbag0
(g10
g2
Ntp553
Rp554
(dp555
g66
S'D'
p556
sg68
(lp557
F26.463999999999999
asg70
(lp558
(lp559
F1.0
aasg73
S'N'
p560
sbassb.