ccopy_reg
_reconstructor
p0
(cbasisset
BasisSet
p1
c__builtin__
object
p2
Ntp3
Rp4
(dp5
S'basisDictionary'
p6
(dp7
VC
p8
(lp9
g0
(cbasisset
Shell
p10
g2
Ntp11
Rp12
(dp13
S'angularMomentum'
p14
VS
p15
sS'exponents'
p16
(lp17
F33980.0
aF5089.0
aF1157.0
aF326.60000000000002
aF106.09999999999999
aF38.109999999999999
aF14.75
aF6.0350000000000001
aF2.5299999999999998
aF0.73550000000000004
aF0.29049999999999998
aF0.1111
asS'coefficients'
p18
(lp19
(lp20
F9.1000000000000003e-05
aF0.00070399999999999998
aF0.0036930000000000001
aF0.01536
aF0.052928999999999997
aF0.14704300000000001
aF0.30563099999999999
aF0.39934500000000001
aF0.21705099999999999
aF0.015893999999999998
aF-0.0030839999999999999
aF0.00097799999999999992
aa(lp21
F-1.9000000000000001e-05
aF-0.00015100000000000001
aF-0.000785
aF-0.0033240000000000001
aF-0.011512
aF-0.034160000000000003
aF-0.077173000000000005
aF-0.14149300000000001
aF-0.118019
aF0.27380599999999999
aF0.58650999999999998
aF0.28543000000000002
aasS'atom'
p22
V C
p23
sbag0
(g10
g2
Ntp24
Rp25
(dp26
g14
g15
sg16
(lp27
F0.73550000000000004
asg18
(lp28
(lp29
F1.0
aasg22
g23
sbag0
(g10
g2
Ntp30
Rp31
(dp32
g14
g15
sg16
(lp33
F0.29049999999999998
asg18
(lp34
(lp35
F1.0
aasg22
g23
sbag0
(g10
g2
Ntp36
Rp37
(dp38
g14
g15
sg16
(lp39
F0.1111
asg18
(lp40
(lp41
F1.0
aasg22
g23
sbag0
(g10
g2
Ntp42
Rp43
(dp44
g14
g15
sg16
(lp45
F0.041450000000000001
asg18
(lp46
(lp47
F1.0
aasg22
g23
sbag0
(g10
g2
Ntp48
Rp49
(dp50
g14
VP
p51
sg16
(lp52
F34.509999999999998
aF7.915
aF2.3679999999999999
aF0.81320000000000003
aF0.28899999999999998
aF0.1007
asg18
(lp53
(lp54
F0.005378
aF0.036131999999999997
aF0.14249300000000001
aF0.34215000000000001
aF0.463864
aF0.25002799999999997
aasg22
g23
sbag0
(g10
g2
Ntp55
Rp56
(dp57
g14
g51
sg16
(lp58
F2.3679999999999999
asg18
(lp59
(lp60
F1.0
aasg22
g23
sbag0
(g10
g2
Ntp61
Rp62
(dp63
g14
g51
sg16
(lp64
F0.81320000000000003
asg18
(lp65
(lp66
F1.0
aasg22
g23
sbag0
(g10
g2
Ntp67
Rp68
(dp69
g14
g51
sg16
(lp70
F0.28899999999999998
asg18
(lp71
(lp72
F1.0
aasg22
g23
sbag0
(g10
g2
Ntp73
Rp74
(dp75
g14
g51
sg16
(lp76
F0.1007
asg18
(lp77
(lp78
F1.0
aasg22
g23
sbag0
(g10
g2
Ntp79
Rp80
(dp81
g14
g51
sg16
(lp82
F0.03218
asg18
(lp83
(lp84
F1.0
aasg22
g23
sbag0
(g10
g2
Ntp85
Rp86
(dp87
g14
VD
p88
sg16
(lp89
F2.2805
asg18
(lp90
(lp91
F1.0
aasg22
g23
sbag0
(g10
g2
Ntp92
Rp93
(dp94
g14
g88
sg16
(lp95
F0.78339999999999999
asg18
(lp96
(lp97
F1.0
aasg22
g23
sbag0
(g10
g2
Ntp98
Rp99
(dp100
g14
g88
sg16
(lp101
F0.26910000000000001
asg18
(lp102
(lp103
F1.0
aasg22
g23
sbag0
(g10
g2
Ntp104
Rp105
(dp106
g14
VF
p107
sg16
(lp108
F1.0370999999999999
asg18
(lp109
(lp110
F1.0
aasg22
g23
sbag0
(g10
g2
Ntp111
Rp112
(dp113
g14
g107
sg16
(lp114
F0.34589999999999999
asg18
(lp115
(lp116
F1.0
aasg22
g23
sbasVB
p117
(lp118
g0
(g10
g2
Ntp119
Rp120
(dp121
g14
g15
sg16
(lp122
F23870.0
aF3575.0
aF812.79999999999995
aF229.69999999999999
aF74.689999999999998
aF26.809999999999999
aF10.32
aF4.1779999999999999
aF1.7270000000000001
aF0.47039999999999998
aF0.18959999999999999
aF0.073940000000000006
asg18
(lp123
(lp124
F8.7999999999999998e-05
aF0.000687
aF0.0035999999999999999
aF0.014949
aF0.051435000000000002
aF0.14330200000000001
aF0.30093500000000001
aF0.403526
aF0.22534000000000001
aF0.015407000000000001
aF-0.0039550000000000002
aF0.001124
aa(lp125
F-1.8e-05
aF-0.00013899999999999999
aF-0.00072499999999999995
aF-0.0030630000000000002
aF-0.010581
aF-0.031364999999999997
aF-0.071012000000000006
aF-0.132103
aF-0.123072
aF0.26181900000000002
aF0.58666200000000002
aF0.29049399999999997
aasg22
V B
p126
sbag0
(g10
g2
Ntp127
Rp128
(dp129
g14
g15
sg16
(lp130
F0.47039999999999998
asg18
(lp131
(lp132
F1.0
aasg22
g126
sbag0
(g10
g2
Ntp133
Rp134
(dp135
g14
g15
sg16
(lp136
F0.18959999999999999
asg18
(lp137
(lp138
F1.0
aasg22
g126
sbag0
(g10
g2
Ntp139
Rp140
(dp141
g14
g15
sg16
(lp142
F0.073940000000000006
asg18
(lp143
(lp144
F1.0
aasg22
g126
sbag0
(g10
g2
Ntp145
Rp146
(dp147
g14
g15
sg16
(lp148
F0.027210000000000002
asg18
(lp149
(lp150
F1.0
aasg22
g126
sbag0
(g10
g2
Ntp151
Rp152
(dp153
g14
g51
sg16
(lp154
F22.260000000000002
aF5.0579999999999998
aF1.4870000000000001
aF0.5071
aF0.1812
aF0.064630000000000007
asg18
(lp155
(lp156
F0.0050949999999999997
aF0.033205999999999999
aF0.13231399999999999
aF0.331818
aF0.47206300000000001
aF0.25797900000000001
aasg22
g126
sbag0
(g10
g2
Ntp157
Rp158
(dp159
g14
g51
sg16
(lp160
F1.4870000000000001
asg18
(lp161
(lp162
F1.0
aasg22
g126
sbag0
(g10
g2
Ntp163
Rp164
(dp165
g14
g51
sg16
(lp166
F0.5071
asg18
(lp167
(lp168
F1.0
aasg22
g126
sbag0
(g10
g2
Ntp169
Rp170
(dp171
g14
g51
sg16
(lp172
F0.1812
asg18
(lp173
(lp174
F1.0
aasg22
g126
sbag0
(g10
g2
Ntp175
Rp176
(dp177
g14
g51
sg16
(lp178
F0.064630000000000007
asg18
(lp179
(lp180
F1.0
aasg22
g126
sbag0
(g10
g2
Ntp181
Rp182
(dp183
g14
g51
sg16
(lp184
F0.018780000000000002
asg18
(lp185
(lp186
F1.0
aasg22
g126
sbag0
(g10
g2
Ntp187
Rp188
(dp189
g14
g88
sg16
(lp190
F1.4402999999999999
asg18
(lp191
(lp192
F1.0
aasg22
g126
sbag0
(g10
g2
Ntp193
Rp194
(dp195
g14
g88
sg16
(lp196
F0.5333
asg18
(lp197
(lp198
F1.0
aasg22
g126
sbag0
(g10
g2
Ntp199
Rp200
(dp201
g14
g88
sg16
(lp202
F0.19750000000000001
asg18
(lp203
(lp204
F1.0
aasg22
g126
sbag0
(g10
g2
Ntp205
Rp206
(dp207
g14
g107
sg16
(lp208
F0.84789999999999999
asg18
(lp209
(lp210
F1.0
aasg22
g126
sbag0
(g10
g2
Ntp211
Rp212
(dp213
g14
g107
sg16
(lp214
F0.24840000000000001
asg18
(lp215
(lp216
F1.0
aasg22
g126
sbasg107
(lp217
g0
(g10
g2
Ntp218
Rp219
(dp220
g14
g15
sg16
(lp221
F74530.0
aF11170.0
aF2543.0
aF721.0
aF235.90000000000001
aF85.599999999999994
aF33.549999999999997
aF13.93
aF5.915
aF1.843
aF0.71240000000000003
aF0.26369999999999999
asg18
(lp222
(lp223
F9.5000000000000005e-05
aF0.00073800000000000005
aF0.0038579999999999999
aF0.015925999999999999
aF0.054288999999999997
aF0.14951300000000001
aF0.30825200000000003
aF0.39485300000000001
aF0.211031
aF0.017151
aF-0.0020149999999999999
aF0.00086899999999999998
aa(lp224
F-2.1999999999999999e-05
aF-0.00017200000000000001
aF-0.00089099999999999997
aF-0.003748
aF-0.012862
aF-0.038060999999999998
aF-0.086238999999999996
aF-0.155865
aF-0.110914
aF0.298761
aF0.58501300000000001
aF0.27115899999999998
aasg22
V F
p225
sbag0
(g10
g2
Ntp226
Rp227
(dp228
g14
g15
sg16
(lp229
F1.843
asg18
(lp230
(lp231
F1.0
aasg22
g225
sbag0
(g10
g2
Ntp232
Rp233
(dp234
g14
g15
sg16
(lp235
F0.71240000000000003
asg18
(lp236
(lp237
F1.0
aasg22
g225
sbag0
(g10
g2
Ntp238
Rp239
(dp240
g14
g15
sg16
(lp241
F0.26369999999999999
asg18
(lp242
(lp243
F1.0
aasg22
g225
sbag0
(g10
g2
Ntp244
Rp245
(dp246
g14
g15
sg16
(lp247
F0.085940000000000003
asg18
(lp248
(lp249
F1.0
aasg22
g225
sbag0
(g10
g2
Ntp250
Rp251
(dp252
g14
g51
sg16
(lp253
F80.390000000000001
aF18.629999999999999
aF5.694
aF1.9530000000000001
aF0.67020000000000002
aF0.21659999999999999
asg18
(lp254
(lp255
F0.0063470000000000002
aF0.044204
aF0.168514
aF0.36156300000000002
aF0.44217800000000002
aF0.24343500000000001
aasg22
g225
sbag0
(g10
g2
Ntp256
Rp257
(dp258
g14
g51
sg16
(lp259
F5.694
asg18
(lp260
(lp261
F1.0
aasg22
g225
sbag0
(g10
g2
Ntp262
Rp263
(dp264
g14
g51
sg16
(lp265
F1.9530000000000001
asg18
(lp266
(lp267
F1.0
aasg22
g225
sbag0
(g10
g2
Ntp268
Rp269
(dp270
g14
g51
sg16
(lp271
F0.67020000000000002
asg18
(lp272
(lp273
F1.0
aasg22
g225
sbag0
(g10
g2
Ntp274
Rp275
(dp276
g14
g51
sg16
(lp277
F0.21659999999999999
asg18
(lp278
(lp279
F1.0
aasg22
g225
sbag0
(g10
g2
Ntp280
Rp281
(dp282
g14
g51
sg16
(lp283
F0.065680000000000002
asg18
(lp284
(lp285
F1.0
aasg22
g225
sbag0
(g10
g2
Ntp286
Rp287
(dp288
g14
g88
sg16
(lp289
F4.2271999999999998
asg18
(lp290
(lp291
F1.0
aasg22
g225
sbag0
(g10
g2
Ntp292
Rp293
(dp294
g14
g88
sg16
(lp295
F1.3896999999999999
asg18
(lp296
(lp297
F1.0
aasg22
g225
sbag0
(g10
g2
Ntp298
Rp299
(dp300
g14
g88
sg16
(lp301
F0.45689999999999997
asg18
(lp302
(lp303
F1.0
aasg22
g225
sbag0
(g10
g2
Ntp304
Rp305
(dp306
g14
g107
sg16
(lp307
F2.5973999999999999
asg18
(lp308
(lp309
F1.0
aasg22
g225
sbag0
(g10
g2
Ntp310
Rp311
(dp312
g14
g107
sg16
(lp313
F0.85140000000000005
asg18
(lp314
(lp315
F1.0
aasg22
g225
sbasVH
p316
(lp317
g0
(g10
g2
Ntp318
Rp319
(dp320
g14
g15
sg16
(lp321
F82.640000000000001
aF12.41
aF2.8239999999999998
aF0.79769999999999996
aF0.2581
aF0.089889999999999998
asg18
(lp322
(lp323
F0.002006
aF0.015343000000000001
aF0.075578999999999993
aF0.25687500000000002
aF0.49736799999999998
aF0.29613299999999998
aasg22
V H
p324
sbag0
(g10
g2
Ntp325
Rp326
(dp327
g14
g15
sg16
(lp328
F0.79769999999999996
asg18
(lp329
(lp330
F1.0
aasg22
g324
sbag0
(g10
g2
Ntp331
Rp332
(dp333
g14
g15
sg16
(lp334
F0.2581
asg18
(lp335
(lp336
F1.0
aasg22
g324
sbag0
(g10
g2
Ntp337
Rp338
(dp339
g14
g15
sg16
(lp340
F0.089889999999999998
asg18
(lp341
(lp342
F1.0
aasg22
g324
sbag0
(g10
g2
Ntp343
Rp344
(dp345
g14
g51
sg16
(lp346
F1.5512999999999999
asg18
(lp347
(lp348
F1.0
aasg22
g324
sbag0
(g10
g2
Ntp349
Rp350
(dp351
g14
g51
sg16
(lp352
F0.55800000000000005
asg18
(lp353
(lp354
F1.0
aasg22
g324
sbag0
(g10
g2
Ntp355
Rp356
(dp357
g14
g51
sg16
(lp358
F0.20069999999999999
asg18
(lp359
(lp360
F1.0
aasg22
g324
sbag0
(g10
g2
Ntp361
Rp362
(dp363
g14
g88
sg16
(lp364
F0.46479999999999999
asg18
(lp365
(lp366
F1.0
aasg22
g324
sbasVCL
p367
(lp368
g0
(g10
g2
Ntp369
Rp370
(dp371
g14
g15
sg16
(lp372
F834900.0
aF125000.0
aF28430.0
aF8033.0
aF2608.0
aF933.89999999999998
aF360.0
aF147.0
aF62.880000000000003
aF27.600000000000001
aF11.08
aF5.0750000000000002
aF2.278
aF0.77749999999999997
aF0.35270000000000001
aF0.1431
asg18
(lp373
(lp374
F2.3168800000000001e-05
aF0.000180154
aF0.00094778199999999999
aF0.0040013899999999996
aF0.014462900000000001
aF0.045658600000000001
aF0.123248
aF0.26436900000000002
aF0.38298900000000002
aF0.27093400000000001
aF0.047140399999999999
aF-0.0037176599999999998
aF0.0021915799999999998
aF-0.00084984999999999998
aF0.000424664
aF-0.000120018
aa(lp375
F-6.4964899999999997e-06
aF-5.0489499999999998e-05
aF-0.000266113
aF-0.00112499
aF-0.0041049700000000003
aF-0.013198700000000001
aF-0.037534199999999997
aF-0.089723300000000006
aF-0.16767099999999999
aF-0.174763
aF0.114909
aF0.56361799999999995
aF0.441606
aF0.042669699999999998
aF-0.00667229
aF0.0019072900000000001
aa(lp376
F1.96645e-06
aF1.5262000000000001e-05
aF8.0608599999999999e-05
aF0.00033995999999999999
aF0.00124551
aF0.0039961199999999997
aF0.0114751
aF0.027550399999999999
aF0.053291699999999997
aF0.057124599999999998
aF-0.039520100000000002
aF-0.26434299999999999
aF-0.34929100000000002
aF0.26967099999999999
aF0.67607300000000004
aF0.28467900000000002
aasg22
VCL
p377
sbag0
(g10
g2
Ntp378
Rp379
(dp380
g14
g15
sg16
(lp381
F0.77749999999999997
asg18
(lp382
(lp383
F1.0
aasg22
VCL
p384
sbag0
(g10
g2
Ntp385
Rp386
(dp387
g14
g15
sg16
(lp388
F0.35270000000000001
asg18
(lp389
(lp390
F1.0
aasg22
VCL
p391
sbag0
(g10
g2
Ntp392
Rp393
(dp394
g14
g15
sg16
(lp395
F0.1431
asg18
(lp396
(lp397
F1.0
aasg22
VCL
p398
sbag0
(g10
g2
Ntp399
Rp400
(dp401
g14
g15
sg16
(lp402
F0.051900000000000002
asg18
(lp403
(lp404
F1.0
aasg22
VCL
p405
sbag0
(g10
g2
Ntp406
Rp407
(dp408
g14
g51
sg16
(lp409
F1703.0
aF403.60000000000002
aF130.30000000000001
aF49.049999999999997
aF20.260000000000002
aF8.7870000000000008
aF3.919
aF1.7649999999999999
aF0.72070000000000001
aF0.28389999999999999
aF0.106
asg18
(lp410
(lp411
F0.00047403899999999999
aF0.0040641200000000001
aF0.0213355
aF0.079461100000000007
aF0.208927
aF0.36494500000000002
aF0.37172500000000003
aF0.14629200000000001
aF0.010790599999999999
aF0.00117004
aF0.00033940799999999997
aa(lp412
F-0.00012826600000000001
aF-0.0010935599999999999
aF-0.0058342899999999998
aF-0.021925799999999999
aF-0.060138499999999998
aF-0.106929
aF-0.12245399999999999
aF0.038361899999999997
aF0.38525599999999999
aF0.50726499999999997
aF0.227218
aasg22
VCL
p413
sbag0
(g10
g2
Ntp414
Rp415
(dp416
g14
g51
sg16
(lp417
F0.72070000000000001
asg18
(lp418
(lp419
F1.0
aasg22
VCL
p420
sbag0
(g10
g2
Ntp421
Rp422
(dp423
g14
g51
sg16
(lp424
F0.28389999999999999
asg18
(lp425
(lp426
F1.0
aasg22
VCL
p427
sbag0
(g10
g2
Ntp428
Rp429
(dp430
g14
g51
sg16
(lp431
F0.106
asg18
(lp432
(lp433
F1.0
aasg22
VCL
p434
sbag0
(g10
g2
Ntp435
Rp436
(dp437
g14
g51
sg16
(lp438
F0.037600000000000001
asg18
(lp439
(lp440
F1.0
aasg22
VCL
p441
sbag0
(g10
g2
Ntp442
Rp443
(dp444
g14
g51
sg16
(lp445
F5.6487999999999996
asg18
(lp446
(lp447
F1.0
aasg22
VCL
p448
sbag0
(g10
g2
Ntp449
Rp450
(dp451
g14
g88
sg16
(lp452
F10.398999999999999
asg18
(lp453
(lp454
F1.0
aasg22
VCL
p455
sbag0
(g10
g2
Ntp456
Rp457
(dp458
g14
g88
sg16
(lp459
F2.4100999999999999
asg18
(lp460
(lp461
F1.0
aasg22
VCL
p462
sbag0
(g10
g2
Ntp463
Rp464
(dp465
g14
g88
sg16
(lp466
F0.66639999999999999
asg18
(lp467
(lp468
F1.0
aasg22
VCL
p469
sbag0
(g10
g2
Ntp470
Rp471
(dp472
g14
g88
sg16
(lp473
F0.2442
asg18
(lp474
(lp475
F1.0
aasg22
VCL
p476
sbag0
(g10
g2
Ntp477
Rp478
(dp479
g14
g107
sg16
(lp480
F0.86619999999999997
asg18
(lp481
(lp482
F1.0
aasg22
VCL
p483
sbag0
(g10
g2
Ntp484
Rp485
(dp486
g14
g107
sg16
(lp487
F0.32890000000000003
asg18
(lp488
(lp489
F1.0
aasg22
VCL
p490
sbasVAL
p491
(lp492
g0
(g10
g2
Ntp493
Rp494
(dp495
g14
g15
sg16
(lp496
F419600.0
aF62830.0
aF14290.0
aF4038.0
aF1312.0
aF470.5
aF181.80000000000001
aF74.459999999999994
aF31.899999999999999
aF13.960000000000001
aF5.1799999999999997
aF2.2650000000000001
aF0.96640000000000004
aF0.2447
aF0.11840000000000001
aF0.050209999999999998
asg18
(lp497
(lp498
F2.7821899999999999e-05
aF0.00021633000000000001
aF0.00113754
aF0.0047963499999999996
aF0.017238900000000001
aF0.053806600000000003
aF0.14132600000000001
aF0.28926800000000003
aF0.38482499999999997
aF0.232852
aF0.029333000000000001
aF-0.0030057399999999998
aF0.0016667299999999999
aF-0.00060601700000000004
aF0.00043135500000000002
aF-0.00012291900000000001
aa(lp499
F-7.23754e-06
aF-5.61733e-05
aF-0.000296528
aF-0.00124913
aF-0.0045510100000000003
aF-0.0144393
aF-0.040346399999999998
aF-0.092261800000000005
aF-0.16450999999999999
aF-0.141296
aF0.19536500000000001
aF0.57247499999999996
aF0.37404100000000001
aF0.023411899999999999
aF-0.0090519699999999995
aF0.00211174
aa(lp500
F1.6715e-06
aF1.29641e-05
aF6.85101e-05
aF0.00028827399999999998
aF0.00105276
aF0.00333878
aF0.00939217
aF0.021604700000000001
aF0.039587299999999999
aF0.034917999999999998
aF-0.0528415
aF-0.19187799999999999
aF-0.25411499999999998
aF0.27506999999999998
aF0.60474300000000003
aF0.28762900000000002
aasg22
VAL
p501
sbag0
(g10
g2
Ntp502
Rp503
(dp504
g14
g15
sg16
(lp505
F0.2447
asg18
(lp506
(lp507
F1.0
aasg22
VAL
p508
sbag0
(g10
g2
Ntp509
Rp510
(dp511
g14
g15
sg16
(lp512
F0.11840000000000001
asg18
(lp513
(lp514
F1.0
aasg22
VAL
p515
sbag0
(g10
g2
Ntp516
Rp517
(dp518
g14
g15
sg16
(lp519
F0.050209999999999998
asg18
(lp520
(lp521
F1.0
aasg22
VAL
p522
sbag0
(g10
g2
Ntp523
Rp524
(dp525
g14
g15
sg16
(lp526
F0.0183
asg18
(lp527
(lp528
F1.0
aasg22
VAL
p529
sbag0
(g10
g2
Ntp530
Rp531
(dp532
g14
g51
sg16
(lp533
F891.29999999999995
aF211.30000000000001
aF68.280000000000001
aF25.699999999999999
aF10.630000000000001
aF4.6020000000000003
aF2.0150000000000001
aF0.87060000000000004
aF0.29720000000000002
aF0.11
aF0.039890000000000002
asg18
(lp534
(lp535
F0.00049175499999999997
aF0.0041584300000000003
aF0.0212538
aF0.076405799999999996
aF0.19427700000000001
aF0.334428
aF0.37502600000000003
aF0.204041
aF0.021373799999999998
aF-0.0020214400000000002
aF0.00081725099999999996
aa(lp536
F-8.88695e-05
aF-0.00074582299999999995
aF-0.00387025
aF-0.013934999999999999
aF-0.036686000000000003
aF-0.062779699999999994
aF-0.078960199999999994
aF-0.0288589
aF0.238256
aF0.55136300000000005
aF0.35438500000000001
aasg22
VAL
p537
sbag0
(g10
g2
Ntp538
Rp539
(dp540
g14
g51
sg16
(lp541
F0.29720000000000002
asg18
(lp542
(lp543
F1.0
aasg22
VAL
p544
sbag0
(g10
g2
Ntp545
Rp546
(dp547
g14
g51
sg16
(lp548
F0.11
asg18
(lp549
(lp550
F1.0
aasg22
VAL
p551
sbag0
(g10
g2
Ntp552
Rp553
(dp554
g14
g51
sg16
(lp555
F0.039890000000000002
asg18
(lp556
(lp557
F1.0
aasg22
VAL
p558
sbag0
(g10
g2
Ntp559
Rp560
(dp561
g14
g51
sg16
(lp562
F0.0121
asg18
(lp563
(lp564
F1.0
aasg22
VAL
p565
sbag0
(g10
g2
Ntp566
Rp567
(dp568
g14
g51
sg16
(lp569
F2.5251999999999999
asg18
(lp570
(lp571
F1.0
aasg22
VAL
p572
sbag0
(g10
g2
Ntp573
Rp574
(dp575
g14
g88
sg16
(lp576
F3.0211000000000001
asg18
(lp577
(lp578
F1.0
aasg22
VAL
p579
sbag0
(g10
g2
Ntp580
Rp581
(dp582
g14
g88
sg16
(lp583
F0.64610000000000001
asg18
(lp584
(lp585
F1.0
aasg22
VAL
p586
sbag0
(g10
g2
Ntp587
Rp588
(dp589
g14
g88
sg16
(lp590
F0.2586
asg18
(lp591
(lp592
F1.0
aasg22
VAL
p593
sbag0
(g10
g2
Ntp594
Rp595
(dp596
g14
g88
sg16
(lp597
F0.10349999999999999
asg18
(lp598
(lp599
F1.0
aasg22
VAL
p600
sbag0
(g10
g2
Ntp601
Rp602
(dp603
g14
g107
sg16
(lp604
F0.48020000000000002
asg18
(lp605
(lp606
F1.0
aasg22
VAL
p607
sbag0
(g10
g2
Ntp608
Rp609
(dp610
g14
g107
sg16
(lp611
F0.15379999999999999
asg18
(lp612
(lp613
F1.0
aasg22
VAL
p614
sbasVO
p615
(lp616
g0
(g10
g2
Ntp617
Rp618
(dp619
g14
g15
sg16
(lp620
F61420.0
aF9199.0
aF2091.0
aF590.89999999999998
aF192.30000000000001
aF69.319999999999993
aF26.969999999999999
aF11.1
aF4.6820000000000004
aF1.4279999999999999
aF0.55469999999999997
aF0.20669999999999999
asg18
(lp621
(lp622
F9.0000000000000006e-05
aF0.00069800000000000005
aF0.0036640000000000002
aF0.015218000000000001
aF0.052422999999999997
aF0.145921
aF0.30525799999999997
aF0.39850799999999997
aF0.21698000000000001
aF0.017593999999999999
aF-0.0025019999999999999
aF0.00095399999999999999
aa(lp623
F-2.0000000000000002e-05
aF-0.00015899999999999999
aF-0.00082899999999999998
aF-0.0035079999999999998
aF-0.012156
aF-0.036261000000000002
aF-0.082991999999999996
aF-0.15209
aF-0.115331
aF0.28897899999999999
aF0.58612799999999998
aF0.27762399999999998
aasg22
V O
p624
sbag0
(g10
g2
Ntp625
Rp626
(dp627
g14
g15
sg16
(lp628
F1.4279999999999999
asg18
(lp629
(lp630
F1.0
aasg22
g624
sbag0
(g10
g2
Ntp631
Rp632
(dp633
g14
g15
sg16
(lp634
F0.55469999999999997
asg18
(lp635
(lp636
F1.0
aasg22
g624
sbag0
(g10
g2
Ntp637
Rp638
(dp639
g14
g15
sg16
(lp640
F0.20669999999999999
asg18
(lp641
(lp642
F1.0
aasg22
g624
sbag0
(g10
g2
Ntp643
Rp644
(dp645
g14
g15
sg16
(lp646
F0.069589999999999999
asg18
(lp647
(lp648
F1.0
aasg22
g624
sbag0
(g10
g2
Ntp649
Rp650
(dp651
g14
g51
sg16
(lp652
F63.420000000000002
aF14.66
aF4.4589999999999996
aF1.5309999999999999
aF0.5302
aF0.17499999999999999
asg18
(lp653
(lp654
F0.0060439999999999999
aF0.041799000000000003
aF0.16114300000000001
aF0.35673100000000002
aF0.44830900000000001
aF0.24493999999999999
aasg22
g624
sbag0
(g10
g2
Ntp655
Rp656
(dp657
g14
g51
sg16
(lp658
F4.4589999999999996
asg18
(lp659
(lp660
F1.0
aasg22
g624
sbag0
(g10
g2
Ntp661
Rp662
(dp663
g14
g51
sg16
(lp664
F1.5309999999999999
asg18
(lp665
(lp666
F1.0
aasg22
g624
sbag0
(g10
g2
Ntp667
Rp668
(dp669
g14
g51
sg16
(lp670
F0.5302
asg18
(lp671
(lp672
F1.0
aasg22
g624
sbag0
(g10
g2
Ntp673
Rp674
(dp675
g14
g51
sg16
(lp676
F0.17499999999999999
asg18
(lp677
(lp678
F1.0
aasg22
g624
sbag0
(g10
g2
Ntp679
Rp680
(dp681
g14
g51
sg16
(lp682
F0.05348
asg18
(lp683
(lp684
F1.0
aasg22
g624
sbag0
(g10
g2
Ntp685
Rp686
(dp687
g14
g88
sg16
(lp688
F3.3422000000000001
asg18
(lp689
(lp690
F1.0
aasg22
g624
sbag0
(g10
g2
Ntp691
Rp692
(dp693
g14
g88
sg16
(lp694
F1.1491
asg18
(lp695
(lp696
F1.0
aasg22
g624
sbag0
(g10
g2
Ntp697
Rp698
(dp699
g14
g88
sg16
(lp700
F0.39510000000000001
asg18
(lp701
(lp702
F1.0
aasg22
g624
sbag0
(g10
g2
Ntp703
Rp704
(dp705
g14
g107
sg16
(lp706
F1.4956
asg18
(lp707
(lp708
F1.0
aasg22
g624
sbag0
(g10
g2
Ntp709
Rp710
(dp711
g14
g107
sg16
(lp712
F0.53790000000000004
asg18
(lp713
(lp714
F1.0
aasg22
g624
sbasVNE
p715
(lp716
g0
(g10
g2
Ntp717
Rp718
(dp719
g14
g15
sg16
(lp720
F99920.0
aF14960.0
aF3399.0
aF958.89999999999998
aF311.19999999999999
aF111.7
aF43.32
aF17.800000000000001
aF7.5030000000000001
aF2.3370000000000002
aF0.90010000000000001
aF0.3301
asg18
(lp721
(lp722
F8.6000000000000003e-05
aF0.000669
aF0.0035179999999999999
aF0.014666999999999999
aF0.050962
aF0.14374400000000001
aF0.304562
aF0.40010499999999999
aF0.21864400000000001
aF0.018664
aF-0.0021670000000000001
aF0.00095100000000000002
aa(lp723
F-2.0000000000000002e-05
aF-0.00015799999999999999
aF-0.00082399999999999997
aF-0.0035000000000000001
aF-0.012233000000000001
aF-0.037017000000000001
aF-0.086112999999999995
aF-0.15838099999999999
aF-0.114288
aF0.29819099999999998
aF0.58578399999999997
aF0.27246700000000001
aasg22
VNE
p724
sbag0
(g10
g2
Ntp725
Rp726
(dp727
g14
g15
sg16
(lp728
F2.3370000000000002
asg18
(lp729
(lp730
F1.0
aasg22
VNE
p731
sbag0
(g10
g2
Ntp732
Rp733
(dp734
g14
g15
sg16
(lp735
F0.90010000000000001
asg18
(lp736
(lp737
F1.0
aasg22
VNE
p738
sbag0
(g10
g2
Ntp739
Rp740
(dp741
g14
g15
sg16
(lp742
F0.3301
asg18
(lp743
(lp744
F1.0
aasg22
VNE
p745
sbag0
(g10
g2
Ntp746
Rp747
(dp748
g14
g15
sg16
(lp749
F0.10539999999999999
asg18
(lp750
(lp751
F1.0
aasg22
VNE
p752
sbag0
(g10
g2
Ntp753
Rp754
(dp755
g14
g51
sg16
(lp756
F99.680000000000007
aF23.149999999999999
aF7.1079999999999997
aF2.4409999999999998
aF0.83389999999999997
aF0.26619999999999999
asg18
(lp757
(lp758
F0.0065659999999999998
aF0.045978999999999999
aF0.17341899999999999
aF0.36457099999999998
aF0.43818499999999999
aF0.24168000000000001
aasg22
VNE
p759
sbag0
(g10
g2
Ntp760
Rp761
(dp762
g14
g51
sg16
(lp763
F7.1079999999999997
asg18
(lp764
(lp765
F1.0
aasg22
VNE
p766
sbag0
(g10
g2
Ntp767
Rp768
(dp769
g14
g51
sg16
(lp770
F2.4409999999999998
asg18
(lp771
(lp772
F1.0
aasg22
VNE
p773
sbag0
(g10
g2
Ntp774
Rp775
(dp776
g14
g51
sg16
(lp777
F0.83389999999999997
asg18
(lp778
(lp779
F1.0
aasg22
VNE
p780
sbag0
(g10
g2
Ntp781
Rp782
(dp783
g14
g51
sg16
(lp784
F0.26619999999999999
asg18
(lp785
(lp786
F1.0
aasg22
VNE
p787
sbag0
(g10
g2
Ntp788
Rp789
(dp790
g14
g51
sg16
(lp791
F0.081780000000000005
asg18
(lp792
(lp793
F1.0
aasg22
VNE
p794
sbag0
(g10
g2
Ntp795
Rp796
(dp797
g14
g88
sg16
(lp798
F6.7294999999999998
asg18
(lp799
(lp800
F1.0
aasg22
VNE
p801
sbag0
(g10
g2
Ntp802
Rp803
(dp804
g14
g88
sg16
(lp805
F2.0114000000000001
asg18
(lp806
(lp807
F1.0
aasg22
VNE
p808
sbag0
(g10
g2
Ntp809
Rp810
(dp811
g14
g88
sg16
(lp812
F0.60119999999999996
asg18
(lp813
(lp814
F1.0
aasg22
VNE
p815
sbag0
(g10
g2
Ntp816
Rp817
(dp818
g14
g107
sg16
(lp819
F4.1702000000000004
asg18
(lp820
(lp821
F1.0
aasg22
VNE
p822
sbag0
(g10
g2
Ntp823
Rp824
(dp825
g14
g107
sg16
(lp826
F0.94430000000000003
asg18
(lp827
(lp828
F1.0
aasg22
VNE
p829
sbasg51
(lp830
g0
(g10
g2
Ntp831
Rp832
(dp833
g14
g15
sg16
(lp834
F615200.0
aF92120.0
aF20950.0
aF5920.0
aF1922.0
aF688.0
aF265.0
aF108.2
aF46.219999999999999
aF20.23
aF7.859
aF3.5470000000000002
aF1.5640000000000001
aF0.48880000000000001
aF0.2266
aF0.093310000000000004
asg18
(lp835
(lp836
F2.4745000000000001e-05
aF0.00019246500000000001
aF0.00101202
aF0.0042726099999999996
aF0.0154161
aF0.048597599999999998
aF0.13006000000000001
aF0.27451399999999998
aF0.38540200000000002
aF0.25593399999999999
aF0.039123699999999997
aF-0.0036801
aF0.0020821099999999999
aF-0.00078847900000000002
aF0.00045405400000000001
aF-0.00012663999999999999
aa(lp837
F-6.7220500000000003e-06
aF-5.2231100000000002e-05
aF-0.00027536100000000001
aF-0.00116307
aF-0.0042428099999999996
aF-0.013611399999999999
aF-0.038511400000000001
aF-0.090664300000000003
aF-0.16658400000000001
aF-0.16144700000000001
aF0.14678099999999999
aF0.56668200000000002
aF0.416433
aF0.034384400000000002
aF-0.0078063799999999999
aF0.0019225900000000001
aa(lp838
F1.8474000000000001e-06
aF1.4338000000000001e-05
aF7.5722800000000006e-05
aF0.00031920499999999998
aF0.00116851
aF0.00374267
aF0.010681700000000001
aF0.025265699999999999
aF0.0479283
aF0.047709599999999998
aF-0.0466525
aF-0.23496800000000001
aF-0.31133699999999997
aF0.25710899999999998
aF0.65365499999999999
aF0.29421199999999997
aasg22
V P
p839
sbag0
(g10
g2
Ntp840
Rp841
(dp842
g14
g15
sg16
(lp843
F0.48880000000000001
asg18
(lp844
(lp845
F1.0
aasg22
g839
sbag0
(g10
g2
Ntp846
Rp847
(dp848
g14
g15
sg16
(lp849
F0.2266
asg18
(lp850
(lp851
F1.0
aasg22
g839
sbag0
(g10
g2
Ntp852
Rp853
(dp854
g14
g15
sg16
(lp855
F0.093310000000000004
asg18
(lp856
(lp857
F1.0
aasg22
g839
sbag0
(g10
g2
Ntp858
Rp859
(dp860
g14
g15
sg16
(lp861
F0.035400000000000001
asg18
(lp862
(lp863
F1.0
aasg22
g839
sbag0
(g10
g2
Ntp864
Rp865
(dp866
g14
g51
sg16
(lp867
F1367.0
aF324.0
aF104.59999999999999
aF39.369999999999997
aF16.260000000000002
aF7.056
aF3.1299999999999999
aF1.3939999999999999
aF0.51790000000000003
aF0.20319999999999999
aF0.076980000000000007
asg18
(lp868
(lp869
F0.00042101500000000001
aF0.00360985
aF0.0189217
aF0.070555999999999994
aF0.18815699999999999
aF0.33870899999999998
aF0.38194299999999998
aF0.19526099999999999
aF0.0199416
aF-0.00135121
aF0.00051714399999999998
aa(lp870
F-0.000100827
aF-0.00085449899999999999
aF-0.0045711600000000003
aF-0.017032700000000001
aF-0.047520399999999997
aF-0.085278599999999996
aF-0.109676
aF-0.0161181
aF0.32289299999999999
aF0.54573799999999995
aF0.268538
aasg22
g839
sbag0
(g10
g2
Ntp871
Rp872
(dp873
g14
g51
sg16
(lp874
F0.51790000000000003
asg18
(lp875
(lp876
F1.0
aasg22
g839
sbag0
(g10
g2
Ntp877
Rp878
(dp879
g14
g51
sg16
(lp880
F0.20319999999999999
asg18
(lp881
(lp882
F1.0
aasg22
g839
sbag0
(g10
g2
Ntp883
Rp884
(dp885
g14
g51
sg16
(lp886
F0.076980000000000007
asg18
(lp887
(lp888
F1.0
aasg22
g839
sbag0
(g10
g2
Ntp889
Rp890
(dp891
g14
g51
sg16
(lp892
F0.027199999999999998
asg18
(lp893
(lp894
F1.0
aasg22
g839
sbag0
(g10
g2
Ntp895
Rp896
(dp897
g14
g51
sg16
(lp898
F4.1822999999999997
asg18
(lp899
(lp900
F1.0
aasg22
g839
sbag0
(g10
g2
Ntp901
Rp902
(dp903
g14
g88
sg16
(lp904
F6.0350000000000001
asg18
(lp905
(lp906
F1.0
aasg22
g839
sbag0
(g10
g2
Ntp907
Rp908
(dp909
g14
g88
sg16
(lp910
F1.3918999999999999
asg18
(lp911
(lp912
F1.0
aasg22
g839
sbag0
(g10
g2
Ntp913
Rp914
(dp915
g14
g88
sg16
(lp916
F0.4824
asg18
(lp917
(lp918
F1.0
aasg22
g839
sbag0
(g10
g2
Ntp919
Rp920
(dp921
g14
g88
sg16
(lp922
F0.182
asg18
(lp923
(lp924
F1.0
aasg22
g839
sbag0
(g10
g2
Ntp925
Rp926
(dp927
g14
g107
sg16
(lp928
F0.73309999999999997
asg18
(lp929
(lp930
F1.0
aasg22
g839
sbag0
(g10
g2
Ntp931
Rp932
(dp933
g14
g107
sg16
(lp934
F0.25219999999999998
asg18
(lp935
(lp936
F1.0
aasg22
g839
sbasg15
(lp937
g0
(g10
g2
Ntp938
Rp939
(dp940
g14
g15
sg16
(lp941
F727800.0
aF109000.0
aF24800.0
aF7014.0
aF2278.0
aF814.70000000000005
aF313.39999999999998
aF127.7
aF54.479999999999997
aF23.850000000000001
aF9.4280000000000008
aF4.29
aF1.909
aF0.627
aF0.2873
aF0.1172
asg18
(lp942
(lp943
F2.36025e-05
aF0.000183482
aF0.00096427800000000005
aF0.0040653699999999996
aF0.0146973
aF0.046508099999999997
aF0.12550800000000001
aF0.26843299999999998
aF0.38480900000000001
aF0.265372
aF0.043732600000000003
aF-0.0037880700000000002
aF0.0021808299999999999
aF-0.00083694399999999995
aF0.00044808800000000002
aF-0.00012529300000000001
aa(lp944
F-6.5217900000000001e-06
aF-5.0663099999999999e-05
aF-0.00026683300000000001
aF-0.00112601
aF-0.0041118600000000002
aF-0.013245399999999999
aF-0.037700400000000002
aF-0.089855400000000002
aF-0.167098
aF-0.169354
aF0.12782399999999999
aF0.56486199999999998
aF0.43176700000000001
aF0.038939799999999997
aF-0.0073026000000000002
aF0.0019232699999999999
aa(lp945
F1.89406e-06
aF1.46948e-05
aF7.7546000000000006e-05
aF0.000326509
aF0.0011968599999999999
aF0.0038479899999999999
aF0.0110539
aF0.026464499999999998
aF0.050877100000000001
aF0.053003000000000002
aF-0.042551800000000001
aF-0.25085299999999999
aF-0.333152
aF0.26379599999999997
aF0.66684900000000003
aF0.28845100000000001
aasg22
V S
p946
sbag0
(g10
g2
Ntp947
Rp948
(dp949
g14
g15
sg16
(lp950
F0.627
asg18
(lp951
(lp952
F1.0
aasg22
g946
sbag0
(g10
g2
Ntp953
Rp954
(dp955
g14
g15
sg16
(lp956
F0.2873
asg18
(lp957
(lp958
F1.0
aasg22
g946
sbag0
(g10
g2
Ntp959
Rp960
(dp961
g14
g15
sg16
(lp962
F0.1172
asg18
(lp963
(lp964
F1.0
aasg22
g946
sbag0
(g10
g2
Ntp965
Rp966
(dp967
g14
g15
sg16
(lp968
F0.042799999999999998
asg18
(lp969
(lp970
F1.0
aasg22
g946
sbag0
(g10
g2
Ntp971
Rp972
(dp973
g14
g51
sg16
(lp974
F1546.0
aF366.39999999999998
aF118.40000000000001
aF44.530000000000001
aF18.379999999999999
aF7.9649999999999999
aF3.5409999999999999
aF1.591
aF0.62050000000000005
aF0.24199999999999999
aF0.090139999999999998
asg18
(lp975
(lp976
F0.00044118299999999999
aF0.0037757099999999998
aF0.019835999999999999
aF0.074206300000000003
aF0.197327
aF0.35185100000000002
aF0.378687
aF0.170931
aF0.015158700000000001
aF6.7198099999999996e-05
aF0.00040549100000000001
aa(lp977
F-0.00011311000000000001
aF-0.00095858100000000002
aF-0.0051347099999999998
aF-0.019264099999999999
aF-0.053598
aF-0.096033300000000002
aF-0.118183
aF0.0092319399999999992
aF0.35884100000000002
aF0.52581800000000001
aF0.24887200000000001
aasg22
g946
sbag0
(g10
g2
Ntp978
Rp979
(dp980
g14
g51
sg16
(lp981
F0.62050000000000005
asg18
(lp982
(lp983
F1.0
aasg22
g946
sbag0
(g10
g2
Ntp984
Rp985
(dp986
g14
g51
sg16
(lp987
F0.24199999999999999
asg18
(lp988
(lp989
F1.0
aasg22
g946
sbag0
(g10
g2
Ntp990
Rp991
(dp992
g14
g51
sg16
(lp993
F0.090139999999999998
asg18
(lp994
(lp995
F1.0
aasg22
g946
sbag0
(g10
g2
Ntp996
Rp997
(dp998
g14
g51
sg16
(lp999
F0.031699999999999999
asg18
(lp1000
(lp1001
F1.0
aasg22
g946
sbag0
(g10
g2
Ntp1002
Rp1003
(dp1004
g14
g51
sg16
(lp1005
F5.0019
asg18
(lp1006
(lp1007
F1.0
aasg22
g946
sbag0
(g10
g2
Ntp1008
Rp1009
(dp1010
g14
g88
sg16
(lp1011
F8.7485999999999997
asg18
(lp1012
(lp1013
F1.0
aasg22
g946
sbag0
(g10
g2
Ntp1014
Rp1015
(dp1016
g14
g88
sg16
(lp1017
F2.0766
asg18
(lp1018
(lp1019
F1.0
aasg22
g946
sbag0
(g10
g2
Ntp1020
Rp1021
(dp1022
g14
g88
sg16
(lp1023
F0.60440000000000005
asg18
(lp1024
(lp1025
F1.0
aasg22
g946
sbag0
(g10
g2
Ntp1026
Rp1027
(dp1028
g14
g88
sg16
(lp1029
F0.21990000000000001
asg18
(lp1030
(lp1031
F1.0
aasg22
g946
sbag0
(g10
g2
Ntp1032
Rp1033
(dp1034
g14
g107
sg16
(lp1035
F0.76280000000000003
asg18
(lp1036
(lp1037
F1.0
aasg22
g946
sbag0
(g10
g2
Ntp1038
Rp1039
(dp1040
g14
g107
sg16
(lp1041
F0.27760000000000001
asg18
(lp1042
(lp1043
F1.0
aasg22
g946
sbasVAR
p1044
(lp1045
g0
(g10
g2
Ntp1046
Rp1047
(dp1048
g14
g15
sg16
(lp1049
F950600.0
aF142300.0
aF32360.0
aF9145.0
aF2970.0
aF1064.0
aF410.80000000000001
aF168.0
aF71.989999999999995
aF31.670000000000002
aF12.890000000000001
aF5.9290000000000003
aF2.6779999999999999
aF0.94159999999999999
aF0.4239
aF0.1714
asg18
(lp1050
(lp1051
F2.27545e-05
aF0.00017694499999999999
aF0.00093128199999999996
aF0.0039286
aF0.014206399999999999
aF0.044811400000000001
aF0.121001
aF0.26057900000000001
aF0.38136399999999998
aF0.27605800000000003
aF0.050517899999999998
aF-0.0035986600000000001
aF0.00218798
aF-0.00086235900000000004
aF0.00040522600000000001
aF-0.00011616300000000001
aa(lp1052
F-6.46201e-06
aF-5.0234600000000002e-05
aF-0.00026480399999999999
aF-0.0011189500000000001
aF-0.0040827600000000004
aF-0.013121600000000001
aF-0.037285499999999999
aF-0.089470900000000006
aF-0.16805400000000001
aF-0.179594
aF0.102953
aF0.56262999999999996
aF0.45035500000000001
aF0.046060700000000003
aF-0.0060369100000000004
aF0.00188744
aa(lp1053
F2.0205599999999999e-06
aF1.56851e-05
aF8.28617e-05
aF0.00034926400000000001
aF0.00127976
aF0.0041036500000000004
aF0.0117789
aF0.0283868
aF0.055240600000000001
aF0.060749200000000003
aF-0.036201200000000003
aF-0.27539799999999998
aF-0.36284499999999997
aF0.27311800000000003
aF0.68289900000000003
aF0.28341699999999997
aasg22
VAR
p1054
sbag0
(g10
g2
Ntp1055
Rp1056
(dp1057
g14
g15
sg16
(lp1058
F0.94159999999999999
asg18
(lp1059
(lp1060
F1.0
aasg22
VAR
p1061
sbag0
(g10
g2
Ntp1062
Rp1063
(dp1064
g14
g15
sg16
(lp1065
F0.4239
asg18
(lp1066
(lp1067
F1.0
aasg22
VAR
p1068
sbag0
(g10
g2
Ntp1069
Rp1070
(dp1071
g14
g15
sg16
(lp1072
F0.1714
asg18
(lp1073
(lp1074
F1.0
aasg22
VAR
p1075
sbag0
(g10
g2
Ntp1076
Rp1077
(dp1078
g14
g15
sg16
(lp1079
F0.060999999999999999
asg18
(lp1080
(lp1081
F1.0
aasg22
VAR
p1082
sbag0
(g10
g2
Ntp1083
Rp1084
(dp1085
g14
g51
sg16
(lp1086
F1890.0
aF447.80000000000001
aF144.59999999999999
aF54.460000000000001
aF22.510000000000002
aF9.7739999999999991
aF4.3680000000000003
aF1.9590000000000001
aF0.82599999999999996
aF0.32969999999999999
aF0.1242
asg18
(lp1087
(lp1088
F0.00049575200000000002
aF0.0042517199999999996
aF0.022327699999999999
aF0.083087800000000003
aF0.21711
aF0.37450699999999998
aF0.36644500000000002
aF0.129245
aF0.0069224899999999999
aF0.00083614900000000001
aF-0.00015266600000000001
aa(lp1089
F-0.000138863
aF-0.0011887
aF-0.0063255300000000002
aF-0.023881300000000001
aF-0.064923800000000004
aF-0.115444
aF-0.123651
aF0.064905500000000005
aF0.40363300000000002
aF0.49059199999999997
aF0.20852799999999999
aasg22
VAR
p1090
sbag0
(g10
g2
Ntp1091
Rp1092
(dp1093
g14
g51
sg16
(lp1094
F0.82599999999999996
asg18
(lp1095
(lp1096
F1.0
aasg22
VAR
p1097
sbag0
(g10
g2
Ntp1098
Rp1099
(dp1100
g14
g51
sg16
(lp1101
F0.32969999999999999
asg18
(lp1102
(lp1103
F1.0
aasg22
VAR
p1104
sbag0
(g10
g2
Ntp1105
Rp1106
(dp1107
g14
g51
sg16
(lp1108
F0.1242
asg18
(lp1109
(lp1110
F1.0
aasg22
VAR
p1111
sbag0
(g10
g2
Ntp1112
Rp1113
(dp1114
g14
g51
sg16
(lp1115
F0.043499999999999997
asg18
(lp1116
(lp1117
F1.0
aasg22
VAR
p1118
sbag0
(g10
g2
Ntp1119
Rp1120
(dp1121
g14
g51
sg16
(lp1122
F6.3209
asg18
(lp1123
(lp1124
F1.0
aasg22
VAR
p1125
sbag0
(g10
g2
Ntp1126
Rp1127
(dp1128
g14
g88
sg16
(lp1129
F12.686
asg18
(lp1130
(lp1131
F1.0
aasg22
VAR
p1132
sbag0
(g10
g2
Ntp1133
Rp1134
(dp1135
g14
g88
sg16
(lp1136
F3.0405000000000002
asg18
(lp1137
(lp1138
F1.0
aasg22
VAR
p1139
sbag0
(g10
g2
Ntp1140
Rp1141
(dp1142
g14
g88
sg16
(lp1143
F0.8085
asg18
(lp1144
(lp1145
F1.0
aasg22
VAR
p1146
sbag0
(g10
g2
Ntp1147
Rp1148
(dp1149
g14
g88
sg16
(lp1150
F0.28639999999999999
asg18
(lp1151
(lp1152
F1.0
aasg22
VAR
p1153
sbag0
(g10
g2
Ntp1154
Rp1155
(dp1156
g14
g107
sg16
(lp1157
F1.1691
asg18
(lp1158
(lp1159
F1.0
aasg22
VAR
p1160
sbag0
(g10
g2
Ntp1161
Rp1162
(dp1163
g14
g107
sg16
(lp1164
F0.40060000000000001
asg18
(lp1165
(lp1166
F1.0
aasg22
VAR
p1167
sbasVN
p1168
(lp1169
g0
(g10
g2
Ntp1170
Rp1171
(dp1172
g14
g15
sg16
(lp1173
F45840.0
aF6868.0
aF1563.0
aF442.39999999999998
aF144.30000000000001
aF52.18
aF20.34
aF8.3810000000000002
aF3.5289999999999999
aF1.054
aF0.4118
aF0.1552
asg18
(lp1174
(lp1175
F9.2e-05
aF0.00071699999999999997
aF0.0037490000000000002
aF0.015532000000000001
aF0.053145999999999999
aF0.146787
aF0.30466300000000002
aF0.39768399999999998
aF0.217641
aF0.016962999999999999
aF-0.002745
aF0.00095299999999999996
aa(lp1176
F-2.0000000000000002e-05
aF-0.00015899999999999999
aF-0.00082399999999999997
aF-0.0034780000000000002
aF-0.011965999999999999
aF-0.035388000000000003
aF-0.080076999999999995
aF-0.14672199999999999
aF-0.11636000000000001
aF0.27991899999999997
aF0.58548100000000003
aF0.284028
aasg22
V N
p1177
sbag0
(g10
g2
Ntp1178
Rp1179
(dp1180
g14
g15
sg16
(lp1181
F1.054
asg18
(lp1182
(lp1183
F1.0
aasg22
g1177
sbag0
(g10
g2
Ntp1184
Rp1185
(dp1186
g14
g15
sg16
(lp1187
F0.4118
asg18
(lp1188
(lp1189
F1.0
aasg22
g1177
sbag0
(g10
g2
Ntp1190
Rp1191
(dp1192
g14
g15
sg16
(lp1193
F0.1552
asg18
(lp1194
(lp1195
F1.0
aasg22
g1177
sbag0
(g10
g2
Ntp1196
Rp1197
(dp1198
g14
g15
sg16
(lp1199
F0.054640000000000001
asg18
(lp1200
(lp1201
F1.0
aasg22
g1177
sbag0
(g10
g2
Ntp1202
Rp1203
(dp1204
g14
g51
sg16
(lp1205
F49.329999999999998
aF11.369999999999999
aF3.4350000000000001
aF1.1819999999999999
aF0.4173
aF0.14280000000000001
asg18
(lp1206
(lp1207
F0.0055329999999999997
aF0.037962000000000003
aF0.14902799999999999
aF0.34892200000000001
aF0.45897199999999999
aF0.244923
aasg22
g1177
sbag0
(g10
g2
Ntp1208
Rp1209
(dp1210
g14
g51
sg16
(lp1211
F3.4350000000000001
asg18
(lp1212
(lp1213
F1.0
aasg22
g1177
sbag0
(g10
g2
Ntp1214
Rp1215
(dp1216
g14
g51
sg16
(lp1217
F1.1819999999999999
asg18
(lp1218
(lp1219
F1.0
aasg22
g1177
sbag0
(g10
g2
Ntp1220
Rp1221
(dp1222
g14
g51
sg16
(lp1223
F0.4173
asg18
(lp1224
(lp1225
F1.0
aasg22
g1177
sbag0
(g10
g2
Ntp1226
Rp1227
(dp1228
g14
g51
sg16
(lp1229
F0.14280000000000001
asg18
(lp1230
(lp1231
F1.0
aasg22
g1177
sbag0
(g10
g2
Ntp1232
Rp1233
(dp1234
g14
g51
sg16
(lp1235
F0.044019999999999997
asg18
(lp1236
(lp1237
F1.0
aasg22
g1177
sbag0
(g10
g2
Ntp1238
Rp1239
(dp1240
g14
g88
sg16
(lp1241
F3.0520999999999998
asg18
(lp1242
(lp1243
F1.0
aasg22
g1177
sbag0
(g10
g2
Ntp1244
Rp1245
(dp1246
g14
g88
sg16
(lp1247
F1.0392999999999999
asg18
(lp1248
(lp1249
F1.0
aasg22
g1177
sbag0
(g10
g2
Ntp1250
Rp1251
(dp1252
g14
g88
sg16
(lp1253
F0.35389999999999999
asg18
(lp1254
(lp1255
F1.0
aasg22
g1177
sbag0
(g10
g2
Ntp1256
Rp1257
(dp1258
g14
g107
sg16
(lp1259
F1.3498000000000001
asg18
(lp1260
(lp1261
F1.0
aasg22
g1177
sbag0
(g10
g2
Ntp1262
Rp1263
(dp1264
g14
g107
sg16
(lp1265
F0.46379999999999999
asg18
(lp1266
(lp1267
F1.0
aasg22
g1177
sbasVHE
p1268
(lp1269
g0
(g10
g2
Ntp1270
Rp1271
(dp1272
g14
g15
sg16
(lp1273
F528.5
aF79.310000000000002
aF18.050000000000001
aF5.085
aF1.609
aF0.5363
aF0.18329999999999999
asg18
(lp1274
(lp1275
F0.00093999999999999997
aF0.0072139999999999999
aF0.035975
aF0.12778200000000001
aF0.30847000000000002
aF0.45305200000000001
aF0.23888400000000001
aasg22
VHE
p1276
sbag0
(g10
g2
Ntp1277
Rp1278
(dp1279
g14
g15
sg16
(lp1280
F1.609
asg18
(lp1281
(lp1282
F1.0
aasg22
VHE
p1283
sbag0
(g10
g2
Ntp1284
Rp1285
(dp1286
g14
g15
sg16
(lp1287
F0.5363
asg18
(lp1288
(lp1289
F1.0
aasg22
VHE
p1290
sbag0
(g10
g2
Ntp1291
Rp1292
(dp1293
g14
g15
sg16
(lp1294
F0.18329999999999999
asg18
(lp1295
(lp1296
F1.0
aasg22
VHE
p1297
sbag0
(g10
g2
Ntp1298
Rp1299
(dp1300
g14
g15
sg16
(lp1301
F0.048189999999999997
asg18
(lp1302
(lp1303
F1.0
aasg22
VHE
p1304
sbag0
(g10
g2
Ntp1305
Rp1306
(dp1307
g14
g51
sg16
(lp1308
F3.7025999999999999
asg18
(lp1309
(lp1310
F1.0
aasg22
VHE
p1311
sbag0
(g10
g2
Ntp1312
Rp1313
(dp1314
g14
g51
sg16
(lp1315
F1.2283999999999999
asg18
(lp1316
(lp1317
F1.0
aasg22
VHE
p1318
sbag0
(g10
g2
Ntp1319
Rp1320
(dp1321
g14
g51
sg16
(lp1322
F0.40749999999999997
asg18
(lp1323
(lp1324
F1.0
aasg22
VHE
p1325
sbag0
(g10
g2
Ntp1326
Rp1327
(dp1328
g14
g88
sg16
(lp1329
F0.65249999999999997
asg18
(lp1330
(lp1331
F1.0
aasg22
VHE
p1332
sbasVSI
p1333
(lp1334
g0
(g10
g2
Ntp1335
Rp1336
(dp1337
g14
g15
sg16
(lp1338
F513000.0
aF76820.0
aF17470.0
aF4935.0
aF1602.0
aF574.10000000000002
aF221.5
aF90.540000000000006
aF38.740000000000002
aF16.949999999999999
aF6.452
aF2.8740000000000001
aF1.25
aF0.3599
aF0.1699
aF0.070660000000000001
asg18
(lp1339
(lp1340
F2.6092e-05
aF0.000202905
aF0.00106715
aF0.0045059699999999998
aF0.016235900000000001
aF0.0508913
aF0.135155
aF0.28129199999999999
aF0.38533600000000001
aF0.24565100000000001
aF0.034314499999999998
aF-0.0033488400000000001
aF0.0018762500000000001
aF-0.00069332699999999998
aF0.00043830799999999999
aF-0.00012261600000000001
aa(lp1341
F-6.9488000000000003e-06
aF-5.3964100000000001e-05
aF-0.00028471600000000002
aF-0.00120203
aF-0.0043839700000000001
aF-0.0139776
aF-0.0393516
aF-0.091428300000000004
aF-0.16560900000000001
aF-0.152505
aF0.16852400000000001
aF0.56928400000000001
aF0.39805600000000002
aF0.0291509
aF-0.0084897600000000007
aF0.0019960300000000002
aa(lp1342
F1.78068e-06
aF1.38148e-05
aF7.3000499999999993e-05
aF0.00030766600000000001
aF0.0011256300000000001
aF0.00358435
aF0.010172799999999999
aF0.023751999999999999
aF0.0443483
aF0.0419041
aF-0.050250400000000001
aF-0.21657799999999999
aF-0.28644799999999998
aF0.26325599999999999
aF0.63490000000000002
aF0.29083199999999998
aasg22
VSI
p1343
sbag0
(g10
g2
Ntp1344
Rp1345
(dp1346
g14
g15
sg16
(lp1347
F0.3599
asg18
(lp1348
(lp1349
F1.0
aasg22
VSI
p1350
sbag0
(g10
g2
Ntp1351
Rp1352
(dp1353
g14
g15
sg16
(lp1354
F0.1699
asg18
(lp1355
(lp1356
F1.0
aasg22
VSI
p1357
sbag0
(g10
g2
Ntp1358
Rp1359
(dp1360
g14
g15
sg16
(lp1361
F0.070660000000000001
asg18
(lp1362
(lp1363
F1.0
aasg22
VSI
p1364
sbag0
(g10
g2
Ntp1365
Rp1366
(dp1367
g14
g15
sg16
(lp1368
F0.0275
asg18
(lp1369
(lp1370
F1.0
aasg22
VSI
p1371
sbag0
(g10
g2
Ntp1372
Rp1373
(dp1374
g14
g51
sg16
(lp1375
F1122.0
aF266.0
aF85.920000000000002
aF32.329999999999998
aF13.369999999999999
aF5.7999999999999998
aF2.5590000000000002
aF1.1240000000000001
aF0.39879999999999999
aF0.15329999999999999
aF0.057279999999999998
asg18
(lp1376
(lp1377
F0.00044814300000000002
aF0.0038163899999999998
aF0.019810500000000002
aF0.072701699999999994
aF0.18983900000000001
aF0.33567200000000003
aF0.37936500000000001
aF0.20119300000000001
aF0.020851499999999999
aF-0.00170258
aF0.00075004800000000001
aa(lp1378
F-9.6488299999999996e-05
aF-0.00081197099999999998
aF-0.00430087
aF-0.015750199999999999
aF-0.042954100000000002
aF-0.075257400000000002
aF-0.097144599999999998
aF-0.022750699999999999
aF0.29198800000000003
aF0.55066999999999999
aF0.29761799999999999
aasg22
VSI
p1379
sbag0
(g10
g2
Ntp1380
Rp1381
(dp1382
g14
g51
sg16
(lp1383
F0.39879999999999999
asg18
(lp1384
(lp1385
F1.0
aasg22
VSI
p1386
sbag0
(g10
g2
Ntp1387
Rp1388
(dp1389
g14
g51
sg16
(lp1390
F0.15329999999999999
asg18
(lp1391
(lp1392
F1.0
aasg22
VSI
p1393
sbag0
(g10
g2
Ntp1394
Rp1395
(dp1396
g14
g51
sg16
(lp1397
F0.057279999999999998
asg18
(lp1398
(lp1399
F1.0
aasg22
VSI
p1400
sbag0
(g10
g2
Ntp1401
Rp1402
(dp1403
g14
g51
sg16
(lp1404
F0.02
asg18
(lp1405
(lp1406
F1.0
aasg22
VSI
p1407
sbag0
(g10
g2
Ntp1408
Rp1409
(dp1410
g14
g51
sg16
(lp1411
F3.5478000000000001
asg18
(lp1412
(lp1413
F1.0
aasg22
VSI
p1414
sbag0
(g10
g2
Ntp1415
Rp1416
(dp1417
g14
g88
sg16
(lp1418
F4.3231999999999999
asg18
(lp1419
(lp1420
F1.0
aasg22
VSI
p1421
sbag0
(g10
g2
Ntp1422
Rp1423
(dp1424
g14
g88
sg16
(lp1425
F0.95909999999999995
asg18
(lp1426
(lp1427
F1.0
aasg22
VSI
p1428
sbag0
(g10
g2
Ntp1429
Rp1430
(dp1431
g14
g88
sg16
(lp1432
F0.35599999999999998
asg18
(lp1433
(lp1434
F1.0
aasg22
VSI
p1435
sbag0
(g10
g2
Ntp1436
Rp1437
(dp1438
g14
g88
sg16
(lp1439
F0.1394
asg18
(lp1440
(lp1441
F1.0
aasg22
VSI
p1442
sbag0
(g10
g2
Ntp1443
Rp1444
(dp1445
g14
g107
sg16
(lp1446
F0.62270000000000003
asg18
(lp1447
(lp1448
F1.0
aasg22
VSI
p1449
sbag0
(g10
g2
Ntp1450
Rp1451
(dp1452
g14
g107
sg16
(lp1453
F0.21410000000000001
asg18
(lp1454
(lp1455
F1.0
aasg22
VSI
p1456
sbassb.