ccopy_reg
_reconstructor
p0
(cbasisset
BasisSet
p1
c__builtin__
object
p2
Ntp3
Rp4
(dp5
S'basisDictionary'
p6
(dp7
VC
p8
(lp9
g0
(cbasisset
Shell
p10
g2
Ntp11
Rp12
(dp13
S'angularMomentum'
p14
VS
p15
sS'exponents'
p16
(lp17
F8236.0
aF1235.0
aF280.80000000000001
aF79.269999999999996
aF25.59
aF8.9969999999999999
aF3.319
aF0.90590000000000004
aF0.36430000000000001
aF0.1285
asS'coefficients'
p18
(lp19
(lp20
F0.000531
aF0.0041079999999999997
aF0.021087000000000002
aF0.081852999999999995
aF0.234817
aF0.43440099999999998
aF0.34612900000000002
aF0.039378000000000003
aF-0.0089829999999999997
aF0.002385
aa(lp21
F-0.000113
aF-0.00087799999999999998
aF-0.0045399999999999998
aF-0.018133
aF-0.055759999999999997
aF-0.12689500000000001
aF-0.170352
aF0.14038200000000001
aF0.59868399999999999
aF0.39538899999999999
aasS'atom'
p22
V C
p23
sbag0
(g10
g2
Ntp24
Rp25
(dp26
g14
g15
sg16
(lp27
F0.90590000000000004
asg18
(lp28
(lp29
F1.0
aasg22
g23
sbag0
(g10
g2
Ntp30
Rp31
(dp32
g14
g15
sg16
(lp33
F0.1285
asg18
(lp34
(lp35
F1.0
aasg22
g23
sbag0
(g10
g2
Ntp36
Rp37
(dp38
g14
g15
sg16
(lp39
F0.044019999999999997
asg18
(lp40
(lp41
F1.0
aasg22
g23
sbag0
(g10
g2
Ntp42
Rp43
(dp44
g14
VP
p45
sg16
(lp46
F18.710000000000001
aF4.133
aF1.2
aF0.38269999999999998
aF0.12089999999999999
asg18
(lp47
(lp48
F0.014031
aF0.086865999999999999
aF0.29021599999999997
aF0.50100800000000001
aF0.34340599999999999
aasg22
g23
sbag0
(g10
g2
Ntp49
Rp50
(dp51
g14
g45
sg16
(lp52
F1.2
asg18
(lp53
(lp54
F1.0
aasg22
g23
sbag0
(g10
g2
Ntp55
Rp56
(dp57
g14
g45
sg16
(lp58
F0.38269999999999998
asg18
(lp59
(lp60
F1.0
aasg22
g23
sbag0
(g10
g2
Ntp61
Rp62
(dp63
g14
g45
sg16
(lp64
F0.12089999999999999
asg18
(lp65
(lp66
F1.0
aasg22
g23
sbag0
(g10
g2
Ntp67
Rp68
(dp69
g14
g45
sg16
(lp70
F0.03569
asg18
(lp71
(lp72
F1.0
aasg22
g23
sbag0
(g10
g2
Ntp73
Rp74
(dp75
g14
VD
p76
sg16
(lp77
F0.99460000000000004
asg18
(lp78
(lp79
F1.0
aasg22
g23
sbag0
(g10
g2
Ntp80
Rp81
(dp82
g14
g76
sg16
(lp83
F0.29770000000000002
asg18
(lp84
(lp85
F1.0
aasg22
g23
sbasVB
p86
(lp87
g0
(g10
g2
Ntp88
Rp89
(dp90
g14
g15
sg16
(lp91
F5473.0
aF820.89999999999998
aF186.80000000000001
aF52.829999999999998
aF17.079999999999998
aF5.9989999999999997
aF2.2080000000000002
aF0.58789999999999998
aF0.24149999999999999
aF0.086099999999999996
asg18
(lp92
(lp93
F0.00055500000000000005
aF0.0042909999999999997
aF0.021949
aF0.084441000000000002
aF0.23855699999999999
aF0.43507200000000001
aF0.34195500000000001
aF0.036856
aF-0.0095449999999999997
aF0.0023679999999999999
aa(lp94
F-0.000112
aF-0.00086799999999999996
aF-0.0044840000000000001
aF-0.017683000000000001
aF-0.053638999999999999
aF-0.119005
aF-0.165824
aF0.12010700000000001
aF0.59598099999999998
aF0.41102100000000003
aasg22
V B
p95
sbag0
(g10
g2
Ntp96
Rp97
(dp98
g14
g15
sg16
(lp99
F0.58789999999999998
asg18
(lp100
(lp101
F1.0
aasg22
g95
sbag0
(g10
g2
Ntp102
Rp103
(dp104
g14
g15
sg16
(lp105
F0.086099999999999996
asg18
(lp106
(lp107
F1.0
aasg22
g95
sbag0
(g10
g2
Ntp108
Rp109
(dp110
g14
g15
sg16
(lp111
F0.029139999999999999
asg18
(lp112
(lp113
F1.0
aasg22
g95
sbag0
(g10
g2
Ntp114
Rp115
(dp116
g14
g45
sg16
(lp117
F12.050000000000001
aF2.613
aF0.74750000000000005
aF0.23849999999999999
aF0.076980000000000007
asg18
(lp118
(lp119
F0.013117999999999999
aF0.079895999999999995
aF0.27727499999999999
aF0.50427
aF0.35367999999999999
aasg22
g95
sbag0
(g10
g2
Ntp120
Rp121
(dp122
g14
g45
sg16
(lp123
F0.74750000000000005
asg18
(lp124
(lp125
F1.0
aasg22
g95
sbag0
(g10
g2
Ntp126
Rp127
(dp128
g14
g45
sg16
(lp129
F0.23849999999999999
asg18
(lp130
(lp131
F1.0
aasg22
g95
sbag0
(g10
g2
Ntp132
Rp133
(dp134
g14
g45
sg16
(lp135
F0.076980000000000007
asg18
(lp136
(lp137
F1.0
aasg22
g95
sbag0
(g10
g2
Ntp138
Rp139
(dp140
g14
g45
sg16
(lp141
F0.020959999999999999
asg18
(lp142
(lp143
F1.0
aasg22
g95
sbag0
(g10
g2
Ntp144
Rp145
(dp146
g14
g76
sg16
(lp147
F0.84240000000000004
asg18
(lp148
(lp149
F1.0
aasg22
g95
sbag0
(g10
g2
Ntp150
Rp151
(dp152
g14
g76
sg16
(lp153
F0.24340000000000001
asg18
(lp154
(lp155
F1.0
aasg22
g95
sbasVF
p156
(lp157
g0
(g10
g2
Ntp158
Rp159
(dp160
g14
g15
sg16
(lp161
F19500.0
aF2923.0
aF664.5
aF187.5
aF60.619999999999997
aF21.420000000000002
aF7.9500000000000002
aF2.2570000000000001
aF0.88149999999999995
aF0.30409999999999998
asg18
(lp162
(lp163
F0.00050699999999999996
aF0.0039230000000000003
aF0.020199999999999999
aF0.079009999999999997
aF0.230439
aF0.43287199999999998
aF0.349964
aF0.043233000000000001
aF-0.0078919999999999997
aF0.0023839999999999998
aa(lp164
F-0.000117
aF-0.00091200000000000005
aF-0.0047169999999999998
aF-0.019085999999999999
aF-0.059655
aF-0.14001
aF-0.17678199999999999
aF0.171625
aF0.605043
aF0.36951200000000001
aasg22
V F
p165
sbag0
(g10
g2
Ntp166
Rp167
(dp168
g14
g15
sg16
(lp169
F2.2570000000000001
asg18
(lp170
(lp171
F1.0
aasg22
g165
sbag0
(g10
g2
Ntp172
Rp173
(dp174
g14
g15
sg16
(lp175
F0.30409999999999998
asg18
(lp176
(lp177
F1.0
aasg22
g165
sbag0
(g10
g2
Ntp178
Rp179
(dp180
g14
g15
sg16
(lp181
F0.091579999999999995
asg18
(lp182
(lp183
F1.0
aasg22
g165
sbag0
(g10
g2
Ntp184
Rp185
(dp186
g14
g45
sg16
(lp187
F43.880000000000003
aF9.9260000000000002
aF2.9300000000000002
aF0.91320000000000001
aF0.26719999999999999
asg18
(lp188
(lp189
F0.016664999999999999
aF0.104472
aF0.31725999999999999
aF0.48734300000000003
aF0.33460400000000001
aasg22
g165
sbag0
(g10
g2
Ntp190
Rp191
(dp192
g14
g45
sg16
(lp193
F2.9300000000000002
asg18
(lp194
(lp195
F1.0
aasg22
g165
sbag0
(g10
g2
Ntp196
Rp197
(dp198
g14
g45
sg16
(lp199
F0.91320000000000001
asg18
(lp200
(lp201
F1.0
aasg22
g165
sbag0
(g10
g2
Ntp202
Rp203
(dp204
g14
g45
sg16
(lp205
F0.26719999999999999
asg18
(lp206
(lp207
F1.0
aasg22
g165
sbag0
(g10
g2
Ntp208
Rp209
(dp210
g14
g45
sg16
(lp211
F0.073609999999999995
asg18
(lp212
(lp213
F1.0
aasg22
g165
sbag0
(g10
g2
Ntp214
Rp215
(dp216
g14
g76
sg16
(lp217
F1.9182999999999999
asg18
(lp218
(lp219
F1.0
aasg22
g165
sbag0
(g10
g2
Ntp220
Rp221
(dp222
g14
g76
sg16
(lp223
F0.58460000000000001
asg18
(lp224
(lp225
F1.0
aasg22
g165
sbasVH
p226
(lp227
g0
(g10
g2
Ntp228
Rp229
(dp230
g14
g15
sg16
(lp231
F33.869999999999997
aF5.0949999999999998
aF1.159
aF0.32579999999999998
aF0.1027
asg18
(lp232
(lp233
F0.0060679999999999996
aF0.045308000000000001
aF0.202822
aF0.50390299999999999
aF0.38342100000000001
aasg22
V H
p234
sbag0
(g10
g2
Ntp235
Rp236
(dp237
g14
g15
sg16
(lp238
F0.32579999999999998
asg18
(lp239
(lp240
F1.0
aasg22
g234
sbag0
(g10
g2
Ntp241
Rp242
(dp243
g14
g15
sg16
(lp244
F0.1027
asg18
(lp245
(lp246
F1.0
aasg22
g234
sbag0
(g10
g2
Ntp247
Rp248
(dp249
g14
g45
sg16
(lp250
F1.1046
asg18
(lp251
(lp252
F1.0
aasg22
g234
sbag0
(g10
g2
Ntp253
Rp254
(dp255
g14
g45
sg16
(lp256
F0.28449999999999998
asg18
(lp257
(lp258
F1.0
aasg22
g234
sbasVCL
p259
(lp260
g0
(g10
g2
Ntp261
Rp262
(dp263
g14
g15
sg16
(lp264
F456100.0
aF68330.0
aF15550.0
aF4405.0
aF1439.0
aF520.39999999999998
aF203.09999999999999
aF83.959999999999994
aF36.200000000000003
aF15.83
aF6.3339999999999996
aF2.694
aF0.9768
aF0.43130000000000002
aF0.16250000000000001
asg18
(lp265
(lp266
F4.9296999999999999e-05
aF0.00038302900000000001
aF0.0020085400000000001
aF0.0083855800000000001
aF0.029470300000000001
aF0.087832499999999994
aF0.21147299999999999
aF0.36536400000000002
aF0.34088400000000002
aF0.102133
aF0.0031167500000000002
aF0.00105751
aF-0.00037800000000000003
aF0.000156136
aF-5.1412600000000003e-05
aa(lp267
F-1.3830400000000001e-05
aF-0.000107279
aF-0.00056508299999999997
aF-0.0023613499999999999
aF-0.0084588600000000003
aF-0.025963799999999999
aF-0.068636199999999994
aF-0.141874
aF-0.199319
aF-0.019566199999999999
aF0.49974099999999999
aF0.56373600000000001
aF0.079032500000000006
aF-0.0083509099999999996
aF0.0023245599999999998
aa(lp268
F4.1854599999999997e-06
aF3.24395e-05
aF0.00017110500000000001
aF0.00071417599999999996
aF0.00256705
aF0.00788552
aF0.0210867
aF0.044226399999999999
aF0.065167000000000003
aF0.0060301199999999999
aF-0.20649500000000001
aF-0.40587099999999998
aF0.075955800000000004
aF0.725661
aF0.39442300000000002
aasg22
VCL
p269
sbag0
(g10
g2
Ntp270
Rp271
(dp272
g14
g15
sg16
(lp273
F0.9768
asg18
(lp274
(lp275
F1.0
aasg22
VCL
p276
sbag0
(g10
g2
Ntp277
Rp278
(dp279
g14
g15
sg16
(lp280
F0.16250000000000001
asg18
(lp281
(lp282
F1.0
aasg22
VCL
p283
sbag0
(g10
g2
Ntp284
Rp285
(dp286
g14
g15
sg16
(lp287
F0.0591
asg18
(lp288
(lp289
F1.0
aasg22
VCL
p290
sbag0
(g10
g2
Ntp291
Rp292
(dp293
g14
g45
sg16
(lp294
F663.29999999999995
aF156.80000000000001
aF49.979999999999997
aF18.420000000000002
aF7.2400000000000002
aF2.9220000000000002
aF1.022
aF0.38179999999999997
aF0.13009999999999999
asg18
(lp295
(lp296
F0.0024044800000000001
aF0.019214800000000001
aF0.088509699999999997
aF0.25602000000000003
aF0.43692700000000001
aF0.35033399999999998
aF0.058549499999999997
aF-0.0045842299999999999
aF0.0022696999999999999
aa(lp297
F-0.00065214500000000003
aF-0.0051944499999999998
aF-0.024693799999999998
aF-0.072816699999999998
aF-0.13403000000000001
aF-0.094774200000000003
aF0.26228899999999999
aF0.56466700000000003
aF0.34125
aasg22
VCL
p298
sbag0
(g10
g2
Ntp299
Rp300
(dp301
g14
g45
sg16
(lp302
F0.13009999999999999
asg18
(lp303
(lp304
F1.0
aasg22
VCL
p305
sbag0
(g10
g2
Ntp306
Rp307
(dp308
g14
g45
sg16
(lp309
F0.0419
asg18
(lp310
(lp311
F1.0
aasg22
VCL
p312
sbag0
(g10
g2
Ntp313
Rp314
(dp315
g14
g45
sg16
(lp316
F4.8105000000000002
asg18
(lp317
(lp318
F1.0
aasg22
VCL
p319
sbag0
(g10
g2
Ntp320
Rp321
(dp322
g14
g45
sg16
(lp323
F0.80300000000000005
asg18
(lp324
(lp325
F1.0
aasg22
VCL
p326
sbag0
(g10
g2
Ntp327
Rp328
(dp329
g14
g76
sg16
(lp330
F6.2141999999999999
asg18
(lp331
(lp332
F1.0
aasg22
VCL
p333
sbag0
(g10
g2
Ntp334
Rp335
(dp336
g14
g76
sg16
(lp337
F0.99209999999999998
asg18
(lp338
(lp339
F1.0
aasg22
VCL
p340
sbag0
(g10
g2
Ntp341
Rp342
(dp343
g14
g76
sg16
(lp344
F0.30640000000000001
asg18
(lp345
(lp346
F1.0
aasg22
VCL
p347
sbasVAL
p348
(lp349
g0
(g10
g2
Ntp350
Rp351
(dp352
g14
g15
sg16
(lp353
F205500.0
aF30780.0
aF7006.0
aF1985.0
aF649.10000000000002
aF235.0
aF91.620000000000005
aF37.670000000000002
aF15.91
aF5.8499999999999996
aF2.5419999999999998
aF1.0569999999999999
aF0.29310000000000003
aF0.14549999999999999
aF0.056500000000000002
asg18
(lp354
(lp355
F6.7883600000000002e-05
aF0.00052714899999999998
aF0.00276203
aF0.0114728
aF0.039818800000000001
aF0.11504
aF0.26088699999999998
aF0.39638600000000002
aF0.28459699999999999
aF0.044458299999999999
aF-0.0048983799999999999
aF0.0026125300000000001
aF-0.0010891500000000001
aF0.00072206799999999997
aF-0.00017848500000000001
aa(lp356
F-1.7637699999999999e-05
aF-0.000137195
aF-0.00071891000000000001
aF-0.0030114600000000001
aF-0.0106014
aF-0.032134500000000003
aF-0.080315600000000001
aF-0.15679399999999999
aF-0.168376
aF0.12687899999999999
aF0.56149400000000005
aF0.43661299999999997
aF0.035729299999999999
aF-0.011456300000000001
aF0.0022020099999999999
aa(lp357
F4.0731500000000001e-06
aF3.1656599999999998e-05
aF0.00016611600000000001
aF0.00069499199999999996
aF0.0024551099999999999
aF0.0074459799999999996
aF0.0188253
aF0.037277200000000003
aF0.041949599999999997
aF-0.035437499999999997
aF-0.17513200000000001
aF-0.27620299999999998
aF0.10872900000000001
aF0.65280899999999997
aF0.39458700000000002
aasg22
VAL
p358
sbag0
(g10
g2
Ntp359
Rp360
(dp361
g14
g15
sg16
(lp362
F0.29310000000000003
asg18
(lp363
(lp364
F1.0
aasg22
VAL
p365
sbag0
(g10
g2
Ntp366
Rp367
(dp368
g14
g15
sg16
(lp369
F0.056500000000000002
asg18
(lp370
(lp371
F1.0
aasg22
VAL
p372
sbag0
(g10
g2
Ntp373
Rp374
(dp375
g14
g15
sg16
(lp376
F0.022100000000000002
asg18
(lp377
(lp378
F1.0
aasg22
VAL
p379
sbag0
(g10
g2
Ntp380
Rp381
(dp382
g14
g45
sg16
(lp383
F444.39999999999998
aF105.09999999999999
aF33.469999999999999
aF12.33
aF4.8689999999999998
aF1.9610000000000001
aF0.78339999999999999
aF0.1888
aF0.055570000000000001
asg18
(lp384
(lp385
F0.0016278600000000001
aF0.013068700000000001
aF0.0612341
aF0.18787000000000001
aF0.36045199999999999
aF0.40845399999999998
aF0.18864
aF0.0097651400000000003
aF-0.0011505700000000001
aa(lp386
F-0.00028634100000000002
aF-0.0024230800000000002
aF-0.0108658
aF-0.036430700000000003
aF-0.064107399999999995
aF-0.097223900000000002
aF0.0147437
aF0.50344800000000001
aF0.59798399999999996
aasg22
VAL
p387
sbag0
(g10
g2
Ntp388
Rp389
(dp390
g14
g45
sg16
(lp391
F0.055570000000000001
asg18
(lp392
(lp393
F1.0
aasg22
VAL
p394
sbag0
(g10
g2
Ntp395
Rp396
(dp397
g14
g45
sg16
(lp398
F0.0146
asg18
(lp399
(lp400
F1.0
aasg22
VAL
p401
sbag0
(g10
g2
Ntp402
Rp403
(dp404
g14
g45
sg16
(lp405
F3.1680999999999999
asg18
(lp406
(lp407
F1.0
aasg22
VAL
p408
sbag0
(g10
g2
Ntp409
Rp410
(dp411
g14
g45
sg16
(lp412
F0.34310000000000002
asg18
(lp413
(lp414
F1.0
aasg22
VAL
p415
sbag0
(g10
g2
Ntp416
Rp417
(dp418
g14
g76
sg16
(lp419
F2.0108000000000001
asg18
(lp420
(lp421
F1.0
aasg22
VAL
p422
sbag0
(g10
g2
Ntp423
Rp424
(dp425
g14
g76
sg16
(lp426
F0.40920000000000001
asg18
(lp427
(lp428
F1.0
aasg22
VAL
p429
sbag0
(g10
g2
Ntp430
Rp431
(dp432
g14
g76
sg16
(lp433
F0.1363
asg18
(lp434
(lp435
F1.0
aasg22
VAL
p436
sbasVO
p437
(lp438
g0
(g10
g2
Ntp439
Rp440
(dp441
g14
g15
sg16
(lp442
F15330.0
aF2299.0
aF522.39999999999998
aF147.30000000000001
aF47.549999999999997
aF16.760000000000002
aF6.2069999999999999
aF1.752
aF0.68820000000000003
aF0.2384
asg18
(lp443
(lp444
F0.00050799999999999999
aF0.0039290000000000002
aF0.020243000000000001
aF0.079181000000000001
aF0.230687
aF0.433118
aF0.35026000000000002
aF0.042728000000000002
aF-0.0081539999999999998
aF0.0023809999999999999
aa(lp445
F-0.000115
aF-0.00089499999999999996
aF-0.0046360000000000004
aF-0.018724000000000001
aF-0.058463000000000001
aF-0.136463
aF-0.17574000000000001
aF0.16093399999999999
aF0.60341800000000001
aF0.37876500000000002
aasg22
V O
p446
sbag0
(g10
g2
Ntp447
Rp448
(dp449
g14
g15
sg16
(lp450
F1.752
asg18
(lp451
(lp452
F1.0
aasg22
g446
sbag0
(g10
g2
Ntp453
Rp454
(dp455
g14
g15
sg16
(lp456
F0.2384
asg18
(lp457
(lp458
F1.0
aasg22
g446
sbag0
(g10
g2
Ntp459
Rp460
(dp461
g14
g15
sg16
(lp462
F0.073760000000000006
asg18
(lp463
(lp464
F1.0
aasg22
g446
sbag0
(g10
g2
Ntp465
Rp466
(dp467
g14
g45
sg16
(lp468
F34.460000000000001
aF7.7489999999999997
aF2.2799999999999998
aF0.71560000000000001
aF0.214
asg18
(lp469
(lp470
F0.015928000000000001
aF0.099739999999999995
aF0.31049199999999999
aF0.49102600000000002
aF0.336337
aasg22
g446
sbag0
(g10
g2
Ntp471
Rp472
(dp473
g14
g45
sg16
(lp474
F2.2799999999999998
asg18
(lp475
(lp476
F1.0
aasg22
g446
sbag0
(g10
g2
Ntp477
Rp478
(dp479
g14
g45
sg16
(lp480
F0.71560000000000001
asg18
(lp481
(lp482
F1.0
aasg22
g446
sbag0
(g10
g2
Ntp483
Rp484
(dp485
g14
g45
sg16
(lp486
F0.214
asg18
(lp487
(lp488
F1.0
aasg22
g446
sbag0
(g10
g2
Ntp489
Rp490
(dp491
g14
g45
sg16
(lp492
F0.059740000000000001
asg18
(lp493
(lp494
F1.0
aasg22
g446
sbag0
(g10
g2
Ntp495
Rp496
(dp497
g14
g76
sg16
(lp498
F1.4712000000000001
asg18
(lp499
(lp500
F1.0
aasg22
g446
sbag0
(g10
g2
Ntp501
Rp502
(dp503
g14
g76
sg16
(lp504
F0.47989999999999999
asg18
(lp505
(lp506
F1.0
aasg22
g446
sbasVNE
p507
(lp508
g0
(g10
g2
Ntp509
Rp510
(dp511
g14
g15
sg16
(lp512
F24350.0
aF3650.0
aF829.60000000000002
aF234.0
aF75.609999999999999
aF26.73
aF9.9269999999999996
aF2.8359999999999999
aF1.1020000000000001
aF0.37819999999999998
asg18
(lp513
(lp514
F0.00050199999999999995
aF0.0038809999999999999
aF0.019997000000000001
aF0.078418000000000002
aF0.22967599999999999
aF0.432722
aF0.35064200000000001
aF0.043910999999999999
aF-0.0076449999999999999
aF0.0023749999999999999
aa(lp515
F-0.000118
aF-0.00091500000000000001
aF-0.0047369999999999999
aF-0.019233
aF-0.060368999999999999
aF-0.142508
aF-0.17771000000000001
aF0.17735200000000001
aF0.60583600000000004
aF0.36510900000000002
aasg22
VNE
p516
sbag0
(g10
g2
Ntp517
Rp518
(dp519
g14
g15
sg16
(lp520
F2.8359999999999999
asg18
(lp521
(lp522
F1.0
aasg22
VNE
p523
sbag0
(g10
g2
Ntp524
Rp525
(dp526
g14
g15
sg16
(lp527
F0.37819999999999998
asg18
(lp528
(lp529
F1.0
aasg22
VNE
p530
sbag0
(g10
g2
Ntp531
Rp532
(dp533
g14
g15
sg16
(lp534
F0.1133
asg18
(lp535
(lp536
F1.0
aasg22
VNE
p537
sbag0
(g10
g2
Ntp538
Rp539
(dp540
g14
g45
sg16
(lp541
F54.700000000000003
aF12.43
aF3.6789999999999998
aF1.143
aF0.33000000000000002
asg18
(lp542
(lp543
F0.017151
aF0.107656
aF0.32168099999999999
aF0.485232
aF0.33258399999999999
aasg22
VNE
p544
sbag0
(g10
g2
Ntp545
Rp546
(dp547
g14
g45
sg16
(lp548
F3.6789999999999998
asg18
(lp549
(lp550
F1.0
aasg22
VNE
p551
sbag0
(g10
g2
Ntp552
Rp553
(dp554
g14
g45
sg16
(lp555
F1.143
asg18
(lp556
(lp557
F1.0
aasg22
VNE
p558
sbag0
(g10
g2
Ntp559
Rp560
(dp561
g14
g45
sg16
(lp562
F0.33000000000000002
asg18
(lp563
(lp564
F1.0
aasg22
VNE
p565
sbag0
(g10
g2
Ntp566
Rp567
(dp568
g14
g45
sg16
(lp569
F0.091749999999999998
asg18
(lp570
(lp571
F1.0
aasg22
VNE
p572
sbag0
(g10
g2
Ntp573
Rp574
(dp575
g14
g76
sg16
(lp576
F2.8298000000000001
asg18
(lp577
(lp578
F1.0
aasg22
VNE
p579
sbag0
(g10
g2
Ntp580
Rp581
(dp582
g14
g76
sg16
(lp583
F0.74709999999999999
asg18
(lp584
(lp585
F1.0
aasg22
VNE
p586
sbasg45
(lp587
g0
(g10
g2
Ntp588
Rp589
(dp590
g14
g15
sg16
(lp591
F312400.0
aF46800.0
aF10650.0
aF3018.0
aF986.79999999999995
aF357.39999999999998
aF139.59999999999999
aF57.630000000000003
aF24.600000000000001
aF10.119999999999999
aF4.2830000000000004
aF1.8049999999999999
aF0.61580000000000001
aF0.2782
aF0.1055
asg18
(lp592
(lp593
F5.7695999999999998e-05
aF0.00044829599999999999
aF0.0023493899999999998
aF0.0097826500000000004
aF0.034146700000000002
aF0.100204
aF0.234372
aF0.382434
aF0.31808799999999998
aF0.070778800000000003
aF-0.00181799
aF0.0021618000000000002
aF-0.00083474199999999997
aF0.000432297
aF-0.000114251
aa(lp594
F-1.5670899999999999e-05
aF-0.000121724
aF-0.00063967199999999998
aF-0.0026742599999999999
aF-0.0094983099999999994
aF-0.0289349
aF-0.074512099999999998
aF-0.14993799999999999
aF-0.189467
aF0.036326999999999998
aF0.52881599999999995
aF0.51911499999999999
aF0.060554700000000003
aF-0.0092569499999999999
aF0.0021037199999999999
aa(lp595
F4.3063099999999996e-06
aF3.3419400000000001e-05
aF0.000175885
aF0.00073433999999999999
aF0.0026177499999999999
aF0.0079785199999999994
aF0.020794
aF0.042444599999999999
aF0.056343600000000001
aF-0.0127358
aF-0.196495
aF-0.35355500000000001
aF0.074140700000000004
aF0.70091199999999998
aF0.40473900000000002
aasg22
V P
p596
sbag0
(g10
g2
Ntp597
Rp598
(dp599
g14
g15
sg16
(lp600
F0.61580000000000001
asg18
(lp601
(lp602
F1.0
aasg22
g596
sbag0
(g10
g2
Ntp603
Rp604
(dp605
g14
g15
sg16
(lp606
F0.1055
asg18
(lp607
(lp608
F1.0
aasg22
g596
sbag0
(g10
g2
Ntp609
Rp610
(dp611
g14
g15
sg16
(lp612
F0.040899999999999999
asg18
(lp613
(lp614
F1.0
aasg22
g596
sbag0
(g10
g2
Ntp615
Rp616
(dp617
g14
g45
sg16
(lp618
F504.89999999999998
aF119.40000000000001
aF37.960000000000001
aF13.949999999999999
aF5.4569999999999999
aF2.177
aF0.80100000000000005
aF0.28770000000000001
aF0.097140000000000004
asg18
(lp619
(lp620
F0.0023372800000000002
aF0.018540999999999998
aF0.084969299999999998
aF0.244615
aF0.42276599999999998
aF0.36843900000000002
aF0.077273400000000006
aF-0.0037900500000000001
aF0.00159939
aa(lp621
F-0.00055523599999999997
aF-0.0044591300000000004
aF-0.020635000000000001
aF-0.061769400000000002
aF-0.10892400000000001
aF-0.105599
aF0.15348300000000001
aF0.57698099999999997
aF0.42243900000000001
aasg22
g596
sbag0
(g10
g2
Ntp622
Rp623
(dp624
g14
g45
sg16
(lp625
F0.097140000000000004
asg18
(lp626
(lp627
F1.0
aasg22
g596
sbag0
(g10
g2
Ntp628
Rp629
(dp630
g14
g45
sg16
(lp631
F0.030700000000000002
asg18
(lp632
(lp633
F1.0
aasg22
g596
sbag0
(g10
g2
Ntp634
Rp635
(dp636
g14
g45
sg16
(lp637
F3.9542999999999999
asg18
(lp638
(lp639
F1.0
aasg22
g596
sbag0
(g10
g2
Ntp640
Rp641
(dp642
g14
g45
sg16
(lp643
F0.55149999999999999
asg18
(lp644
(lp645
F1.0
aasg22
g596
sbag0
(g10
g2
Ntp646
Rp647
(dp648
g14
g76
sg16
(lp649
F3.6109
asg18
(lp650
(lp651
F1.0
aasg22
g596
sbag0
(g10
g2
Ntp652
Rp653
(dp654
g14
g76
sg16
(lp655
F0.68269999999999997
asg18
(lp656
(lp657
F1.0
aasg22
g596
sbag0
(g10
g2
Ntp658
Rp659
(dp660
g14
g76
sg16
(lp661
F0.2205
asg18
(lp662
(lp663
F1.0
aasg22
g596
sbasg15
(lp664
g0
(g10
g2
Ntp665
Rp666
(dp667
g14
g15
sg16
(lp668
F374100.0
aF56050.0
aF12760.0
aF3615.0
aF1183.0
aF428.80000000000001
aF167.80000000000001
aF69.469999999999999
aF29.84
aF12.720000000000001
aF5.2439999999999998
aF2.2189999999999999
aF0.77669999999999995
aF0.34899999999999998
aF0.13220000000000001
asg18
(lp669
(lp670
F5.4214e-05
aF0.00042085499999999998
aF0.0022069799999999999
aF0.0091925800000000005
aF0.032112300000000003
aF0.094668299999999997
aF0.22363
aF0.37439299999999998
aF0.32910800000000001
aF0.084703799999999996
aF0.00044085100000000002
aF0.0016482700000000001
aF-0.00062233199999999996
aF0.00030130599999999999
aF-8.4128999999999994e-05
aa(lp671
F-1.49837e-05
aF-0.000116198
aF-0.00061158299999999996
aF-0.0025536999999999999
aF-0.0090870800000000009
aF-0.0277045
aF-0.072001999999999997
aF-0.14643900000000001
aF-0.19514999999999999
aF0.00819193
aF0.51660099999999998
aF0.54217800000000005
aF0.068843000000000001
aF-0.0091807199999999999
aF0.0022683199999999999
aa(lp672
F4.3506600000000003e-06
aF3.3714000000000003e-05
aF0.00017767400000000001
aF0.000741116
aF0.00264591
aF0.0080748699999999996
aF0.021227599999999999
aF0.043832299999999998
aF0.061271600000000002
aF-0.0036151
aF-0.20451
aF-0.38187100000000002
aF0.082684400000000005
aF0.71414699999999998
aF0.393791
aasg22
V S
p673
sbag0
(g10
g2
Ntp674
Rp675
(dp676
g14
g15
sg16
(lp677
F0.77669999999999995
asg18
(lp678
(lp679
F1.0
aasg22
g673
sbag0
(g10
g2
Ntp680
Rp681
(dp682
g14
g15
sg16
(lp683
F0.13220000000000001
asg18
(lp684
(lp685
F1.0
aasg22
g673
sbag0
(g10
g2
Ntp686
Rp687
(dp688
g14
g15
sg16
(lp689
F0.049700000000000001
asg18
(lp690
(lp691
F1.0
aasg22
g673
sbag0
(g10
g2
Ntp692
Rp693
(dp694
g14
g45
sg16
(lp695
F574.39999999999998
aF135.80000000000001
aF43.189999999999998
aF15.869999999999999
aF6.2080000000000002
aF2.4830000000000001
aF0.86880000000000002
aF0.32290000000000002
aF0.10979999999999999
asg18
(lp696
(lp697
F0.0024226400000000002
aF0.019279600000000001
aF0.088540099999999997
aF0.25465399999999999
aF0.43398399999999998
aF0.35495300000000002
aF0.061894100000000001
aF-0.0050297700000000002
aF0.0020981300000000001
aa(lp698
F-0.00062010199999999998
aF-0.00493882
aF-0.023264699999999999
aF-0.068519499999999997
aF-0.12389600000000001
aF-0.096949900000000006
aF0.228215
aF0.56939399999999996
aF0.36630200000000002
aasg22
g673
sbag0
(g10
g2
Ntp699
Rp700
(dp701
g14
g45
sg16
(lp702
F0.10979999999999999
asg18
(lp703
(lp704
F1.0
aasg22
g673
sbag0
(g10
g2
Ntp705
Rp706
(dp707
g14
g45
sg16
(lp708
F0.035099999999999999
asg18
(lp709
(lp710
F1.0
aasg22
g673
sbag0
(g10
g2
Ntp711
Rp712
(dp713
g14
g45
sg16
(lp714
F4.3429000000000002
asg18
(lp715
(lp716
F1.0
aasg22
g673
sbag0
(g10
g2
Ntp717
Rp718
(dp719
g14
g45
sg16
(lp720
F0.64329999999999998
asg18
(lp721
(lp722
F1.0
aasg22
g673
sbag0
(g10
g2
Ntp723
Rp724
(dp725
g14
g76
sg16
(lp726
F4.4753999999999996
asg18
(lp727
(lp728
F1.0
aasg22
g673
sbag0
(g10
g2
Ntp729
Rp730
(dp731
g14
g76
sg16
(lp732
F0.78810000000000002
asg18
(lp733
(lp734
F1.0
aasg22
g673
sbag0
(g10
g2
Ntp735
Rp736
(dp737
g14
g76
sg16
(lp738
F0.25319999999999998
asg18
(lp739
(lp740
F1.0
aasg22
g673
sbasVAR
p741
(lp742
g0
(g10
g2
Ntp743
Rp744
(dp745
g14
g15
sg16
(lp746
F545000.0
aF81640.0
aF18580.0
aF5261.0
aF1717.0
aF619.89999999999998
aF241.59999999999999
aF99.790000000000006
aF43.149999999999999
aF19.140000000000001
aF7.4880000000000004
aF3.2050000000000001
aF1.196
aF0.52039999999999997
aF0.19539999999999999
asg18
(lp747
(lp748
F4.55828e-05
aF0.00035410800000000001
aF0.00185797
aF0.0077685100000000002
aF0.027423199999999998
aF0.082383600000000001
aF0.20122999999999999
aF0.35678100000000001
aF0.34956300000000001
aF0.118266
aF0.0056018999999999999
aF0.000483473
aF-0.000148085
aF2.92025e-05
aF-2.3160399999999999e-05
aa(lp749
F-1.2955100000000001e-05
aF-0.00010042799999999999
aF-0.00052958300000000003
aF-0.0022139600000000001
aF-0.0079684500000000002
aF-0.024580299999999999
aF-0.065779799999999999
aF-0.13794200000000001
aF-0.20163
aF-0.041283399999999998
aF0.48468
aF0.57922399999999996
aF0.087908299999999995
aF-0.0072755299999999997
aF0.00232884
aa(lp750
F4.0499e-06
aF3.1369099999999998e-05
aF0.00016564600000000001
aF0.00069166200000000001
aF0.0024978999999999999
aF0.0077107399999999998
aF0.020871399999999998
aF0.044396499999999998
aF0.068022399999999997
aF0.014135
aF-0.20748900000000001
aF-0.42504500000000001
aF0.070485500000000006
aF0.73362700000000003
aF0.396005
aasg22
VAR
p751
sbag0
(g10
g2
Ntp752
Rp753
(dp754
g14
g15
sg16
(lp755
F1.196
asg18
(lp756
(lp757
F1.0
aasg22
VAR
p758
sbag0
(g10
g2
Ntp759
Rp760
(dp761
g14
g15
sg16
(lp762
F0.19539999999999999
asg18
(lp763
(lp764
F1.0
aasg22
VAR
p765
sbag0
(g10
g2
Ntp766
Rp767
(dp768
g14
g15
sg16
(lp769
F0.068500000000000005
asg18
(lp770
(lp771
F1.0
aasg22
VAR
p772
sbag0
(g10
g2
Ntp773
Rp774
(dp775
g14
g45
sg16
(lp776
F761.79999999999995
aF180.19999999999999
aF57.5
aF21.239999999999998
aF8.3879999999999999
aF3.4159999999999999
aF1.206
aF0.45229999999999998
aF0.1545
asg18
(lp777
(lp778
F0.0023697599999999998
aF0.019019899999999999
aF0.088080699999999998
aF0.25637700000000002
aF0.43871100000000002
aF0.34756900000000002
aF0.056674000000000002
aF-0.0052388199999999999
aF0.00164376
aa(lp779
F-0.00066721100000000002
aF-0.00532717
aF-0.0255494
aF-0.075719700000000001
aF-0.14113300000000001
aF-0.093276800000000007
aF0.28287200000000001
aF0.56245000000000001
aF0.32505899999999999
aasg22
VAR
p780
sbag0
(g10
g2
Ntp781
Rp782
(dp783
g14
g45
sg16
(lp784
F0.1545
asg18
(lp785
(lp786
F1.0
aasg22
VAR
p787
sbag0
(g10
g2
Ntp788
Rp789
(dp790
g14
g45
sg16
(lp791
F0.0487
asg18
(lp792
(lp793
F1.0
aasg22
VAR
p794
sbag0
(g10
g2
Ntp795
Rp796
(dp797
g14
g45
sg16
(lp798
F5.4424000000000001
asg18
(lp799
(lp800
F1.0
aasg22
VAR
p801
sbag0
(g10
g2
Ntp802
Rp803
(dp804
g14
g45
sg16
(lp805
F0.96640000000000004
asg18
(lp806
(lp807
F1.0
aasg22
VAR
p808
sbag0
(g10
g2
Ntp809
Rp810
(dp811
g14
g76
sg16
(lp812
F7.8669000000000002
asg18
(lp813
(lp814
F1.0
aasg22
VAR
p815
sbag0
(g10
g2
Ntp816
Rp817
(dp818
g14
g76
sg16
(lp819
F1.1969000000000001
asg18
(lp820
(lp821
F1.0
aasg22
VAR
p822
sbag0
(g10
g2
Ntp823
Rp824
(dp825
g14
g76
sg16
(lp826
F0.34599999999999997
asg18
(lp827
(lp828
F1.0
aasg22
VAR
p829
sbasVN
p830
(lp831
g0
(g10
g2
Ntp832
Rp833
(dp834
g14
g15
sg16
(lp835
F11420.0
aF1712.0
aF389.30000000000001
aF110.0
aF35.57
aF12.539999999999999
aF4.6440000000000001
aF1.2929999999999999
aF0.51180000000000003
aF0.1787
asg18
(lp836
(lp837
F0.00052300000000000003
aF0.004045
aF0.020774999999999998
aF0.080726999999999993
aF0.233074
aF0.43350100000000003
aF0.347472
aF0.041262
aF-0.0085079999999999999
aF0.0023839999999999998
aa(lp838
F-0.000115
aF-0.00089499999999999996
aF-0.0046239999999999996
aF-0.018527999999999999
aF-0.057339000000000001
aF-0.132076
aF-0.17251
aF0.151814
aF0.59994400000000003
aF0.38746199999999997
aasg22
V N
p839
sbag0
(g10
g2
Ntp840
Rp841
(dp842
g14
g15
sg16
(lp843
F1.2929999999999999
asg18
(lp844
(lp845
F1.0
aasg22
g839
sbag0
(g10
g2
Ntp846
Rp847
(dp848
g14
g15
sg16
(lp849
F0.1787
asg18
(lp850
(lp851
F1.0
aasg22
g839
sbag0
(g10
g2
Ntp852
Rp853
(dp854
g14
g15
sg16
(lp855
F0.057599999999999998
asg18
(lp856
(lp857
F1.0
aasg22
g839
sbag0
(g10
g2
Ntp858
Rp859
(dp860
g14
g45
sg16
(lp861
F26.629999999999999
aF5.9480000000000004
aF1.742
aF0.55500000000000005
aF0.17249999999999999
asg18
(lp862
(lp863
F0.014670000000000001
aF0.091763999999999998
aF0.29868299999999998
aF0.49848700000000001
aF0.33702300000000002
aasg22
g839
sbag0
(g10
g2
Ntp864
Rp865
(dp866
g14
g45
sg16
(lp867
F1.742
asg18
(lp868
(lp869
F1.0
aasg22
g839
sbag0
(g10
g2
Ntp870
Rp871
(dp872
g14
g45
sg16
(lp873
F0.55500000000000005
asg18
(lp874
(lp875
F1.0
aasg22
g839
sbag0
(g10
g2
Ntp876
Rp877
(dp878
g14
g45
sg16
(lp879
F0.17249999999999999
asg18
(lp880
(lp881
F1.0
aasg22
g839
sbag0
(g10
g2
Ntp882
Rp883
(dp884
g14
g45
sg16
(lp885
F0.049099999999999998
asg18
(lp886
(lp887
F1.0
aasg22
g839
sbag0
(g10
g2
Ntp888
Rp889
(dp890
g14
g76
sg16
(lp891
F1.3379000000000001
asg18
(lp892
(lp893
F1.0
aasg22
g839
sbag0
(g10
g2
Ntp894
Rp895
(dp896
g14
g76
sg16
(lp897
F0.42370000000000002
asg18
(lp898
(lp899
F1.0
aasg22
g839
sbasVHE
p900
(lp901
g0
(g10
g2
Ntp902
Rp903
(dp904
g14
g15
sg16
(lp905
F234.0
aF35.159999999999997
aF7.9889999999999999
aF2.2120000000000002
aF0.66690000000000005
aF0.2089
asg18
(lp906
(lp907
F0.0025869999999999999
aF0.019532999999999998
aF0.090997999999999996
aF0.27205000000000001
aF0.47806500000000002
aF0.30773699999999998
aasg22
VHE
p908
sbag0
(g10
g2
Ntp909
Rp910
(dp911
g14
g15
sg16
(lp912
F0.66690000000000005
asg18
(lp913
(lp914
F1.0
aasg22
VHE
p915
sbag0
(g10
g2
Ntp916
Rp917
(dp918
g14
g15
sg16
(lp919
F0.2089
asg18
(lp920
(lp921
F1.0
aasg22
VHE
p922
sbag0
(g10
g2
Ntp923
Rp924
(dp925
g14
g15
sg16
(lp926
F0.051380000000000002
asg18
(lp927
(lp928
F1.0
aasg22
VHE
p929
sbag0
(g10
g2
Ntp930
Rp931
(dp932
g14
g45
sg16
(lp933
F0.97809999999999997
asg18
(lp934
(lp935
F1.0
aasg22
VHE
p936
sbag0
(g10
g2
Ntp937
Rp938
(dp939
g14
g45
sg16
(lp940
F0.35899999999999999
asg18
(lp941
(lp942
F1.0
aasg22
VHE
p943
sbasVSI
p944
(lp945
g0
(g10
g2
Ntp946
Rp947
(dp948
g14
g15
sg16
(lp949
F254900.0
aF38190.0
aF8690.0
aF2462.0
aF804.79999999999995
aF291.30000000000001
aF113.59999999999999
aF46.75
aF19.82
aF7.7080000000000002
aF3.3399999999999999
aF1.4019999999999999
aF0.43869999999999998
aF0.20699999999999999
aF0.079439999999999997
asg18
(lp950
(lp951
F6.2510100000000003e-05
aF0.000485553
aF0.0025451599999999999
aF0.0105866
aF0.0368787
aF0.10747900000000001
aF0.24793599999999999
aF0.39092700000000002
aF0.30202600000000002
aF0.055923599999999997
aF-0.0040240600000000003
aF0.0025803000000000002
aF-0.0010382099999999999
aF0.00060793000000000002
aF-0.000154022
aa(lp952
F-1.6637e-05
aF-0.00012930999999999999
aF-0.00067882800000000003
aF-0.0028411700000000001
aF-0.010055100000000001
aF-0.030577400000000001
aF-0.077725600000000006
aF-0.15423600000000001
aF-0.180368
aF0.079821799999999998
aF0.54744099999999996
aF0.48011900000000002
aF0.047484600000000002
aF-0.0106996
aF0.00219871
aa(lp953
F4.2625700000000001e-06
aF3.3106199999999998e-05
aF0.00017401499999999999
aF0.00072757400000000004
aF0.00258333
aF0.0078635400000000005
aF0.020215500000000001
aF0.040731999999999997
aF0.049935800000000002
aF-0.024939599999999999
aF-0.19034999999999999
aF-0.31835000000000002
aF0.094803600000000002
aF0.68118000000000001
aF0.39567200000000002
aasg22
VSI
p954
sbag0
(g10
g2
Ntp955
Rp956
(dp957
g14
g15
sg16
(lp958
F0.43869999999999998
asg18
(lp959
(lp960
F1.0
aasg22
VSI
p961
sbag0
(g10
g2
Ntp962
Rp963
(dp964
g14
g15
sg16
(lp965
F0.079439999999999997
asg18
(lp966
(lp967
F1.0
aasg22
VSI
p968
sbag0
(g10
g2
Ntp969
Rp970
(dp971
g14
g15
sg16
(lp972
F0.033000000000000002
asg18
(lp973
(lp974
F1.0
aasg22
VSI
p975
sbag0
(g10
g2
Ntp976
Rp977
(dp978
g14
g45
sg16
(lp979
F481.5
aF113.90000000000001
aF36.229999999999997
aF13.34
aF5.2519999999999998
aF2.1200000000000001
aF0.85609999999999997
aF0.25280000000000002
aF0.078890000000000002
asg18
(lp980
(lp981
F0.00192045
aF0.015355199999999999
aF0.071399099999999993
aF0.21305199999999999
aF0.39035399999999998
aF0.39372099999999999
aF0.13256499999999999
aF0.0039563000000000003
aF0.00033162399999999998
aa(lp982
F-0.00040522000000000003
aF-0.0033589599999999998
aF-0.015285999999999999
aF-0.048921800000000001
aF-0.085500800000000002
aF-0.112137
aF0.061827399999999998
aF0.55191900000000005
aF0.52349199999999996
aasg22
VSI
p983
sbag0
(g10
g2
Ntp984
Rp985
(dp986
g14
g45
sg16
(lp987
F0.078890000000000002
asg18
(lp988
(lp989
F1.0
aasg22
VSI
p990
sbag0
(g10
g2
Ntp991
Rp992
(dp993
g14
g45
sg16
(lp994
F0.023699999999999999
asg18
(lp995
(lp996
F1.0
aasg22
VSI
p997
sbag0
(g10
g2
Ntp998
Rp999
(dp1000
g14
g45
sg16
(lp1001
F3.3256999999999999
asg18
(lp1002
(lp1003
F1.0
aasg22
VSI
p1004
sbag0
(g10
g2
Ntp1005
Rp1006
(dp1007
g14
g45
sg16
(lp1008
F0.44340000000000002
asg18
(lp1009
(lp1010
F1.0
aasg22
VSI
p1011
sbag0
(g10
g2
Ntp1012
Rp1013
(dp1014
g14
g76
sg16
(lp1015
F2.7772000000000001
asg18
(lp1016
(lp1017
F1.0
aasg22
VSI
p1018
sbag0
(g10
g2
Ntp1019
Rp1020
(dp1021
g14
g76
sg16
(lp1022
F0.55369999999999997
asg18
(lp1023
(lp1024
F1.0
aasg22
VSI
p1025
sbag0
(g10
g2
Ntp1026
Rp1027
(dp1028
g14
g76
sg16
(lp1029
F0.18210000000000001
asg18
(lp1030
(lp1031
F1.0
aasg22
VSI
p1032
sbassb.