ccopy_reg
_reconstructor
p0
(cbasisset
BasisSet
p1
c__builtin__
object
p2
Ntp3
Rp4
(dp5
S'basisDictionary'
p6
(dp7
S'C'
p8
(lp9
g0
(cbasisset
Shell
p10
g2
Ntp11
Rp12
(dp13
S'angularMomentum'
p14
S'S'
p15
sS'exponents'
p16
(lp17
F1113.9867718999999
asS'coefficients'
p18
(lp19
(lp20
F1.0
aasS'atom'
p21
S'C'
p22
sbag0
(g10
g2
Ntp23
Rp24
(dp25
g14
S'S'
p26
sg16
(lp27
F369.16234179999998
asg18
(lp28
(lp29
F1.0
aasg21
S'C'
p30
sbag0
(g10
g2
Ntp31
Rp32
(dp33
g14
S'S'
p34
sg16
(lp35
F121.79275232000001
asg18
(lp36
(lp37
F1.0
aasg21
S'C'
p38
sbag0
(g10
g2
Ntp39
Rp40
(dp41
g14
S'S'
p42
sg16
(lp43
F48.127114540000001
asg18
(lp44
(lp45
F1.0
aasg21
S'C'
p46
sbag0
(g10
g2
Ntp47
Rp48
(dp49
g14
S'S'
p50
sg16
(lp51
F20.365074
asg18
(lp52
(lp53
F1.0
aasg21
S'C'
p54
sbag0
(g10
g2
Ntp55
Rp56
(dp57
g14
S'S'
p58
sg16
(lp59
F8.0883596900000008
asg18
(lp60
(lp61
F1.0
aasg21
S'C'
p62
sbag0
(g10
g2
Ntp63
Rp64
(dp65
g14
S'S'
p66
sg16
(lp67
F2.5068656599999999
asg18
(lp68
(lp69
F1.0
aasg21
S'C'
p70
sbag0
(g10
g2
Ntp71
Rp72
(dp73
g14
S'S'
p74
sg16
(lp75
F1.24385374
asg18
(lp76
(lp77
F1.0
aasg21
S'C'
p78
sbag0
(g10
g2
Ntp79
Rp80
(dp81
g14
S'S'
p82
sg16
(lp83
F0.48449900000000001
asg18
(lp84
(lp85
F1.0
aasg21
S'C'
p86
sbag0
(g10
g2
Ntp87
Rp88
(dp89
g14
S'S'
p90
sg16
(lp91
F0.19185160000000001
asg18
(lp92
(lp93
F1.0
aasg21
S'C'
p94
sbag0
(g10
g2
Ntp95
Rp96
(dp97
g14
S'P'
p98
sg16
(lp99
F102.99176249
asg18
(lp100
(lp101
F1.0
aasg21
S'C'
p102
sbag0
(g10
g2
Ntp103
Rp104
(dp105
g14
S'P'
p106
sg16
(lp107
F28.132594009999998
asg18
(lp108
(lp109
F1.0
aasg21
S'C'
p110
sbag0
(g10
g2
Ntp111
Rp112
(dp113
g14
S'P'
p114
sg16
(lp115
F9.8364318199999996
asg18
(lp116
(lp117
F1.0
aasg21
S'C'
p118
sbag0
(g10
g2
Ntp119
Rp120
(dp121
g14
S'P'
p122
sg16
(lp123
F3.3490544999999998
asg18
(lp124
(lp125
F1.0
aasg21
S'C'
p126
sbag0
(g10
g2
Ntp127
Rp128
(dp129
g14
S'P'
p130
sg16
(lp131
F1.4947618600000001
asg18
(lp132
(lp133
F1.0
aasg21
S'C'
p134
sbag0
(g10
g2
Ntp135
Rp136
(dp137
g14
S'P'
p138
sg16
(lp139
F0.57690109000000001
asg18
(lp140
(lp141
F1.0
aasg21
S'C'
p142
sbag0
(g10
g2
Ntp143
Rp144
(dp145
g14
S'P'
p146
sg16
(lp147
F0.20320062999999999
asg18
(lp148
(lp149
F1.0
aasg21
S'C'
p150
sbag0
(g10
g2
Ntp151
Rp152
(dp153
g14
S'D'
p154
sg16
(lp155
F10.59406836
asg18
(lp156
(lp157
F1.0
aasg21
S'C'
p158
sbag0
(g10
g2
Ntp159
Rp160
(dp161
g14
S'D'
p162
sg16
(lp163
F3.5997195400000002
asg18
(lp164
(lp165
F1.0
aasg21
S'C'
p166
sbag0
(g10
g2
Ntp167
Rp168
(dp169
g14
S'D'
p170
sg16
(lp171
F1.33556911
asg18
(lp172
(lp173
F1.0
aasg21
S'C'
p174
sbag0
(g10
g2
Ntp175
Rp176
(dp177
g14
S'D'
p178
sg16
(lp179
F0.51949765000000003
asg18
(lp180
(lp181
F1.0
aasg21
S'C'
p182
sbag0
(g10
g2
Ntp183
Rp184
(dp185
g14
S'D'
p186
sg16
(lp187
F0.19954125
asg18
(lp188
(lp189
F1.0
aasg21
S'C'
p190
sbag0
(g10
g2
Ntp191
Rp192
(dp193
g14
S'F'
p194
sg16
(lp195
F1.9539
asg18
(lp196
(lp197
F1.0
aasg21
S'C'
p198
sbag0
(g10
g2
Ntp199
Rp200
(dp201
g14
S'F'
p202
sg16
(lp203
F0.75490000000000002
asg18
(lp204
(lp205
F1.0
aasg21
S'C'
p206
sbag0
(g10
g2
Ntp207
Rp208
(dp209
g14
S'F'
p210
sg16
(lp211
F0.33389999999999997
asg18
(lp212
(lp213
F1.0
aasg21
S'C'
p214
sbag0
(g10
g2
Ntp215
Rp216
(dp217
g14
S'G'
p218
sg16
(lp219
F1.5248999999999999
asg18
(lp220
(lp221
F1.0
aasg21
S'C'
p222
sbag0
(g10
g2
Ntp223
Rp224
(dp225
g14
S'G'
p226
sg16
(lp227
F0.59089999999999998
asg18
(lp228
(lp229
F1.0
aasg21
S'C'
p230
sbag0
(g10
g2
Ntp231
Rp232
(dp233
g14
S'H'
p234
sg16
(lp235
F1.1169
asg18
(lp236
(lp237
F1.0
aasg21
S'C'
p238
sbasS'F'
p239
(lp240
g0
(g10
g2
Ntp241
Rp242
(dp243
g14
S'S'
p244
sg16
(lp245
F1885.0661216000001
asg18
(lp246
(lp247
F1.0
aasg21
S'F'
p248
sbag0
(g10
g2
Ntp249
Rp250
(dp251
g14
S'S'
p252
sg16
(lp253
F623.75582297000005
asg18
(lp254
(lp255
F1.0
aasg21
S'F'
p256
sbag0
(g10
g2
Ntp257
Rp258
(dp259
g14
S'S'
p260
sg16
(lp261
F227.92405029
asg18
(lp262
(lp263
F1.0
aasg21
S'F'
p264
sbag0
(g10
g2
Ntp265
Rp266
(dp267
g14
S'S'
p268
sg16
(lp269
F82.184178770000003
asg18
(lp270
(lp271
F1.0
aasg21
S'F'
p272
sbag0
(g10
g2
Ntp273
Rp274
(dp275
g14
S'S'
p276
sg16
(lp277
F32.628937579999999
asg18
(lp278
(lp279
F1.0
aasg21
S'F'
p280
sbag0
(g10
g2
Ntp281
Rp282
(dp283
g14
S'S'
p284
sg16
(lp285
F12.78327958
asg18
(lp286
(lp287
F1.0
aasg21
S'F'
p288
sbag0
(g10
g2
Ntp289
Rp290
(dp291
g14
S'S'
p292
sg16
(lp293
F5.6589257899999996
asg18
(lp294
(lp295
F1.0
aasg21
S'F'
p296
sbag0
(g10
g2
Ntp297
Rp298
(dp299
g14
S'S'
p300
sg16
(lp301
F2.3208306699999999
asg18
(lp302
(lp303
F1.0
aasg21
S'F'
p304
sbag0
(g10
g2
Ntp305
Rp306
(dp307
g14
S'S'
p308
sg16
(lp309
F1.01915209
asg18
(lp310
(lp311
F1.0
aasg21
S'F'
p312
sbag0
(g10
g2
Ntp313
Rp314
(dp315
g14
S'S'
p316
sg16
(lp317
F0.42196698999999999
asg18
(lp318
(lp319
F1.0
aasg21
S'F'
p320
sbag0
(g10
g2
Ntp321
Rp322
(dp323
g14
S'P'
p324
sg16
(lp325
F153.72069768
asg18
(lp326
(lp327
F1.0
aasg21
S'F'
p328
sbag0
(g10
g2
Ntp329
Rp330
(dp331
g14
S'P'
p332
sg16
(lp333
F45.390450870000002
asg18
(lp334
(lp335
F1.0
aasg21
S'F'
p336
sbag0
(g10
g2
Ntp337
Rp338
(dp339
g14
S'P'
p340
sg16
(lp341
F16.785845770000002
asg18
(lp342
(lp343
F1.0
aasg21
S'F'
p344
sbag0
(g10
g2
Ntp345
Rp346
(dp347
g14
S'P'
p348
sg16
(lp349
F6.7293857800000003
asg18
(lp350
(lp351
F1.0
aasg21
S'F'
p352
sbag0
(g10
g2
Ntp353
Rp354
(dp355
g14
S'P'
p356
sg16
(lp357
F2.6694607000000001
asg18
(lp358
(lp359
F1.0
aasg21
S'F'
p360
sbag0
(g10
g2
Ntp361
Rp362
(dp363
g14
S'P'
p364
sg16
(lp365
F1.1049787099999999
asg18
(lp366
(lp367
F1.0
aasg21
S'F'
p368
sbag0
(g10
g2
Ntp369
Rp370
(dp371
g14
S'P'
p372
sg16
(lp373
F0.45727704000000002
asg18
(lp374
(lp375
F1.0
aasg21
S'F'
p376
sbag0
(g10
g2
Ntp377
Rp378
(dp379
g14
S'D'
p380
sg16
(lp381
F24.869685350000001
asg18
(lp382
(lp383
F1.0
aasg21
S'F'
p384
sbag0
(g10
g2
Ntp385
Rp386
(dp387
g14
S'D'
p388
sg16
(lp389
F7.5554441600000004
asg18
(lp390
(lp391
F1.0
aasg21
S'F'
p392
sbag0
(g10
g2
Ntp393
Rp394
(dp395
g14
S'D'
p396
sg16
(lp397
F2.8268499199999999
asg18
(lp398
(lp399
F1.0
aasg21
S'F'
p400
sbag0
(g10
g2
Ntp401
Rp402
(dp403
g14
S'D'
p404
sg16
(lp405
F1.11233413
asg18
(lp406
(lp407
F1.0
aasg21
S'F'
p408
sbag0
(g10
g2
Ntp409
Rp410
(dp411
g14
S'D'
p412
sg16
(lp413
F0.43877754000000002
asg18
(lp414
(lp415
F1.0
aasg21
S'F'
p416
sbag0
(g10
g2
Ntp417
Rp418
(dp419
g14
S'F'
p420
sg16
(lp421
F5.2541500000000001
asg18
(lp422
(lp423
F1.0
aasg21
S'F'
p424
sbag0
(g10
g2
Ntp425
Rp426
(dp427
g14
S'F'
p428
sg16
(lp429
F1.96515
asg18
(lp430
(lp431
F1.0
aasg21
S'F'
p432
sbag0
(g10
g2
Ntp433
Rp434
(dp435
g14
S'F'
p436
sg16
(lp437
F0.82615000000000005
asg18
(lp438
(lp439
F1.0
aasg21
S'F'
p440
sbag0
(g10
g2
Ntp441
Rp442
(dp443
g14
S'G'
p444
sg16
(lp445
F3.8021500000000001
asg18
(lp446
(lp447
F1.0
aasg21
S'F'
p448
sbag0
(g10
g2
Ntp449
Rp450
(dp451
g14
S'G'
p452
sg16
(lp453
F1.38815
asg18
(lp454
(lp455
F1.0
aasg21
S'F'
p456
sbag0
(g10
g2
Ntp457
Rp458
(dp459
g14
S'H'
p460
sg16
(lp461
F2.6161500000000002
asg18
(lp462
(lp463
F1.0
aasg21
S'F'
p464
sbasS'H'
p465
(lp466
g0
(g10
g2
Ntp467
Rp468
(dp469
g14
S'S'
p470
sg16
(lp471
F9.5302493300000002
asg18
(lp472
(lp473
F1.0
aasg21
S'H'
p474
sbag0
(g10
g2
Ntp475
Rp476
(dp477
g14
S'S'
p478
sg16
(lp479
F1.9174506200000001
asg18
(lp480
(lp481
F1.0
aasg21
S'H'
p482
sbag0
(g10
g2
Ntp483
Rp484
(dp485
g14
S'S'
p486
sg16
(lp487
F0.68424048999999998
asg18
(lp488
(lp489
F1.0
aasg21
S'H'
p490
sbag0
(g10
g2
Ntp491
Rp492
(dp493
g14
S'S'
p494
sg16
(lp495
F0.28413255999999998
asg18
(lp496
(lp497
F1.0
aasg21
S'H'
p498
sbag0
(g10
g2
Ntp499
Rp500
(dp501
g14
S'P'
p502
sg16
(lp503
F2.9133231999999998
asg18
(lp504
(lp505
F1.0
aasg21
S'H'
p506
sbag0
(g10
g2
Ntp507
Rp508
(dp509
g14
S'P'
p510
sg16
(lp511
F1.26212054
asg18
(lp512
(lp513
F1.0
aasg21
S'H'
p514
sbag0
(g10
g2
Ntp515
Rp516
(dp517
g14
S'P'
p518
sg16
(lp519
F0.50199775999999996
asg18
(lp520
(lp521
F1.0
aasg21
S'H'
p522
sbag0
(g10
g2
Ntp523
Rp524
(dp525
g14
S'D'
p526
sg16
(lp527
F2.8832083900000001
asg18
(lp528
(lp529
F1.0
aasg21
S'H'
p530
sbag0
(g10
g2
Ntp531
Rp532
(dp533
g14
S'D'
p534
sg16
(lp535
F1.2801701700000001
asg18
(lp536
(lp537
F1.0
aasg21
S'H'
p538
sbag0
(g10
g2
Ntp539
Rp540
(dp541
g14
S'D'
p542
sg16
(lp543
F0.52511317999999996
asg18
(lp544
(lp545
F1.0
aasg21
S'H'
p546
sbag0
(g10
g2
Ntp547
Rp548
(dp549
g14
S'F'
p550
sg16
(lp551
F2.7489448400000001
asg18
(lp552
(lp553
F1.0
aasg21
S'H'
p554
sbag0
(g10
g2
Ntp555
Rp556
(dp557
g14
S'F'
p558
sg16
(lp559
F1.19008855
asg18
(lp560
(lp561
F1.0
aasg21
S'H'
p562
sbag0
(g10
g2
Ntp563
Rp564
(dp565
g14
S'G'
p566
sg16
(lp567
F1.4752662700000001
asg18
(lp568
(lp569
F1.0
aasg21
S'H'
p570
sbasS'CL'
p571
(lp572
g0
(g10
g2
Ntp573
Rp574
(dp575
g14
S'S'
p576
sg16
(lp577
F7082.7970581
asg18
(lp578
(lp579
F1.0
aasg21
S'CL'
p580
sbag0
(g10
g2
Ntp581
Rp582
(dp583
g14
S'S'
p584
sg16
(lp585
F2109.3095076
asg18
(lp586
(lp587
F1.0
aasg21
S'CL'
p588
sbag0
(g10
g2
Ntp589
Rp590
(dp591
g14
S'S'
p592
sg16
(lp593
F768.41281873000003
asg18
(lp594
(lp595
F1.0
aasg21
S'CL'
p596
sbag0
(g10
g2
Ntp597
Rp598
(dp599
g14
S'S'
p600
sg16
(lp601
F284.79255416000001
asg18
(lp602
(lp603
F1.0
aasg21
S'CL'
p604
sbag0
(g10
g2
Ntp605
Rp606
(dp607
g14
S'S'
p608
sg16
(lp609
F116.55331731
asg18
(lp610
(lp611
F1.0
aasg21
S'CL'
p612
sbag0
(g10
g2
Ntp613
Rp614
(dp615
g14
S'S'
p616
sg16
(lp617
F46.394820989999999
asg18
(lp618
(lp619
F1.0
aasg21
S'CL'
p620
sbag0
(g10
g2
Ntp621
Rp622
(dp623
g14
S'S'
p624
sg16
(lp625
F21.956303389999999
asg18
(lp626
(lp627
F1.0
aasg21
S'CL'
p628
sbag0
(g10
g2
Ntp629
Rp630
(dp631
g14
S'S'
p632
sg16
(lp633
F9.9930272099999993
asg18
(lp634
(lp635
F1.0
aasg21
S'CL'
p636
sbag0
(g10
g2
Ntp637
Rp638
(dp639
g14
S'S'
p640
sg16
(lp641
F4.7199459600000004
asg18
(lp642
(lp643
F1.0
aasg21
S'CL'
p644
sbag0
(g10
g2
Ntp645
Rp646
(dp647
g14
S'S'
p648
sg16
(lp649
F2.6573396200000001
asg18
(lp650
(lp651
F1.0
aasg21
S'CL'
p652
sbag0
(g10
g2
Ntp653
Rp654
(dp655
g14
S'S'
p656
sg16
(lp657
F1.08134811
asg18
(lp658
(lp659
F1.0
aasg21
S'CL'
p660
sbag0
(g10
g2
Ntp661
Rp662
(dp663
g14
S'S'
p664
sg16
(lp665
F0.53154679000000005
asg18
(lp666
(lp667
F1.0
aasg21
S'CL'
p668
sbag0
(g10
g2
Ntp669
Rp670
(dp671
g14
S'S'
p672
sg16
(lp673
F0.23367039000000001
asg18
(lp674
(lp675
F1.0
aasg21
S'CL'
p676
sbag0
(g10
g2
Ntp677
Rp678
(dp679
g14
S'P'
p680
sg16
(lp681
F973.73528509000005
asg18
(lp682
(lp683
F1.0
aasg21
S'CL'
p684
sbag0
(g10
g2
Ntp685
Rp686
(dp687
g14
S'P'
p688
sg16
(lp689
F278.99109347000001
asg18
(lp690
(lp691
F1.0
aasg21
S'CL'
p692
sbag0
(g10
g2
Ntp693
Rp694
(dp695
g14
S'P'
p696
sg16
(lp697
F105.88644515999999
asg18
(lp698
(lp699
F1.0
aasg21
S'CL'
p700
sbag0
(g10
g2
Ntp701
Rp702
(dp703
g14
S'P'
p704
sg16
(lp705
F45.231846879999999
asg18
(lp706
(lp707
F1.0
aasg21
S'CL'
p708
sbag0
(g10
g2
Ntp709
Rp710
(dp711
g14
S'P'
p712
sg16
(lp713
F20.28916615
asg18
(lp714
(lp715
F1.0
aasg21
S'CL'
p716
sbag0
(g10
g2
Ntp717
Rp718
(dp719
g14
S'P'
p720
sg16
(lp721
F9.5829383799999999
asg18
(lp722
(lp723
F1.0
aasg21
S'CL'
p724
sbag0
(g10
g2
Ntp725
Rp726
(dp727
g14
S'P'
p728
sg16
(lp729
F4.4641678599999999
asg18
(lp730
(lp731
F1.0
aasg21
S'CL'
p732
sbag0
(g10
g2
Ntp733
Rp734
(dp735
g14
S'P'
p736
sg16
(lp737
F2.36256121
asg18
(lp738
(lp739
F1.0
aasg21
S'CL'
p740
sbag0
(g10
g2
Ntp741
Rp742
(dp743
g14
S'P'
p744
sg16
(lp745
F1.14919642
asg18
(lp746
(lp747
F1.0
aasg21
S'CL'
p748
sbag0
(g10
g2
Ntp749
Rp750
(dp751
g14
S'P'
p752
sg16
(lp753
F0.60310216999999999
asg18
(lp754
(lp755
F1.0
aasg21
S'CL'
p756
sbag0
(g10
g2
Ntp757
Rp758
(dp759
g14
S'P'
p760
sg16
(lp761
F0.30590910999999998
asg18
(lp762
(lp763
F1.0
aasg21
S'CL'
p764
sbag0
(g10
g2
Ntp765
Rp766
(dp767
g14
S'D'
p768
sg16
(lp769
F204.38030062999999
asg18
(lp770
(lp771
F1.0
aasg21
S'CL'
p772
sbag0
(g10
g2
Ntp773
Rp774
(dp775
g14
S'D'
p776
sg16
(lp777
F63.69389331
asg18
(lp778
(lp779
F1.0
aasg21
S'CL'
p780
sbag0
(g10
g2
Ntp781
Rp782
(dp783
g14
S'D'
p784
sg16
(lp785
F25.726668979999999
asg18
(lp786
(lp787
F1.0
aasg21
S'CL'
p788
sbag0
(g10
g2
Ntp789
Rp790
(dp791
g14
S'D'
p792
sg16
(lp793
F11.60246727
asg18
(lp794
(lp795
F1.0
aasg21
S'CL'
p796
sbag0
(g10
g2
Ntp797
Rp798
(dp799
g14
S'D'
p800
sg16
(lp801
F5.4574541500000002
asg18
(lp802
(lp803
F1.0
aasg21
S'CL'
p804
sbag0
(g10
g2
Ntp805
Rp806
(dp807
g14
S'D'
p808
sg16
(lp809
F2.8838397599999999
asg18
(lp810
(lp811
F1.0
aasg21
S'CL'
p812
sbag0
(g10
g2
Ntp813
Rp814
(dp815
g14
S'D'
p816
sg16
(lp817
F1.33940236
asg18
(lp818
(lp819
F1.0
aasg21
S'CL'
p820
sbag0
(g10
g2
Ntp821
Rp822
(dp823
g14
S'D'
p824
sg16
(lp825
F0.61649222000000004
asg18
(lp826
(lp827
F1.0
aasg21
S'CL'
p828
sbag0
(g10
g2
Ntp829
Rp830
(dp831
g14
S'D'
p832
sg16
(lp833
F0.27470143000000002
asg18
(lp834
(lp835
F1.0
aasg21
S'CL'
p836
sbag0
(g10
g2
Ntp837
Rp838
(dp839
g14
S'F'
p840
sg16
(lp841
F4.2040664000000003
asg18
(lp842
(lp843
F1.0
aasg21
S'CL'
p844
sbag0
(g10
g2
Ntp845
Rp846
(dp847
g14
S'F'
p848
sg16
(lp849
F0.37855
asg18
(lp850
(lp851
F1.0
aasg21
S'CL'
p852
sbag0
(g10
g2
Ntp853
Rp854
(dp855
g14
S'F'
p856
sg16
(lp857
F0.75255000000000005
asg18
(lp858
(lp859
F1.0
aasg21
S'CL'
p860
sbag0
(g10
g2
Ntp861
Rp862
(dp863
g14
S'F'
p864
sg16
(lp865
F1.6755500000000001
asg18
(lp866
(lp867
F1.0
aasg21
S'CL'
p868
sbag0
(g10
g2
Ntp869
Rp870
(dp871
g14
S'G'
p872
sg16
(lp873
F0.54754999999999998
asg18
(lp874
(lp875
F1.0
aasg21
S'CL'
p876
sbag0
(g10
g2
Ntp877
Rp878
(dp879
g14
S'G'
p880
sg16
(lp881
F1.2135499999999999
asg18
(lp882
(lp883
F1.0
aasg21
S'CL'
p884
sbag0
(g10
g2
Ntp885
Rp886
(dp887
g14
S'H'
p888
sg16
(lp889
F0.95155000000000001
asg18
(lp890
(lp891
F1.0
aasg21
S'CL'
p892
sbasS'NE'
p893
(lp894
sS'O'
p895
(lp896
g0
(g10
g2
Ntp897
Rp898
(dp899
g14
S'S'
p900
sg16
(lp901
F1517.8667505999999
asg18
(lp902
(lp903
F1.0
aasg21
S'O'
p904
sbag0
(g10
g2
Ntp905
Rp906
(dp907
g14
S'S'
p908
sg16
(lp909
F489.67952007999997
asg18
(lp910
(lp911
F1.0
aasg21
S'O'
p912
sbag0
(g10
g2
Ntp913
Rp914
(dp915
g14
S'S'
p916
sg16
(lp917
F176.72118664999999
asg18
(lp918
(lp919
F1.0
aasg21
S'O'
p920
sbag0
(g10
g2
Ntp921
Rp922
(dp923
g14
S'S'
p924
sg16
(lp925
F63.79223314
asg18
(lp926
(lp927
F1.0
aasg21
S'O'
p928
sbag0
(g10
g2
Ntp929
Rp930
(dp931
g14
S'S'
p932
sg16
(lp933
F25.366499130000001
asg18
(lp934
(lp935
F1.0
aasg21
S'O'
p936
sbag0
(g10
g2
Ntp937
Rp938
(dp939
g14
S'S'
p940
sg16
(lp941
F9.9135491200000008
asg18
(lp942
(lp943
F1.0
aasg21
S'O'
p944
sbag0
(g10
g2
Ntp945
Rp946
(dp947
g14
S'S'
p948
sg16
(lp949
F4.4645306600000003
asg18
(lp950
(lp951
F1.0
aasg21
S'O'
p952
sbag0
(g10
g2
Ntp953
Rp954
(dp955
g14
S'S'
p956
sg16
(lp957
F1.80177437
asg18
(lp958
(lp959
F1.0
aasg21
S'O'
p960
sbag0
(g10
g2
Ntp961
Rp962
(dp963
g14
S'S'
p964
sg16
(lp965
F0.80789710999999997
asg18
(lp966
(lp967
F1.0
aasg21
S'O'
p968
sbag0
(g10
g2
Ntp969
Rp970
(dp971
g14
S'S'
p972
sg16
(lp973
F0.33864327
asg18
(lp974
(lp975
F1.0
aasg21
S'O'
p976
sbag0
(g10
g2
Ntp977
Rp978
(dp979
g14
S'P'
p980
sg16
(lp981
F120.16030920999999
asg18
(lp982
(lp983
F1.0
aasg21
S'O'
p984
sbag0
(g10
g2
Ntp985
Rp986
(dp987
g14
S'P'
p988
sg16
(lp989
F34.409622470000002
asg18
(lp990
(lp991
F1.0
aasg21
S'O'
p992
sbag0
(g10
g2
Ntp993
Rp994
(dp995
g14
S'P'
p996
sg16
(lp997
F12.58114861
asg18
(lp998
(lp999
F1.0
aasg21
S'O'
p1000
sbag0
(g10
g2
Ntp1001
Rp1002
(dp1003
g14
S'P'
p1004
sg16
(lp1005
F5.0663824200000001
asg18
(lp1006
(lp1007
F1.0
aasg21
S'O'
p1008
sbag0
(g10
g2
Ntp1009
Rp1010
(dp1011
g14
S'P'
p1012
sg16
(lp1013
F2.0346927099999998
asg18
(lp1014
(lp1015
F1.0
aasg21
S'O'
p1016
sbag0
(g10
g2
Ntp1017
Rp1018
(dp1019
g14
S'P'
p1020
sg16
(lp1021
F0.86092966999999998
asg18
(lp1022
(lp1023
F1.0
aasg21
S'O'
p1024
sbag0
(g10
g2
Ntp1025
Rp1026
(dp1027
g14
S'P'
p1028
sg16
(lp1029
F0.36681356999999998
asg18
(lp1030
(lp1031
F1.0
aasg21
S'O'
p1032
sbag0
(g10
g2
Ntp1033
Rp1034
(dp1035
g14
S'D'
p1036
sg16
(lp1037
F19.043062809999999
asg18
(lp1038
(lp1039
F1.0
aasg21
S'O'
p1040
sbag0
(g10
g2
Ntp1041
Rp1042
(dp1043
g14
S'D'
p1044
sg16
(lp1045
F5.8060381100000003
asg18
(lp1046
(lp1047
F1.0
aasg21
S'O'
p1048
sbag0
(g10
g2
Ntp1049
Rp1050
(dp1051
g14
S'D'
p1052
sg16
(lp1053
F2.1891841599999999
asg18
(lp1054
(lp1055
F1.0
aasg21
S'O'
p1056
sbag0
(g10
g2
Ntp1057
Rp1058
(dp1059
g14
S'D'
p1060
sg16
(lp1061
F0.87794614000000004
asg18
(lp1062
(lp1063
F1.0
aasg21
S'O'
p1064
sbag0
(g10
g2
Ntp1065
Rp1066
(dp1067
g14
S'D'
p1068
sg16
(lp1069
F0.35623647000000003
asg18
(lp1070
(lp1071
F1.0
aasg21
S'O'
p1072
sbag0
(g10
g2
Ntp1073
Rp1074
(dp1075
g14
S'F'
p1076
sg16
(lp1077
F3.9658500000000001
asg18
(lp1078
(lp1079
F1.0
aasg21
S'O'
p1080
sbag0
(g10
g2
Ntp1081
Rp1082
(dp1083
g14
S'F'
p1084
sg16
(lp1085
F1.49085
asg18
(lp1086
(lp1087
F1.0
aasg21
S'O'
p1088
sbag0
(g10
g2
Ntp1089
Rp1090
(dp1091
g14
S'F'
p1092
sg16
(lp1093
F0.63485000000000003
asg18
(lp1094
(lp1095
F1.0
aasg21
S'O'
p1096
sbag0
(g10
g2
Ntp1097
Rp1098
(dp1099
g14
S'G'
p1100
sg16
(lp1101
F2.8568500000000001
asg18
(lp1102
(lp1103
F1.0
aasg21
S'O'
p1104
sbag0
(g10
g2
Ntp1105
Rp1106
(dp1107
g14
S'G'
p1108
sg16
(lp1109
F1.0498499999999999
asg18
(lp1110
(lp1111
F1.0
aasg21
S'O'
p1112
sbag0
(g10
g2
Ntp1113
Rp1114
(dp1115
g14
S'H'
p1116
sg16
(lp1117
F2.0368499999999998
asg18
(lp1118
(lp1119
F1.0
aasg21
S'O'
p1120
sbasS'N'
p1121
(lp1122
g0
(g10
g2
Ntp1123
Rp1124
(dp1125
g14
S'S'
p1126
sg16
(lp1127
F1102.8622453
asg18
(lp1128
(lp1129
F1.0
aasg21
S'N'
p1130
sbag0
(g10
g2
Ntp1131
Rp1132
(dp1133
g14
S'S'
p1134
sg16
(lp1135
F370.98041153000003
asg18
(lp1136
(lp1137
F1.0
aasg21
S'N'
p1138
sbag0
(g10
g2
Ntp1139
Rp1140
(dp1141
g14
S'S'
p1142
sg16
(lp1143
F136.73555938000001
asg18
(lp1144
(lp1145
F1.0
aasg21
S'N'
p1146
sbag0
(g10
g2
Ntp1147
Rp1148
(dp1149
g14
S'S'
p1150
sg16
(lp1151
F50.755871919999997
asg18
(lp1152
(lp1153
F1.0
aasg21
S'N'
p1154
sbag0
(g10
g2
Ntp1155
Rp1156
(dp1157
g14
S'S'
p1158
sg16
(lp1159
F20.535656100000001
asg18
(lp1160
(lp1161
F1.0
aasg21
S'N'
p1162
sbag0
(g10
g2
Ntp1163
Rp1164
(dp1165
g14
S'S'
p1166
sg16
(lp1167
F7.8318737199999999
asg18
(lp1168
(lp1169
F1.0
aasg21
S'N'
p1170
sbag0
(g10
g2
Ntp1171
Rp1172
(dp1173
g14
S'S'
p1174
sg16
(lp1175
F3.47840639
asg18
(lp1176
(lp1177
F1.0
aasg21
S'N'
p1178
sbag0
(g10
g2
Ntp1179
Rp1180
(dp1181
g14
S'S'
p1182
sg16
(lp1183
F1.4552856599999999
asg18
(lp1184
(lp1185
F1.0
aasg21
S'N'
p1186
sbag0
(g10
g2
Ntp1187
Rp1188
(dp1189
g14
S'S'
p1190
sg16
(lp1191
F0.63068988999999998
asg18
(lp1192
(lp1193
F1.0
aasg21
S'N'
p1194
sbag0
(g10
g2
Ntp1195
Rp1196
(dp1197
g14
S'S'
p1198
sg16
(lp1199
F0.27276595999999997
asg18
(lp1200
(lp1201
F1.0
aasg21
S'N'
p1202
sbag0
(g10
g2
Ntp1203
Rp1204
(dp1205
g14
S'P'
p1206
sg16
(lp1207
F93.540954069999998
asg18
(lp1208
(lp1209
F1.0
aasg21
S'N'
p1210
sbag0
(g10
g2
Ntp1211
Rp1212
(dp1213
g14
S'P'
p1214
sg16
(lp1215
F29.52401953
asg18
(lp1216
(lp1217
F1.0
aasg21
S'N'
p1218
sbag0
(g10
g2
Ntp1219
Rp1220
(dp1221
g14
S'P'
p1222
sg16
(lp1223
F10.917502989999999
asg18
(lp1224
(lp1225
F1.0
aasg21
S'N'
p1226
sbag0
(g10
g2
Ntp1227
Rp1228
(dp1229
g14
S'P'
p1230
sg16
(lp1231
F4.3449289000000002
asg18
(lp1232
(lp1233
F1.0
aasg21
S'N'
p1234
sbag0
(g10
g2
Ntp1235
Rp1236
(dp1237
g14
S'P'
p1238
sg16
(lp1239
F1.8216912599999999
asg18
(lp1240
(lp1241
F1.0
aasg21
S'N'
p1242
sbag0
(g10
g2
Ntp1243
Rp1244
(dp1245
g14
S'P'
p1246
sg16
(lp1247
F0.75792424000000003
asg18
(lp1248
(lp1249
F1.0
aasg21
S'N'
p1250
sbag0
(g10
g2
Ntp1251
Rp1252
(dp1253
g14
S'P'
p1254
sg16
(lp1255
F0.28241469000000002
asg18
(lp1256
(lp1257
F1.0
aasg21
S'N'
p1258
sbag0
(g10
g2
Ntp1259
Rp1260
(dp1261
g14
S'D'
p1262
sg16
(lp1263
F16.419378930000001
asg18
(lp1264
(lp1265
F1.0
aasg21
S'N'
p1266
sbag0
(g10
g2
Ntp1267
Rp1268
(dp1269
g14
S'D'
p1270
sg16
(lp1271
F5.0104049399999999
asg18
(lp1272
(lp1273
F1.0
aasg21
S'N'
p1274
sbag0
(g10
g2
Ntp1275
Rp1276
(dp1277
g14
S'D'
p1278
sg16
(lp1279
F1.97939719
asg18
(lp1280
(lp1281
F1.0
aasg21
S'N'
p1282
sbag0
(g10
g2
Ntp1283
Rp1284
(dp1285
g14
S'D'
p1286
sg16
(lp1287
F0.78495771999999997
asg18
(lp1288
(lp1289
F1.0
aasg21
S'N'
p1290
sbag0
(g10
g2
Ntp1291
Rp1292
(dp1293
g14
S'D'
p1294
sg16
(lp1295
F0.28954066000000001
asg18
(lp1296
(lp1297
F1.0
aasg21
S'N'
p1298
sbag0
(g10
g2
Ntp1299
Rp1300
(dp1301
g14
S'F'
p1302
sg16
(lp1303
F2.9860000000000002
asg18
(lp1304
(lp1305
F1.0
aasg21
S'N'
p1306
sbag0
(g10
g2
Ntp1307
Rp1308
(dp1309
g14
S'F'
p1310
sg16
(lp1311
F1.117
asg18
(lp1312
(lp1313
F1.0
aasg21
S'N'
p1314
sbag0
(g10
g2
Ntp1315
Rp1316
(dp1317
g14
S'F'
p1318
sg16
(lp1319
F0.48399999999999999
asg18
(lp1320
(lp1321
F1.0
aasg21
S'N'
p1322
sbag0
(g10
g2
Ntp1323
Rp1324
(dp1325
g14
S'G'
p1326
sg16
(lp1327
F2.1760000000000002
asg18
(lp1328
(lp1329
F1.0
aasg21
S'N'
p1330
sbag0
(g10
g2
Ntp1331
Rp1332
(dp1333
g14
S'G'
p1334
sg16
(lp1335
F0.83399999999999996
asg18
(lp1336
(lp1337
F1.0
aasg21
S'N'
p1338
sbag0
(g10
g2
Ntp1339
Rp1340
(dp1341
g14
S'H'
p1342
sg16
(lp1343
F1.5760000000000001
asg18
(lp1344
(lp1345
F1.0
aasg21
S'N'
p1346
sbasS'S'
p1347
(lp1348
g0
(g10
g2
Ntp1349
Rp1350
(dp1351
g14
S'S'
p1352
sg16
(lp1353
F6402.4580815999998
asg18
(lp1354
(lp1355
F1.0
aasg21
S'S'
p1356
sbag0
(g10
g2
Ntp1357
Rp1358
(dp1359
g14
S'S'
p1360
sg16
(lp1361
F1704.9249408000001
asg18
(lp1362
(lp1363
F1.0
aasg21
S'S'
p1364
sbag0
(g10
g2
Ntp1365
Rp1366
(dp1367
g14
S'S'
p1368
sg16
(lp1369
F598.09038903999999
asg18
(lp1370
(lp1371
F1.0
aasg21
S'S'
p1372
sbag0
(g10
g2
Ntp1373
Rp1374
(dp1375
g14
S'S'
p1376
sg16
(lp1377
F225.90920363999999
asg18
(lp1378
(lp1379
F1.0
aasg21
S'S'
p1380
sbag0
(g10
g2
Ntp1381
Rp1382
(dp1383
g14
S'S'
p1384
sg16
(lp1385
F94.426261909999994
asg18
(lp1386
(lp1387
F1.0
aasg21
S'S'
p1388
sbag0
(g10
g2
Ntp1389
Rp1390
(dp1391
g14
S'S'
p1392
sg16
(lp1393
F37.222420839999998
asg18
(lp1394
(lp1395
F1.0
aasg21
S'S'
p1396
sbag0
(g10
g2
Ntp1397
Rp1398
(dp1399
g14
S'S'
p1400
sg16
(lp1401
F18.25910653
asg18
(lp1402
(lp1403
F1.0
aasg21
S'S'
p1404
sbag0
(g10
g2
Ntp1405
Rp1406
(dp1407
g14
S'S'
p1408
sg16
(lp1409
F8.7937857299999997
asg18
(lp1410
(lp1411
F1.0
aasg21
S'S'
p1412
sbag0
(g10
g2
Ntp1413
Rp1414
(dp1415
g14
S'S'
p1416
sg16
(lp1417
F4.4619424700000003
asg18
(lp1418
(lp1419
F1.0
aasg21
S'S'
p1420
sbag0
(g10
g2
Ntp1421
Rp1422
(dp1423
g14
S'S'
p1424
sg16
(lp1425
F2.27359877
asg18
(lp1426
(lp1427
F1.0
aasg21
S'S'
p1428
sbag0
(g10
g2
Ntp1429
Rp1430
(dp1431
g14
S'S'
p1432
sg16
(lp1433
F0.78075395000000003
asg18
(lp1434
(lp1435
F1.0
aasg21
S'S'
p1436
sbag0
(g10
g2
Ntp1437
Rp1438
(dp1439
g14
S'S'
p1440
sg16
(lp1441
F0.48191154000000003
asg18
(lp1442
(lp1443
F1.0
aasg21
S'S'
p1444
sbag0
(g10
g2
Ntp1445
Rp1446
(dp1447
g14
S'S'
p1448
sg16
(lp1449
F0.21573555
asg18
(lp1450
(lp1451
F1.0
aasg21
S'S'
p1452
sbag0
(g10
g2
Ntp1453
Rp1454
(dp1455
g14
S'P'
p1456
sg16
(lp1457
F796.16481618
asg18
(lp1458
(lp1459
F1.0
aasg21
S'S'
p1460
sbag0
(g10
g2
Ntp1461
Rp1462
(dp1463
g14
S'P'
p1464
sg16
(lp1465
F226.17928266000001
asg18
(lp1466
(lp1467
F1.0
aasg21
S'S'
p1468
sbag0
(g10
g2
Ntp1469
Rp1470
(dp1471
g14
S'P'
p1472
sg16
(lp1473
F85.598645759999997
asg18
(lp1474
(lp1475
F1.0
aasg21
S'S'
p1476
sbag0
(g10
g2
Ntp1477
Rp1478
(dp1479
g14
S'P'
p1480
sg16
(lp1481
F36.26897838
asg18
(lp1482
(lp1483
F1.0
aasg21
S'S'
p1484
sbag0
(g10
g2
Ntp1485
Rp1486
(dp1487
g14
S'P'
p1488
sg16
(lp1489
F16.325206999999999
asg18
(lp1490
(lp1491
F1.0
aasg21
S'S'
p1492
sbag0
(g10
g2
Ntp1493
Rp1494
(dp1495
g14
S'P'
p1496
sg16
(lp1497
F7.6145421600000001
asg18
(lp1498
(lp1499
F1.0
aasg21
S'S'
p1500
sbag0
(g10
g2
Ntp1501
Rp1502
(dp1503
g14
S'P'
p1504
sg16
(lp1505
F3.338813
asg18
(lp1506
(lp1507
F1.0
aasg21
S'S'
p1508
sbag0
(g10
g2
Ntp1509
Rp1510
(dp1511
g14
S'P'
p1512
sg16
(lp1513
F1.86652215
asg18
(lp1514
(lp1515
F1.0
aasg21
S'S'
p1516
sbag0
(g10
g2
Ntp1517
Rp1518
(dp1519
g14
S'P'
p1520
sg16
(lp1521
F0.94025159999999997
asg18
(lp1522
(lp1523
F1.0
aasg21
S'S'
p1524
sbag0
(g10
g2
Ntp1525
Rp1526
(dp1527
g14
S'P'
p1528
sg16
(lp1529
F0.51521256000000004
asg18
(lp1530
(lp1531
F1.0
aasg21
S'S'
p1532
sbag0
(g10
g2
Ntp1533
Rp1534
(dp1535
g14
S'P'
p1536
sg16
(lp1537
F0.26318380000000002
asg18
(lp1538
(lp1539
F1.0
aasg21
S'S'
p1540
sbag0
(g10
g2
Ntp1541
Rp1542
(dp1543
g14
S'D'
p1544
sg16
(lp1545
F190.55658672000001
asg18
(lp1546
(lp1547
F1.0
aasg21
S'S'
p1548
sbag0
(g10
g2
Ntp1549
Rp1550
(dp1551
g14
S'D'
p1552
sg16
(lp1553
F60.346801429999999
asg18
(lp1554
(lp1555
F1.0
aasg21
S'S'
p1556
sbag0
(g10
g2
Ntp1557
Rp1558
(dp1559
g14
S'D'
p1560
sg16
(lp1561
F25.141967059999999
asg18
(lp1562
(lp1563
F1.0
aasg21
S'S'
p1564
sbag0
(g10
g2
Ntp1565
Rp1566
(dp1567
g14
S'D'
p1568
sg16
(lp1569
F12.1467682
asg18
(lp1570
(lp1571
F1.0
aasg21
S'S'
p1572
sbag0
(g10
g2
Ntp1573
Rp1574
(dp1575
g14
S'D'
p1576
sg16
(lp1577
F6.2993488099999997
asg18
(lp1578
(lp1579
F1.0
aasg21
S'S'
p1580
sbag0
(g10
g2
Ntp1581
Rp1582
(dp1583
g14
S'D'
p1584
sg16
(lp1585
F3.0706106700000002
asg18
(lp1586
(lp1587
F1.0
aasg21
S'S'
p1588
sbag0
(g10
g2
Ntp1589
Rp1590
(dp1591
g14
S'D'
p1592
sg16
(lp1593
F1.2911977800000001
asg18
(lp1594
(lp1595
F1.0
aasg21
S'S'
p1596
sbag0
(g10
g2
Ntp1597
Rp1598
(dp1599
g14
S'D'
p1600
sg16
(lp1601
F0.56678603000000005
asg18
(lp1602
(lp1603
F1.0
aasg21
S'S'
p1604
sbag0
(g10
g2
Ntp1605
Rp1606
(dp1607
g14
S'D'
p1608
sg16
(lp1609
F0.24192419000000001
asg18
(lp1610
(lp1611
F1.0
aasg21
S'S'
p1612
sbag0
(g10
g2
Ntp1613
Rp1614
(dp1615
g14
S'F'
p1616
sg16
(lp1617
F3.3096133000000001
asg18
(lp1618
(lp1619
F1.0
aasg21
S'S'
p1620
sbag0
(g10
g2
Ntp1621
Rp1622
(dp1623
g14
S'F'
p1624
sg16
(lp1625
F0.30667
asg18
(lp1626
(lp1627
F1.0
aasg21
S'S'
p1628
sbag0
(g10
g2
Ntp1629
Rp1630
(dp1631
g14
S'F'
p1632
sg16
(lp1633
F0.60767000000000004
asg18
(lp1634
(lp1635
F1.0
aasg21
S'S'
p1636
sbag0
(g10
g2
Ntp1637
Rp1638
(dp1639
g14
S'F'
p1640
sg16
(lp1641
F1.3536699999999999
asg18
(lp1642
(lp1643
F1.0
aasg21
S'S'
p1644
sbag0
(g10
g2
Ntp1645
Rp1646
(dp1647
g14
S'G'
p1648
sg16
(lp1649
F0.43867
asg18
(lp1650
(lp1651
F1.0
aasg21
S'S'
p1652
sbag0
(g10
g2
Ntp1653
Rp1654
(dp1655
g14
S'G'
p1656
sg16
(lp1657
F0.97267000000000003
asg18
(lp1658
(lp1659
F1.0
aasg21
S'S'
p1660
sbag0
(g10
g2
Ntp1661
Rp1662
(dp1663
g14
S'H'
p1664
sg16
(lp1665
F0.78666999999999998
asg18
(lp1666
(lp1667
F1.0
aasg21
S'S'
p1668
sbag0
(g10
g2
Ntp1669
Rp1670
(dp1671
g14
S'S'
p1672
sg16
(lp1673
F29056.449629999999
asg18
(lp1674
(lp1675
F1.0
aasg21
S'S'
p1676
sbag0
(g10
g2
Ntp1677
Rp1678
(dp1679
g14
S'S'
p1680
sg16
(lp1681
F7789.3929019999996
asg18
(lp1682
(lp1683
F1.0
aasg21
S'S'
p1684
sbag0
(g10
g2
Ntp1685
Rp1686
(dp1687
g14
S'S'
p1688
sg16
(lp1689
F3115.0226965000002
asg18
(lp1690
(lp1691
F1.0
aasg21
S'S'
p1692
sbag0
(g10
g2
Ntp1693
Rp1694
(dp1695
g14
S'S'
p1696
sg16
(lp1697
F1219.4815189999999
asg18
(lp1698
(lp1699
F1.0
aasg21
S'S'
p1700
sbag0
(g10
g2
Ntp1701
Rp1702
(dp1703
g14
S'S'
p1704
sg16
(lp1705
F499.45157938
asg18
(lp1706
(lp1707
F1.0
aasg21
S'S'
p1708
sbag0
(g10
g2
Ntp1709
Rp1710
(dp1711
g14
S'S'
p1712
sg16
(lp1713
F198.66199714000001
asg18
(lp1714
(lp1715
F1.0
aasg21
S'S'
p1716
sbag0
(g10
g2
Ntp1717
Rp1718
(dp1719
g14
S'S'
p1720
sg16
(lp1721
F91.470410450000003
asg18
(lp1722
(lp1723
F1.0
aasg21
S'S'
p1724
sbag0
(g10
g2
Ntp1725
Rp1726
(dp1727
g14
S'S'
p1728
sg16
(lp1729
F45.410963459999998
asg18
(lp1730
(lp1731
F1.0
aasg21
S'S'
p1732
sbag0
(g10
g2
Ntp1733
Rp1734
(dp1735
g14
S'S'
p1736
sg16
(lp1737
F21.655233890000002
asg18
(lp1738
(lp1739
F1.0
aasg21
S'S'
p1740
sbag0
(g10
g2
Ntp1741
Rp1742
(dp1743
g14
S'S'
p1744
sg16
(lp1745
F12.268480569999999
asg18
(lp1746
(lp1747
F1.0
aasg21
S'S'
p1748
sbag0
(g10
g2
Ntp1749
Rp1750
(dp1751
g14
S'S'
p1752
sg16
(lp1753
F5.3458507600000003
asg18
(lp1754
(lp1755
F1.0
aasg21
S'S'
p1756
sbag0
(g10
g2
Ntp1757
Rp1758
(dp1759
g14
S'S'
p1760
sg16
(lp1761
F2.5087512900000002
asg18
(lp1762
(lp1763
F1.0
aasg21
S'S'
p1764
sbag0
(g10
g2
Ntp1765
Rp1766
(dp1767
g14
S'S'
p1768
sg16
(lp1769
F1.2426796499999999
asg18
(lp1770
(lp1771
F1.0
aasg21
S'S'
p1772
sbag0
(g10
g2
Ntp1773
Rp1774
(dp1775
g14
S'S'
p1776
sg16
(lp1777
F0.69509887999999997
asg18
(lp1778
(lp1779
F1.0
aasg21
S'S'
p1780
sbag0
(g10
g2
Ntp1781
Rp1782
(dp1783
g14
S'S'
p1784
sg16
(lp1785
F0.33790126999999998
asg18
(lp1786
(lp1787
F1.0
aasg21
S'S'
p1788
sbag0
(g10
g2
Ntp1789
Rp1790
(dp1791
g14
S'S'
p1792
sg16
(lp1793
F0.15326174000000001
asg18
(lp1794
(lp1795
F1.0
aasg21
S'S'
p1796
sbag0
(g10
g2
Ntp1797
Rp1798
(dp1799
g14
S'P'
p1800
sg16
(lp1801
F4192.9053911000001
asg18
(lp1802
(lp1803
F1.0
aasg21
S'S'
p1804
sbag0
(g10
g2
Ntp1805
Rp1806
(dp1807
g14
S'P'
p1808
sg16
(lp1809
F1307.4981236000001
asg18
(lp1810
(lp1811
F1.0
aasg21
S'S'
p1812
sbag0
(g10
g2
Ntp1813
Rp1814
(dp1815
g14
S'P'
p1816
sg16
(lp1817
F530.51279605000002
asg18
(lp1818
(lp1819
F1.0
aasg21
S'S'
p1820
sbag0
(g10
g2
Ntp1821
Rp1822
(dp1823
g14
S'P'
p1824
sg16
(lp1825
F234.91478017
asg18
(lp1826
(lp1827
F1.0
aasg21
S'S'
p1828
sbag0
(g10
g2
Ntp1829
Rp1830
(dp1831
g14
S'P'
p1832
sg16
(lp1833
F102.88158977000001
asg18
(lp1834
(lp1835
F1.0
aasg21
S'S'
p1836
sbag0
(g10
g2
Ntp1837
Rp1838
(dp1839
g14
S'P'
p1840
sg16
(lp1841
F51.931837629999997
asg18
(lp1842
(lp1843
F1.0
aasg21
S'S'
p1844
sbag0
(g10
g2
Ntp1845
Rp1846
(dp1847
g14
S'P'
p1848
sg16
(lp1849
F27.089778549999998
asg18
(lp1850
(lp1851
F1.0
aasg21
S'S'
p1852
sbag0
(g10
g2
Ntp1853
Rp1854
(dp1855
g14
S'P'
p1856
sg16
(lp1857
F13.91551417
asg18
(lp1858
(lp1859
F1.0
aasg21
S'S'
p1860
sbag0
(g10
g2
Ntp1861
Rp1862
(dp1863
g14
S'P'
p1864
sg16
(lp1865
F7.0649308399999997
asg18
(lp1866
(lp1867
F1.0
aasg21
S'S'
p1868
sbag0
(g10
g2
Ntp1869
Rp1870
(dp1871
g14
S'P'
p1872
sg16
(lp1873
F3.6229296799999999
asg18
(lp1874
(lp1875
F1.0
aasg21
S'S'
p1876
sbag0
(g10
g2
Ntp1877
Rp1878
(dp1879
g14
S'P'
p1880
sg16
(lp1881
F1.8016657599999999
asg18
(lp1882
(lp1883
F1.0
aasg21
S'S'
p1884
sbag0
(g10
g2
Ntp1885
Rp1886
(dp1887
g14
S'P'
p1888
sg16
(lp1889
F0.71178911
asg18
(lp1890
(lp1891
F1.0
aasg21
S'S'
p1892
sbag0
(g10
g2
Ntp1893
Rp1894
(dp1895
g14
S'P'
p1896
sg16
(lp1897
F0.42241171
asg18
(lp1898
(lp1899
F1.0
aasg21
S'S'
p1900
sbag0
(g10
g2
Ntp1901
Rp1902
(dp1903
g14
S'P'
p1904
sg16
(lp1905
F0.21074577999999999
asg18
(lp1906
(lp1907
F1.0
aasg21
S'S'
p1908
sbag0
(g10
g2
Ntp1909
Rp1910
(dp1911
g14
S'D'
p1912
sg16
(lp1913
F1031.134648
asg18
(lp1914
(lp1915
F1.0
aasg21
S'S'
p1916
sbag0
(g10
g2
Ntp1917
Rp1918
(dp1919
g14
S'D'
p1920
sg16
(lp1921
F329.70319071
asg18
(lp1922
(lp1923
F1.0
aasg21
S'S'
p1924
sbag0
(g10
g2
Ntp1925
Rp1926
(dp1927
g14
S'D'
p1928
sg16
(lp1929
F136.47043977000001
asg18
(lp1930
(lp1931
F1.0
aasg21
S'S'
p1932
sbag0
(g10
g2
Ntp1933
Rp1934
(dp1935
g14
S'D'
p1936
sg16
(lp1937
F64.107044290000005
asg18
(lp1938
(lp1939
F1.0
aasg21
S'S'
p1940
sbag0
(g10
g2
Ntp1941
Rp1942
(dp1943
g14
S'D'
p1944
sg16
(lp1945
F31.93907102
asg18
(lp1946
(lp1947
F1.0
aasg21
S'S'
p1948
sbag0
(g10
g2
Ntp1949
Rp1950
(dp1951
g14
S'D'
p1952
sg16
(lp1953
F15.92694666
asg18
(lp1954
(lp1955
F1.0
aasg21
S'S'
p1956
sbag0
(g10
g2
Ntp1957
Rp1958
(dp1959
g14
S'D'
p1960
sg16
(lp1961
F8.1339314999999992
asg18
(lp1962
(lp1963
F1.0
aasg21
S'S'
p1964
sbag0
(g10
g2
Ntp1965
Rp1966
(dp1967
g14
S'D'
p1968
sg16
(lp1969
F4.1572662300000003
asg18
(lp1970
(lp1971
F1.0
aasg21
S'S'
p1972
sbag0
(g10
g2
Ntp1973
Rp1974
(dp1975
g14
S'D'
p1976
sg16
(lp1977
F2.0135122999999999
asg18
(lp1978
(lp1979
F1.0
aasg21
S'S'
p1980
sbag0
(g10
g2
Ntp1981
Rp1982
(dp1983
g14
S'D'
p1984
sg16
(lp1985
F0.87861210000000001
asg18
(lp1986
(lp1987
F1.0
aasg21
S'S'
p1988
sbag0
(g10
g2
Ntp1989
Rp1990
(dp1991
g14
S'D'
p1992
sg16
(lp1993
F0.45642618000000001
asg18
(lp1994
(lp1995
F1.0
aasg21
S'S'
p1996
sbag0
(g10
g2
Ntp1997
Rp1998
(dp1999
g14
S'D'
p2000
sg16
(lp2001
F0.20057396999999999
asg18
(lp2002
(lp2003
F1.0
aasg21
S'S'
p2004
sbag0
(g10
g2
Ntp2005
Rp2006
(dp2007
g14
S'F'
p2008
sg16
(lp2009
F225.95276115999999
asg18
(lp2010
(lp2011
F1.0
aasg21
S'S'
p2012
sbag0
(g10
g2
Ntp2013
Rp2014
(dp2015
g14
S'F'
p2016
sg16
(lp2017
F86.124450879999998
asg18
(lp2018
(lp2019
F1.0
aasg21
S'S'
p2020
sbag0
(g10
g2
Ntp2021
Rp2022
(dp2023
g14
S'F'
p2024
sg16
(lp2025
F39.08459551
asg18
(lp2026
(lp2027
F1.0
aasg21
S'S'
p2028
sbag0
(g10
g2
Ntp2029
Rp2030
(dp2031
g14
S'F'
p2032
sg16
(lp2033
F18.270584150000001
asg18
(lp2034
(lp2035
F1.0
aasg21
S'S'
p2036
sbag0
(g10
g2
Ntp2037
Rp2038
(dp2039
g14
S'F'
p2040
sg16
(lp2041
F9.2240269099999992
asg18
(lp2042
(lp2043
F1.0
aasg21
S'S'
p2044
sbag0
(g10
g2
Ntp2045
Rp2046
(dp2047
g14
S'F'
p2048
sg16
(lp2049
F4.6658028800000002
asg18
(lp2050
(lp2051
F1.0
aasg21
S'S'
p2052
sbag0
(g10
g2
Ntp2053
Rp2054
(dp2055
g14
S'F'
p2056
sg16
(lp2057
F2.3111212999999999
asg18
(lp2058
(lp2059
F1.0
aasg21
S'S'
p2060
sbag0
(g10
g2
Ntp2061
Rp2062
(dp2063
g14
S'F'
p2064
sg16
(lp2065
F0.99548225000000001
asg18
(lp2066
(lp2067
F1.0
aasg21
S'S'
p2068
sbag0
(g10
g2
Ntp2069
Rp2070
(dp2071
g14
S'G'
p2072
sg16
(lp2073
F63.150620250000003
asg18
(lp2074
(lp2075
F1.0
aasg21
S'S'
p2076
sbag0
(g10
g2
Ntp2077
Rp2078
(dp2079
g14
S'G'
p2080
sg16
(lp2081
F23.823207969999999
asg18
(lp2082
(lp2083
F1.0
aasg21
S'S'
p2084
sbag0
(g10
g2
Ntp2085
Rp2086
(dp2087
g14
S'G'
p2088
sg16
(lp2089
F10.54349285
asg18
(lp2090
(lp2091
F1.0
aasg21
S'S'
p2092
sbag0
(g10
g2
Ntp2093
Rp2094
(dp2095
g14
S'G'
p2096
sg16
(lp2097
F4.9122517700000001
asg18
(lp2098
(lp2099
F1.0
aasg21
S'S'
p2100
sbag0
(g10
g2
Ntp2101
Rp2102
(dp2103
g14
S'G'
p2104
sg16
(lp2105
F2.2938738399999998
asg18
(lp2106
(lp2107
F1.0
aasg21
S'S'
p2108
sbag0
(g10
g2
Ntp2109
Rp2110
(dp2111
g14
S'G'
p2112
sg16
(lp2113
F0.88962182999999995
asg18
(lp2114
(lp2115
F1.0
aasg21
S'S'
p2116
sbag0
(g10
g2
Ntp2117
Rp2118
(dp2119
g14
S'F'
p2120
sg16
(lp2121
F0.3937505
asg18
(lp2122
(lp2123
F1.0
aasg21
S'S'
p2124
sbag0
(g10
g2
Ntp2125
Rp2126
(dp2127
g14
S'F'
p2128
sg16
(lp2129
F0.20462549999999999
asg18
(lp2130
(lp2131
F1.0
aasg21
S'S'
p2132
sbag0
(g10
g2
Ntp2133
Rp2134
(dp2135
g14
S'G'
p2136
sg16
(lp2137
F0.33862550000000002
asg18
(lp2138
(lp2139
F1.0
aasg21
S'S'
p2140
sbag0
(g10
g2
Ntp2141
Rp2142
(dp2143
g14
S'H'
p2144
sg16
(lp2145
F0.78666999999999998
asg18
(lp2146
(lp2147
F1.0
aasg21
S'S'
p2148
sbassb.