ccopy_reg
_reconstructor
p0
(cbasisset
BasisSet
p1
c__builtin__
object
p2
Ntp3
Rp4
(dp5
S'basisDictionary'
p6
(dp7
S'H'
p8
(lp9
g0
(cbasisset
Shell
p10
g2
Ntp11
Rp12
(dp13
S'angularMomentum'
p14
S'S'
p15
sS'exponents'
p16
(lp17
F33.869999999999997
asS'coefficients'
p18
(lp19
(lp20
F1.0
aasS'atom'
p21
S' H'
p22
sbag0
(g10
g2
Ntp23
Rp24
(dp25
g14
S'S'
p26
sg16
(lp27
F5.0949999999999998
asg18
(lp28
(lp29
F1.0
aasg21
S' H'
p30
sbag0
(g10
g2
Ntp31
Rp32
(dp33
g14
S'S'
p34
sg16
(lp35
F1.159
asg18
(lp36
(lp37
F1.0
aasg21
S' H'
p38
sbag0
(g10
g2
Ntp39
Rp40
(dp41
g14
S'S'
p42
sg16
(lp43
F0.32579999999999998
asg18
(lp44
(lp45
F1.0
aasg21
S' H'
p46
sbag0
(g10
g2
Ntp47
Rp48
(dp49
g14
S'S'
p50
sg16
(lp51
F0.1027
asg18
(lp52
(lp53
F1.0
aasg21
S' H'
p54
sbag0
(g10
g2
Ntp55
Rp56
(dp57
g14
S'P'
p58
sg16
(lp59
F1.407
asg18
(lp60
(lp61
F1.0
aasg21
S' H'
p62
sbag0
(g10
g2
Ntp63
Rp64
(dp65
g14
S'P'
p66
sg16
(lp67
F0.38800000000000001
asg18
(lp68
(lp69
F1.0
aasg21
S' H'
p70
sbag0
(g10
g2
Ntp71
Rp72
(dp73
g14
S'D'
p74
sg16
(lp75
F1.0569999999999999
asg18
(lp76
(lp77
F1.0
aasg21
S' H'
p78
sbag0
(g10
g2
Ntp79
Rp80
(dp81
S'angularMomentum'
p82
S'S'
p83
sS'exponents'
p84
(lp85
F372.56999999999999
asS'coefficients'
p86
(lp87
(lp88
F1.0
aasS'atom'
p89
S'H'
p90
sbag0
(g10
g2
Ntp91
Rp92
(dp93
g82
S'S'
p94
sg84
(lp95
F812.87999999999988
asg86
(lp96
(lp97
F1.0
aasg89
S'H'
p98
sbag0
(g10
g2
Ntp99
Rp100
(dp101
g82
S'P'
p102
sg84
(lp103
F14.07
asg86
(lp104
(lp105
F1.0
aasg89
S'H'
p106
sbag0
(g10
g2
Ntp107
Rp108
(dp109
g82
S'D'
p110
sg84
(lp111
F2.1139999999999999
asg86
(lp112
(lp113
F1.0
aasg89
S'H'
p114
sbasS'C'
p115
(lp116
g0
(g10
g2
Ntp117
Rp118
(dp119
S'angularMomentum'
p120
S'S'
p121
sS'exponents'
p122
(lp123
F8236.0
asS'coefficients'
p124
(lp125
(lp126
F1.0
aasS'atom'
p127
S' C'
p128
sbag0
(g10
g2
Ntp129
Rp130
(dp131
g120
S'S'
p132
sg122
(lp133
F1235.0
asg124
(lp134
(lp135
F1.0
aasg127
S' C'
p136
sbag0
(g10
g2
Ntp137
Rp138
(dp139
g120
S'S'
p140
sg122
(lp141
F280.80000000000001
asg124
(lp142
(lp143
F1.0
aasg127
S' C'
p144
sbag0
(g10
g2
Ntp145
Rp146
(dp147
g120
S'S'
p148
sg122
(lp149
F79.269999999999996
asg124
(lp150
(lp151
F1.0
aasg127
S' C'
p152
sbag0
(g10
g2
Ntp153
Rp154
(dp155
g120
S'S'
p156
sg122
(lp157
F25.59
asg124
(lp158
(lp159
F1.0
aasg127
S' C'
p160
sbag0
(g10
g2
Ntp161
Rp162
(dp163
g120
S'S'
p164
sg122
(lp165
F8.9969999999999999
asg124
(lp166
(lp167
F1.0
aasg127
S' C'
p168
sbag0
(g10
g2
Ntp169
Rp170
(dp171
g120
S'S'
p172
sg122
(lp173
F3.319
asg124
(lp174
(lp175
F1.0
aasg127
S' C'
p176
sbag0
(g10
g2
Ntp177
Rp178
(dp179
g120
S'S'
p180
sg122
(lp181
F0.36430000000000001
asg124
(lp182
(lp183
F1.0
aasg127
S' C'
p184
sbag0
(g10
g2
Ntp185
Rp186
(dp187
g120
S'S'
p188
sg122
(lp189
F0.90590000000000004
asg124
(lp190
(lp191
F1.0
aasg127
S' C'
p192
sbag0
(g10
g2
Ntp193
Rp194
(dp195
g120
S'S'
p196
sg122
(lp197
F0.1285
asg124
(lp198
(lp199
F1.0
aasg127
S' C'
p200
sbag0
(g10
g2
Ntp201
Rp202
(dp203
g120
S'P'
p204
sg122
(lp205
F18.710000000000001
asg124
(lp206
(lp207
F1.0
aasg127
S' C'
p208
sbag0
(g10
g2
Ntp209
Rp210
(dp211
g120
S'P'
p212
sg122
(lp213
F4.133
asg124
(lp214
(lp215
F1.0
aasg127
S' C'
p216
sbag0
(g10
g2
Ntp217
Rp218
(dp219
g120
S'P'
p220
sg122
(lp221
F1.2
asg124
(lp222
(lp223
F1.0
aasg127
S' C'
p224
sbag0
(g10
g2
Ntp225
Rp226
(dp227
g120
S'P'
p228
sg122
(lp229
F0.38269999999999998
asg124
(lp230
(lp231
F1.0
aasg127
S' C'
p232
sbag0
(g10
g2
Ntp233
Rp234
(dp235
g120
S'P'
p236
sg122
(lp237
F0.12089999999999999
asg124
(lp238
(lp239
F1.0
aasg127
S' C'
p240
sbag0
(g10
g2
Ntp241
Rp242
(dp243
g120
S'D'
p244
sg122
(lp245
F1.097
asg124
(lp246
(lp247
F1.0
aasg127
S' C'
p248
sbag0
(g10
g2
Ntp249
Rp250
(dp251
g120
S'D'
p252
sg122
(lp253
F0.318
asg124
(lp254
(lp255
F1.0
aasg127
S' C'
p256
sbag0
(g10
g2
Ntp257
Rp258
(dp259
g120
S'F'
p260
sg122
(lp261
F0.76100000000000001
asg124
(lp262
(lp263
F1.0
aasg127
S' C'
p264
sbag0
(g10
g2
Ntp265
Rp266
(dp267
g82
S'S'
p268
sg84
(lp269
F90596.0
asg86
(lp270
(lp271
F1.0
aasg89
S'C'
p272
sbag0
(g10
g2
Ntp273
Rp274
(dp275
g82
S'S'
p276
sg84
(lp277
F214136.0
asg86
(lp278
(lp279
F1.0
aasg89
S'C'
p280
sbag0
(g10
g2
Ntp281
Rp282
(dp283
g82
S'P'
p284
sg84
(lp285
F112.26000000000001
asg86
(lp286
(lp287
F1.0
aasg89
S'C'
p288
sbag0
(g10
g2
Ntp289
Rp290
(dp291
g82
S'D'
p292
sg84
(lp293
F4.3879999999999999
asg86
(lp294
(lp295
F1.0
aasg89
S'C'
p296
sbasS'S'
p297
(lp298
g0
(g10
g2
Ntp299
Rp300
(dp301
S'angularMomentum'
p302
S'S'
p303
sS'exponents'
p304
(lp305
F374100.0
asS'coefficients'
p306
(lp307
(lp308
F1.0
aasS'atom'
p309
S' S'
p310
sbag0
(g10
g2
Ntp311
Rp312
(dp313
g302
S'S'
p314
sg304
(lp315
F56050.0
asg306
(lp316
(lp317
F1.0
aasg309
S' S'
p318
sbag0
(g10
g2
Ntp319
Rp320
(dp321
g302
S'S'
p322
sg304
(lp323
F12760.0
asg306
(lp324
(lp325
F1.0
aasg309
S' S'
p326
sbag0
(g10
g2
Ntp327
Rp328
(dp329
g302
S'S'
p330
sg304
(lp331
F3615.0
asg306
(lp332
(lp333
F1.0
aasg309
S' S'
p334
sbag0
(g10
g2
Ntp335
Rp336
(dp337
g302
S'S'
p338
sg304
(lp339
F1183.0
asg306
(lp340
(lp341
F1.0
aasg309
S' S'
p342
sbag0
(g10
g2
Ntp343
Rp344
(dp345
g302
S'S'
p346
sg304
(lp347
F428.80000000000001
asg306
(lp348
(lp349
F1.0
aasg309
S' S'
p350
sbag0
(g10
g2
Ntp351
Rp352
(dp353
g302
S'S'
p354
sg304
(lp355
F167.80000000000001
asg306
(lp356
(lp357
F1.0
aasg309
S' S'
p358
sbag0
(g10
g2
Ntp359
Rp360
(dp361
g302
S'S'
p362
sg304
(lp363
F69.469999999999999
asg306
(lp364
(lp365
F1.0
aasg309
S' S'
p366
sbag0
(g10
g2
Ntp367
Rp368
(dp369
g302
S'S'
p370
sg304
(lp371
F29.84
asg306
(lp372
(lp373
F1.0
aasg309
S' S'
p374
sbag0
(g10
g2
Ntp375
Rp376
(dp377
g302
S'S'
p378
sg304
(lp379
F12.720000000000001
asg306
(lp380
(lp381
F1.0
aasg309
S' S'
p382
sbag0
(g10
g2
Ntp383
Rp384
(dp385
g302
S'S'
p386
sg304
(lp387
F5.2439999999999998
asg306
(lp388
(lp389
F1.0
aasg309
S' S'
p390
sbag0
(g10
g2
Ntp391
Rp392
(dp393
g302
S'S'
p394
sg304
(lp395
F2.2189999999999999
asg306
(lp396
(lp397
F1.0
aasg309
S' S'
p398
sbag0
(g10
g2
Ntp399
Rp400
(dp401
g302
S'S'
p402
sg304
(lp403
F0.34899999999999998
asg306
(lp404
(lp405
F1.0
aasg309
S' S'
p406
sbag0
(g10
g2
Ntp407
Rp408
(dp409
g302
S'S'
p410
sg304
(lp411
F0.77669999999999995
asg306
(lp412
(lp413
F1.0
aasg309
S' S'
p414
sbag0
(g10
g2
Ntp415
Rp416
(dp417
g302
S'S'
p418
sg304
(lp419
F0.13220000000000001
asg306
(lp420
(lp421
F1.0
aasg309
S' S'
p422
sbag0
(g10
g2
Ntp423
Rp424
(dp425
g302
S'P'
p426
sg304
(lp427
F574.39999999999998
asg306
(lp428
(lp429
F1.0
aasg309
S' S'
p430
sbag0
(g10
g2
Ntp431
Rp432
(dp433
g302
S'P'
p434
sg304
(lp435
F135.80000000000001
asg306
(lp436
(lp437
F1.0
aasg309
S' S'
p438
sbag0
(g10
g2
Ntp439
Rp440
(dp441
g302
S'P'
p442
sg304
(lp443
F43.189999999999998
asg306
(lp444
(lp445
F1.0
aasg309
S' S'
p446
sbag0
(g10
g2
Ntp447
Rp448
(dp449
g302
S'P'
p450
sg304
(lp451
F15.869999999999999
asg306
(lp452
(lp453
F1.0
aasg309
S' S'
p454
sbag0
(g10
g2
Ntp455
Rp456
(dp457
g302
S'P'
p458
sg304
(lp459
F6.2080000000000002
asg306
(lp460
(lp461
F1.0
aasg309
S' S'
p462
sbag0
(g10
g2
Ntp463
Rp464
(dp465
g302
S'P'
p466
sg304
(lp467
F2.4830000000000001
asg306
(lp468
(lp469
F1.0
aasg309
S' S'
p470
sbag0
(g10
g2
Ntp471
Rp472
(dp473
g302
S'P'
p474
sg304
(lp475
F0.32290000000000002
asg306
(lp476
(lp477
F1.0
aasg309
S' S'
p478
sbag0
(g10
g2
Ntp479
Rp480
(dp481
g302
S'P'
p482
sg304
(lp483
F0.86880000000000002
asg306
(lp484
(lp485
F1.0
aasg309
S' S'
p486
sbag0
(g10
g2
Ntp487
Rp488
(dp489
g302
S'P'
p490
sg304
(lp491
F0.10979999999999999
asg306
(lp492
(lp493
F1.0
aasg309
S' S'
p494
sbag0
(g10
g2
Ntp495
Rp496
(dp497
g302
S'D'
p498
sg304
(lp499
F0.26900000000000002
asg306
(lp500
(lp501
F1.0
aasg309
S' S'
p502
sbag0
(g10
g2
Ntp503
Rp504
(dp505
g302
S'D'
p506
sg304
(lp507
F0.81899999999999995
asg306
(lp508
(lp509
F1.0
aasg309
S' S'
p510
sbag0
(g10
g2
Ntp511
Rp512
(dp513
g302
S'F'
p514
sg304
(lp515
F0.55700000000000005
asg306
(lp516
(lp517
F1.0
aasg309
S' S'
p518
sbag0
(g10
g2
Ntp519
Rp520
(dp521
g82
S'S'
p522
sg84
(lp523
F4115100.0
asg86
(lp524
(lp525
F1.0
aasg89
S'S'
p526
sbag0
(g10
g2
Ntp527
Rp528
(dp529
g82
S'S'
p530
sg84
(lp531
F9726600.0
asg86
(lp532
(lp533
F1.0
aasg89
S'S'
p534
sbag0
(g10
g2
Ntp535
Rp536
(dp537
g82
S'P'
p538
sg84
(lp539
F3446.3999999999996
asg86
(lp540
(lp541
F1.0
aasg89
S'S'
p542
sbag0
(g10
g2
Ntp543
Rp544
(dp545
g82
S'D'
p546
sg84
(lp547
F3.2759999999999998
asg86
(lp548
(lp549
F1.0
aasg89
S'S'
p550
sbasS'O'
p551
(lp552
g0
(g10
g2
Ntp553
Rp554
(dp555
S'angularMomentum'
p556
S'S'
p557
sS'exponents'
p558
(lp559
F15330.0
asS'coefficients'
p560
(lp561
(lp562
F1.0
aasS'atom'
p563
S' O'
p564
sbag0
(g10
g2
Ntp565
Rp566
(dp567
g556
S'S'
p568
sg558
(lp569
F2299.0
asg560
(lp570
(lp571
F1.0
aasg563
S' O'
p572
sbag0
(g10
g2
Ntp573
Rp574
(dp575
g556
S'S'
p576
sg558
(lp577
F522.39999999999998
asg560
(lp578
(lp579
F1.0
aasg563
S' O'
p580
sbag0
(g10
g2
Ntp581
Rp582
(dp583
g556
S'S'
p584
sg558
(lp585
F147.30000000000001
asg560
(lp586
(lp587
F1.0
aasg563
S' O'
p588
sbag0
(g10
g2
Ntp589
Rp590
(dp591
g556
S'S'
p592
sg558
(lp593
F47.549999999999997
asg560
(lp594
(lp595
F1.0
aasg563
S' O'
p596
sbag0
(g10
g2
Ntp597
Rp598
(dp599
g556
S'S'
p600
sg558
(lp601
F16.760000000000002
asg560
(lp602
(lp603
F1.0
aasg563
S' O'
p604
sbag0
(g10
g2
Ntp605
Rp606
(dp607
g556
S'S'
p608
sg558
(lp609
F6.2069999999999999
asg560
(lp610
(lp611
F1.0
aasg563
S' O'
p612
sbag0
(g10
g2
Ntp613
Rp614
(dp615
g556
S'S'
p616
sg558
(lp617
F0.68820000000000003
asg560
(lp618
(lp619
F1.0
aasg563
S' O'
p620
sbag0
(g10
g2
Ntp621
Rp622
(dp623
g556
S'S'
p624
sg558
(lp625
F1.752
asg560
(lp626
(lp627
F1.0
aasg563
S' O'
p628
sbag0
(g10
g2
Ntp629
Rp630
(dp631
g556
S'S'
p632
sg558
(lp633
F0.2384
asg560
(lp634
(lp635
F1.0
aasg563
S' O'
p636
sbag0
(g10
g2
Ntp637
Rp638
(dp639
g556
S'P'
p640
sg558
(lp641
F34.460000000000001
asg560
(lp642
(lp643
F1.0
aasg563
S' O'
p644
sbag0
(g10
g2
Ntp645
Rp646
(dp647
g556
S'P'
p648
sg558
(lp649
F7.7489999999999997
asg560
(lp650
(lp651
F1.0
aasg563
S' O'
p652
sbag0
(g10
g2
Ntp653
Rp654
(dp655
g556
S'P'
p656
sg558
(lp657
F2.2799999999999998
asg560
(lp658
(lp659
F1.0
aasg563
S' O'
p660
sbag0
(g10
g2
Ntp661
Rp662
(dp663
g556
S'P'
p664
sg558
(lp665
F0.71560000000000001
asg560
(lp666
(lp667
F1.0
aasg563
S' O'
p668
sbag0
(g10
g2
Ntp669
Rp670
(dp671
g556
S'P'
p672
sg558
(lp673
F0.214
asg560
(lp674
(lp675
F1.0
aasg563
S' O'
p676
sbag0
(g10
g2
Ntp677
Rp678
(dp679
g556
S'D'
p680
sg558
(lp681
F2.3140000000000001
asg560
(lp682
(lp683
F1.0
aasg563
S' O'
p684
sbag0
(g10
g2
Ntp685
Rp686
(dp687
g556
S'D'
p688
sg558
(lp689
F0.64500000000000002
asg560
(lp690
(lp691
F1.0
aasg563
S' O'
p692
sbag0
(g10
g2
Ntp693
Rp694
(dp695
g556
S'F'
p696
sg558
(lp697
F1.4279999999999999
asg560
(lp698
(lp699
F1.0
aasg563
S' O'
p700
sbag0
(g10
g2
Ntp701
Rp702
(dp703
g82
S'S'
p704
sg84
(lp705
F168630.0
asg86
(lp706
(lp707
F1.0
aasg89
S'O'
p708
sbag0
(g10
g2
Ntp709
Rp710
(dp711
g82
S'S'
p712
sg84
(lp713
F398580.0
asg86
(lp714
(lp715
F1.0
aasg89
S'O'
p716
sbag0
(g10
g2
Ntp717
Rp718
(dp719
g82
S'P'
p720
sg84
(lp721
F206.75999999999999
asg86
(lp722
(lp723
F1.0
aasg89
S'O'
p724
sbag0
(g10
g2
Ntp725
Rp726
(dp727
g82
S'D'
p728
sg84
(lp729
F9.2560000000000002
asg86
(lp730
(lp731
F1.0
aasg89
S'O'
p732
sbasS'N'
p733
(lp734
g0
(g10
g2
Ntp735
Rp736
(dp737
g82
S'S'
p738
sg84
(lp739
F11420.0
asg86
(lp740
(lp741
F1.0
aasg89
S' N'
p742
sbag0
(g10
g2
Ntp743
Rp744
(dp745
g82
S'S'
p746
sg84
(lp747
F1712.0
asg86
(lp748
(lp749
F1.0
aasg89
S' N'
p750
sbag0
(g10
g2
Ntp751
Rp752
(dp753
g82
S'S'
p754
sg84
(lp755
F389.30000000000001
asg86
(lp756
(lp757
F1.0
aasg89
S' N'
p758
sbag0
(g10
g2
Ntp759
Rp760
(dp761
g82
S'S'
p762
sg84
(lp763
F110.0
asg86
(lp764
(lp765
F1.0
aasg89
S' N'
p766
sbag0
(g10
g2
Ntp767
Rp768
(dp769
g82
S'S'
p770
sg84
(lp771
F35.57
asg86
(lp772
(lp773
F1.0
aasg89
S' N'
p774
sbag0
(g10
g2
Ntp775
Rp776
(dp777
g82
S'S'
p778
sg84
(lp779
F12.539999999999999
asg86
(lp780
(lp781
F1.0
aasg89
S' N'
p782
sbag0
(g10
g2
Ntp783
Rp784
(dp785
g82
S'S'
p786
sg84
(lp787
F4.6440000000000001
asg86
(lp788
(lp789
F1.0
aasg89
S' N'
p790
sbag0
(g10
g2
Ntp791
Rp792
(dp793
g82
S'S'
p794
sg84
(lp795
F0.51180000000000003
asg86
(lp796
(lp797
F1.0
aasg89
S' N'
p798
sbag0
(g10
g2
Ntp799
Rp800
(dp801
g82
S'S'
p802
sg84
(lp803
F1.2929999999999999
asg86
(lp804
(lp805
F1.0
aasg89
S' N'
p806
sbag0
(g10
g2
Ntp807
Rp808
(dp809
g82
S'S'
p810
sg84
(lp811
F0.1787
asg86
(lp812
(lp813
F1.0
aasg89
S' N'
p814
sbag0
(g10
g2
Ntp815
Rp816
(dp817
g82
S'P'
p818
sg84
(lp819
F26.629999999999999
asg86
(lp820
(lp821
F1.0
aasg89
S' N'
p822
sbag0
(g10
g2
Ntp823
Rp824
(dp825
g82
S'P'
p826
sg84
(lp827
F5.9480000000000004
asg86
(lp828
(lp829
F1.0
aasg89
S' N'
p830
sbag0
(g10
g2
Ntp831
Rp832
(dp833
g82
S'P'
p834
sg84
(lp835
F1.742
asg86
(lp836
(lp837
F1.0
aasg89
S' N'
p838
sbag0
(g10
g2
Ntp839
Rp840
(dp841
g82
S'P'
p842
sg84
(lp843
F0.55500000000000005
asg86
(lp844
(lp845
F1.0
aasg89
S' N'
p846
sbag0
(g10
g2
Ntp847
Rp848
(dp849
g82
S'P'
p850
sg84
(lp851
F0.17249999999999999
asg86
(lp852
(lp853
F1.0
aasg89
S' N'
p854
sbag0
(g10
g2
Ntp855
Rp856
(dp857
g82
S'D'
p858
sg84
(lp859
F1.6539999999999999
asg86
(lp860
(lp861
F1.0
aasg89
S' N'
p862
sbag0
(g10
g2
Ntp863
Rp864
(dp865
g82
S'D'
p866
sg84
(lp867
F0.46899999999999997
asg86
(lp868
(lp869
F1.0
aasg89
S' N'
p870
sbag0
(g10
g2
Ntp871
Rp872
(dp873
g82
S'F'
p874
sg84
(lp875
F1.093
asg86
(lp876
(lp877
F1.0
aasg89
S' N'
p878
sbag0
(g10
g2
Ntp879
Rp880
(dp881
g82
S'S'
p882
sg84
(lp883
F125620.0
asg86
(lp884
(lp885
F1.0
aasg89
S'N'
p886
sbag0
(g10
g2
Ntp887
Rp888
(dp889
g82
S'S'
p890
sg84
(lp891
F296920.0
asg86
(lp892
(lp893
F1.0
aasg89
S'N'
p894
sbag0
(g10
g2
Ntp895
Rp896
(dp897
g82
S'P'
p898
sg84
(lp899
F159.78
asg86
(lp900
(lp901
F1.0
aasg89
S'N'
p902
sbag0
(g10
g2
Ntp903
Rp904
(dp905
g82
S'D'
p906
sg84
(lp907
F6.6159999999999997
asg86
(lp908
(lp909
F1.0
aasg89
S'N'
p910
sbassb.