ccopy_reg
_reconstructor
p0
(cbasisset
BasisSet
p1
c__builtin__
object
p2
Ntp3
Rp4
(dp5
S'basisDictionary'
p6
(dp7
S'H'
p8
(lp9
g0
(cbasisset
Shell
p10
g2
Ntp11
Rp12
(dp13
S'angularMomentum'
p14
S'S'
p15
sS'exponents'
p16
(lp17
F33.869999999999997
asS'coefficients'
p18
(lp19
(lp20
F1.0
aasS'atom'
p21
S' H'
p22
sbag0
(g10
g2
Ntp23
Rp24
(dp25
g14
S'S'
p26
sg16
(lp27
F5.0949999999999998
asg18
(lp28
(lp29
F1.0
aasg21
S' H'
p30
sbag0
(g10
g2
Ntp31
Rp32
(dp33
g14
S'S'
p34
sg16
(lp35
F1.159
asg18
(lp36
(lp37
F1.0
aasg21
S' H'
p38
sbag0
(g10
g2
Ntp39
Rp40
(dp41
g14
S'S'
p42
sg16
(lp43
F0.32579999999999998
asg18
(lp44
(lp45
F1.0
aasg21
S' H'
p46
sbag0
(g10
g2
Ntp47
Rp48
(dp49
g14
S'S'
p50
sg16
(lp51
F0.1027
asg18
(lp52
(lp53
F1.0
aasg21
S' H'
p54
sbag0
(g10
g2
Ntp55
Rp56
(dp57
g14
S'P'
p58
sg16
(lp59
F1.407
asg18
(lp60
(lp61
F1.0
aasg21
S' H'
p62
sbag0
(g10
g2
Ntp63
Rp64
(dp65
g14
S'P'
p66
sg16
(lp67
F0.38800000000000001
asg18
(lp68
(lp69
F1.0
aasg21
S' H'
p70
sbag0
(g10
g2
Ntp71
Rp72
(dp73
g14
S'D'
p74
sg16
(lp75
F1.0569999999999999
asg18
(lp76
(lp77
F1.0
aasg21
S' H'
p78
sbasS'C'
p79
(lp80
g0
(g10
g2
Ntp81
Rp82
(dp83
S'angularMomentum'
p84
S'S'
p85
sS'exponents'
p86
(lp87
F8236.0
asS'coefficients'
p88
(lp89
(lp90
F1.0
aasS'atom'
p91
S' C'
p92
sbag0
(g10
g2
Ntp93
Rp94
(dp95
g84
S'S'
p96
sg86
(lp97
F1235.0
asg88
(lp98
(lp99
F1.0
aasg91
S' C'
p100
sbag0
(g10
g2
Ntp101
Rp102
(dp103
g84
S'S'
p104
sg86
(lp105
F280.80000000000001
asg88
(lp106
(lp107
F1.0
aasg91
S' C'
p108
sbag0
(g10
g2
Ntp109
Rp110
(dp111
g84
S'S'
p112
sg86
(lp113
F79.269999999999996
asg88
(lp114
(lp115
F1.0
aasg91
S' C'
p116
sbag0
(g10
g2
Ntp117
Rp118
(dp119
g84
S'S'
p120
sg86
(lp121
F25.59
asg88
(lp122
(lp123
F1.0
aasg91
S' C'
p124
sbag0
(g10
g2
Ntp125
Rp126
(dp127
g84
S'S'
p128
sg86
(lp129
F8.9969999999999999
asg88
(lp130
(lp131
F1.0
aasg91
S' C'
p132
sbag0
(g10
g2
Ntp133
Rp134
(dp135
g84
S'S'
p136
sg86
(lp137
F3.319
asg88
(lp138
(lp139
F1.0
aasg91
S' C'
p140
sbag0
(g10
g2
Ntp141
Rp142
(dp143
g84
S'S'
p144
sg86
(lp145
F0.36430000000000001
asg88
(lp146
(lp147
F1.0
aasg91
S' C'
p148
sbag0
(g10
g2
Ntp149
Rp150
(dp151
g84
S'S'
p152
sg86
(lp153
F0.90590000000000004
asg88
(lp154
(lp155
F1.0
aasg91
S' C'
p156
sbag0
(g10
g2
Ntp157
Rp158
(dp159
g84
S'S'
p160
sg86
(lp161
F0.1285
asg88
(lp162
(lp163
F1.0
aasg91
S' C'
p164
sbag0
(g10
g2
Ntp165
Rp166
(dp167
g84
S'P'
p168
sg86
(lp169
F18.710000000000001
asg88
(lp170
(lp171
F1.0
aasg91
S' C'
p172
sbag0
(g10
g2
Ntp173
Rp174
(dp175
g84
S'P'
p176
sg86
(lp177
F4.133
asg88
(lp178
(lp179
F1.0
aasg91
S' C'
p180
sbag0
(g10
g2
Ntp181
Rp182
(dp183
g84
S'P'
p184
sg86
(lp185
F1.2
asg88
(lp186
(lp187
F1.0
aasg91
S' C'
p188
sbag0
(g10
g2
Ntp189
Rp190
(dp191
g84
S'P'
p192
sg86
(lp193
F0.38269999999999998
asg88
(lp194
(lp195
F1.0
aasg91
S' C'
p196
sbag0
(g10
g2
Ntp197
Rp198
(dp199
g84
S'P'
p200
sg86
(lp201
F0.12089999999999999
asg88
(lp202
(lp203
F1.0
aasg91
S' C'
p204
sbag0
(g10
g2
Ntp205
Rp206
(dp207
g84
S'D'
p208
sg86
(lp209
F1.097
asg88
(lp210
(lp211
F1.0
aasg91
S' C'
p212
sbag0
(g10
g2
Ntp213
Rp214
(dp215
g84
S'D'
p216
sg86
(lp217
F0.318
asg88
(lp218
(lp219
F1.0
aasg91
S' C'
p220
sbag0
(g10
g2
Ntp221
Rp222
(dp223
g84
S'F'
p224
sg86
(lp225
F0.76100000000000001
asg88
(lp226
(lp227
F1.0
aasg91
S' C'
p228
sbag0
(g10
g2
Ntp229
Rp230
(dp231
g84
S'S'
p232
sg86
(lp233
F4.2919999999999998
asg88
(lp234
(lp235
F1.0
aasg91
S' C'
p236
sbag0
(g10
g2
Ntp237
Rp238
(dp239
g84
S'S'
p240
sg86
(lp241
F11.875999999999999
asg88
(lp242
(lp243
F1.0
aasg91
S' C'
p244
sbag0
(g10
g2
Ntp245
Rp246
(dp247
g84
S'P'
p248
sg86
(lp249
F8.7780000000000005
asg88
(lp250
(lp251
F1.0
aasg91
S' C'
p252
sbag0
(g10
g2
Ntp253
Rp254
(dp255
g84
S'P'
p256
sg86
(lp257
F33.189999999999998
asg88
(lp258
(lp259
F1.0
aasg91
S' C'
p260
sbag0
(g10
g2
Ntp261
Rp262
(dp263
g84
S'D'
p264
sg86
(lp265
F14.839
asg88
(lp266
(lp267
F1.0
aasg91
S' C'
p268
sbasS'S'
p269
(lp270
g0
(g10
g2
Ntp271
Rp272
(dp273
S'angularMomentum'
p274
S'S'
p275
sS'exponents'
p276
(lp277
F374100.0
asS'coefficients'
p278
(lp279
(lp280
F1.0
aasS'atom'
p281
S' S'
p282
sbag0
(g10
g2
Ntp283
Rp284
(dp285
g274
S'S'
p286
sg276
(lp287
F56050.0
asg278
(lp288
(lp289
F1.0
aasg281
S' S'
p290
sbag0
(g10
g2
Ntp291
Rp292
(dp293
g274
S'S'
p294
sg276
(lp295
F12760.0
asg278
(lp296
(lp297
F1.0
aasg281
S' S'
p298
sbag0
(g10
g2
Ntp299
Rp300
(dp301
g274
S'S'
p302
sg276
(lp303
F3615.0
asg278
(lp304
(lp305
F1.0
aasg281
S' S'
p306
sbag0
(g10
g2
Ntp307
Rp308
(dp309
g274
S'S'
p310
sg276
(lp311
F1183.0
asg278
(lp312
(lp313
F1.0
aasg281
S' S'
p314
sbag0
(g10
g2
Ntp315
Rp316
(dp317
g274
S'S'
p318
sg276
(lp319
F428.80000000000001
asg278
(lp320
(lp321
F1.0
aasg281
S' S'
p322
sbag0
(g10
g2
Ntp323
Rp324
(dp325
g274
S'S'
p326
sg276
(lp327
F167.80000000000001
asg278
(lp328
(lp329
F1.0
aasg281
S' S'
p330
sbag0
(g10
g2
Ntp331
Rp332
(dp333
g274
S'S'
p334
sg276
(lp335
F69.469999999999999
asg278
(lp336
(lp337
F1.0
aasg281
S' S'
p338
sbag0
(g10
g2
Ntp339
Rp340
(dp341
g274
S'S'
p342
sg276
(lp343
F29.84
asg278
(lp344
(lp345
F1.0
aasg281
S' S'
p346
sbag0
(g10
g2
Ntp347
Rp348
(dp349
g274
S'S'
p350
sg276
(lp351
F12.720000000000001
asg278
(lp352
(lp353
F1.0
aasg281
S' S'
p354
sbag0
(g10
g2
Ntp355
Rp356
(dp357
g274
S'S'
p358
sg276
(lp359
F5.2439999999999998
asg278
(lp360
(lp361
F1.0
aasg281
S' S'
p362
sbag0
(g10
g2
Ntp363
Rp364
(dp365
g274
S'S'
p366
sg276
(lp367
F2.2189999999999999
asg278
(lp368
(lp369
F1.0
aasg281
S' S'
p370
sbag0
(g10
g2
Ntp371
Rp372
(dp373
g274
S'S'
p374
sg276
(lp375
F0.34899999999999998
asg278
(lp376
(lp377
F1.0
aasg281
S' S'
p378
sbag0
(g10
g2
Ntp379
Rp380
(dp381
g274
S'S'
p382
sg276
(lp383
F0.77669999999999995
asg278
(lp384
(lp385
F1.0
aasg281
S' S'
p386
sbag0
(g10
g2
Ntp387
Rp388
(dp389
g274
S'S'
p390
sg276
(lp391
F0.13220000000000001
asg278
(lp392
(lp393
F1.0
aasg281
S' S'
p394
sbag0
(g10
g2
Ntp395
Rp396
(dp397
g274
S'P'
p398
sg276
(lp399
F574.39999999999998
asg278
(lp400
(lp401
F1.0
aasg281
S' S'
p402
sbag0
(g10
g2
Ntp403
Rp404
(dp405
g274
S'P'
p406
sg276
(lp407
F135.80000000000001
asg278
(lp408
(lp409
F1.0
aasg281
S' S'
p410
sbag0
(g10
g2
Ntp411
Rp412
(dp413
g274
S'P'
p414
sg276
(lp415
F43.189999999999998
asg278
(lp416
(lp417
F1.0
aasg281
S' S'
p418
sbag0
(g10
g2
Ntp419
Rp420
(dp421
g274
S'P'
p422
sg276
(lp423
F15.869999999999999
asg278
(lp424
(lp425
F1.0
aasg281
S' S'
p426
sbag0
(g10
g2
Ntp427
Rp428
(dp429
g274
S'P'
p430
sg276
(lp431
F6.2080000000000002
asg278
(lp432
(lp433
F1.0
aasg281
S' S'
p434
sbag0
(g10
g2
Ntp435
Rp436
(dp437
g274
S'P'
p438
sg276
(lp439
F2.4830000000000001
asg278
(lp440
(lp441
F1.0
aasg281
S' S'
p442
sbag0
(g10
g2
Ntp443
Rp444
(dp445
g274
S'P'
p446
sg276
(lp447
F0.32290000000000002
asg278
(lp448
(lp449
F1.0
aasg281
S' S'
p450
sbag0
(g10
g2
Ntp451
Rp452
(dp453
g274
S'P'
p454
sg276
(lp455
F0.86880000000000002
asg278
(lp456
(lp457
F1.0
aasg281
S' S'
p458
sbag0
(g10
g2
Ntp459
Rp460
(dp461
g274
S'P'
p462
sg276
(lp463
F0.10979999999999999
asg278
(lp464
(lp465
F1.0
aasg281
S' S'
p466
sbag0
(g10
g2
Ntp467
Rp468
(dp469
g274
S'D'
p470
sg276
(lp471
F0.26900000000000002
asg278
(lp472
(lp473
F1.0
aasg281
S' S'
p474
sbag0
(g10
g2
Ntp475
Rp476
(dp477
g274
S'D'
p478
sg276
(lp479
F0.81899999999999995
asg278
(lp480
(lp481
F1.0
aasg281
S' S'
p482
sbag0
(g10
g2
Ntp483
Rp484
(dp485
g274
S'F'
p486
sg276
(lp487
F0.55700000000000005
asg278
(lp488
(lp489
F1.0
aasg281
S' S'
p490
sbag0
(g10
g2
Ntp491
Rp492
(dp493
g274
S'S'
p494
sg276
(lp495
F12.928000000000001
asg278
(lp496
(lp497
F1.0
aasg281
S' S'
p498
sbag0
(g10
g2
Ntp499
Rp500
(dp501
g274
S'S'
p502
sg276
(lp503
F2.4129999999999998
asg278
(lp504
(lp505
F1.0
aasg281
S' S'
p506
sbag0
(g10
g2
Ntp507
Rp508
(dp509
g274
S'P'
p510
sg276
(lp511
F8.1140000000000008
asg278
(lp512
(lp513
F1.0
aasg281
S' S'
p514
sbag0
(g10
g2
Ntp515
Rp516
(dp517
g274
S'P'
p518
sg276
(lp519
F3.1059999999999999
asg278
(lp520
(lp521
F1.0
aasg281
S' S'
p522
sbag0
(g10
g2
Ntp523
Rp524
(dp525
g274
S'D'
p526
sg276
(lp527
F15.254
asg278
(lp528
(lp529
F1.0
aasg281
S' S'
p530
sbag0
(g10
g2
Ntp531
Rp532
(dp533
g274
S'D'
p534
sg276
(lp535
F4.8449999999999998
asg278
(lp536
(lp537
F1.0
aasg281
S' S'
p538
sbag0
(g10
g2
Ntp539
Rp540
(dp541
g274
S'F'
p542
sg276
(lp543
F10.052
asg278
(lp544
(lp545
F1.0
aasg281
S' S'
p546
sbasS'O'
p547
(lp548
g0
(g10
g2
Ntp549
Rp550
(dp551
S'angularMomentum'
p552
S'S'
p553
sS'exponents'
p554
(lp555
F15330.0
asS'coefficients'
p556
(lp557
(lp558
F1.0
aasS'atom'
p559
S' O'
p560
sbag0
(g10
g2
Ntp561
Rp562
(dp563
g552
S'S'
p564
sg554
(lp565
F2299.0
asg556
(lp566
(lp567
F1.0
aasg559
S' O'
p568
sbag0
(g10
g2
Ntp569
Rp570
(dp571
g552
S'S'
p572
sg554
(lp573
F522.39999999999998
asg556
(lp574
(lp575
F1.0
aasg559
S' O'
p576
sbag0
(g10
g2
Ntp577
Rp578
(dp579
g552
S'S'
p580
sg554
(lp581
F147.30000000000001
asg556
(lp582
(lp583
F1.0
aasg559
S' O'
p584
sbag0
(g10
g2
Ntp585
Rp586
(dp587
g552
S'S'
p588
sg554
(lp589
F47.549999999999997
asg556
(lp590
(lp591
F1.0
aasg559
S' O'
p592
sbag0
(g10
g2
Ntp593
Rp594
(dp595
g552
S'S'
p596
sg554
(lp597
F16.760000000000002
asg556
(lp598
(lp599
F1.0
aasg559
S' O'
p600
sbag0
(g10
g2
Ntp601
Rp602
(dp603
g552
S'S'
p604
sg554
(lp605
F6.2069999999999999
asg556
(lp606
(lp607
F1.0
aasg559
S' O'
p608
sbag0
(g10
g2
Ntp609
Rp610
(dp611
g552
S'S'
p612
sg554
(lp613
F0.68820000000000003
asg556
(lp614
(lp615
F1.0
aasg559
S' O'
p616
sbag0
(g10
g2
Ntp617
Rp618
(dp619
g552
S'S'
p620
sg554
(lp621
F1.752
asg556
(lp622
(lp623
F1.0
aasg559
S' O'
p624
sbag0
(g10
g2
Ntp625
Rp626
(dp627
g552
S'S'
p628
sg554
(lp629
F0.2384
asg556
(lp630
(lp631
F1.0
aasg559
S' O'
p632
sbag0
(g10
g2
Ntp633
Rp634
(dp635
g552
S'P'
p636
sg554
(lp637
F34.460000000000001
asg556
(lp638
(lp639
F1.0
aasg559
S' O'
p640
sbag0
(g10
g2
Ntp641
Rp642
(dp643
g552
S'P'
p644
sg554
(lp645
F7.7489999999999997
asg556
(lp646
(lp647
F1.0
aasg559
S' O'
p648
sbag0
(g10
g2
Ntp649
Rp650
(dp651
g552
S'P'
p652
sg554
(lp653
F2.2799999999999998
asg556
(lp654
(lp655
F1.0
aasg559
S' O'
p656
sbag0
(g10
g2
Ntp657
Rp658
(dp659
g552
S'P'
p660
sg554
(lp661
F0.71560000000000001
asg556
(lp662
(lp663
F1.0
aasg559
S' O'
p664
sbag0
(g10
g2
Ntp665
Rp666
(dp667
g552
S'P'
p668
sg554
(lp669
F0.214
asg556
(lp670
(lp671
F1.0
aasg559
S' O'
p672
sbag0
(g10
g2
Ntp673
Rp674
(dp675
g552
S'D'
p676
sg554
(lp677
F2.3140000000000001
asg556
(lp678
(lp679
F1.0
aasg559
S' O'
p680
sbag0
(g10
g2
Ntp681
Rp682
(dp683
g552
S'D'
p684
sg554
(lp685
F0.64500000000000002
asg556
(lp686
(lp687
F1.0
aasg559
S' O'
p688
sbag0
(g10
g2
Ntp689
Rp690
(dp691
g552
S'F'
p692
sg554
(lp693
F1.4279999999999999
asg556
(lp694
(lp695
F1.0
aasg559
S' O'
p696
sbag0
(g10
g2
Ntp697
Rp698
(dp699
g552
S'S'
p700
sg554
(lp701
F7.8449999999999998
asg556
(lp702
(lp703
F1.0
aasg559
S' O'
p704
sbag0
(g10
g2
Ntp705
Rp706
(dp707
g552
S'S'
p708
sg554
(lp709
F21.032
asg556
(lp710
(lp711
F1.0
aasg559
S' O'
p712
sbag0
(g10
g2
Ntp713
Rp714
(dp715
g552
S'P'
p716
sg554
(lp717
F15.159000000000001
asg556
(lp718
(lp719
F1.0
aasg559
S' O'
p720
sbag0
(g10
g2
Ntp721
Rp722
(dp723
g552
S'P'
p724
sg554
(lp725
F57.436999999999998
asg556
(lp726
(lp727
F1.0
aasg559
S' O'
p728
sbag0
(g10
g2
Ntp729
Rp730
(dp731
g552
S'D'
p732
sg554
(lp733
F15.858000000000001
asg556
(lp734
(lp735
F1.0
aasg559
S' O'
p736
sbasS'N'
p737
(lp738
g0
(g10
g2
Ntp739
Rp740
(dp741
S'angularMomentum'
p742
S'S'
p743
sS'exponents'
p744
(lp745
F11420.0
asS'coefficients'
p746
(lp747
(lp748
F1.0
aasS'atom'
p749
S' N'
p750
sbag0
(g10
g2
Ntp751
Rp752
(dp753
g742
S'S'
p754
sg744
(lp755
F1712.0
asg746
(lp756
(lp757
F1.0
aasg749
S' N'
p758
sbag0
(g10
g2
Ntp759
Rp760
(dp761
g742
S'S'
p762
sg744
(lp763
F389.30000000000001
asg746
(lp764
(lp765
F1.0
aasg749
S' N'
p766
sbag0
(g10
g2
Ntp767
Rp768
(dp769
g742
S'S'
p770
sg744
(lp771
F110.0
asg746
(lp772
(lp773
F1.0
aasg749
S' N'
p774
sbag0
(g10
g2
Ntp775
Rp776
(dp777
g742
S'S'
p778
sg744
(lp779
F35.57
asg746
(lp780
(lp781
F1.0
aasg749
S' N'
p782
sbag0
(g10
g2
Ntp783
Rp784
(dp785
g742
S'S'
p786
sg744
(lp787
F12.539999999999999
asg746
(lp788
(lp789
F1.0
aasg749
S' N'
p790
sbag0
(g10
g2
Ntp791
Rp792
(dp793
g742
S'S'
p794
sg744
(lp795
F4.6440000000000001
asg746
(lp796
(lp797
F1.0
aasg749
S' N'
p798
sbag0
(g10
g2
Ntp799
Rp800
(dp801
g742
S'S'
p802
sg744
(lp803
F0.51180000000000003
asg746
(lp804
(lp805
F1.0
aasg749
S' N'
p806
sbag0
(g10
g2
Ntp807
Rp808
(dp809
g742
S'S'
p810
sg744
(lp811
F1.2929999999999999
asg746
(lp812
(lp813
F1.0
aasg749
S' N'
p814
sbag0
(g10
g2
Ntp815
Rp816
(dp817
g742
S'S'
p818
sg744
(lp819
F0.1787
asg746
(lp820
(lp821
F1.0
aasg749
S' N'
p822
sbag0
(g10
g2
Ntp823
Rp824
(dp825
g742
S'P'
p826
sg744
(lp827
F26.629999999999999
asg746
(lp828
(lp829
F1.0
aasg749
S' N'
p830
sbag0
(g10
g2
Ntp831
Rp832
(dp833
g742
S'P'
p834
sg744
(lp835
F5.9480000000000004
asg746
(lp836
(lp837
F1.0
aasg749
S' N'
p838
sbag0
(g10
g2
Ntp839
Rp840
(dp841
g742
S'P'
p842
sg744
(lp843
F1.742
asg746
(lp844
(lp845
F1.0
aasg749
S' N'
p846
sbag0
(g10
g2
Ntp847
Rp848
(dp849
g742
S'P'
p850
sg744
(lp851
F0.55500000000000005
asg746
(lp852
(lp853
F1.0
aasg749
S' N'
p854
sbag0
(g10
g2
Ntp855
Rp856
(dp857
g742
S'P'
p858
sg744
(lp859
F0.17249999999999999
asg746
(lp860
(lp861
F1.0
aasg749
S' N'
p862
sbag0
(g10
g2
Ntp863
Rp864
(dp865
g742
S'D'
p866
sg744
(lp867
F1.6539999999999999
asg746
(lp868
(lp869
F1.0
aasg749
S' N'
p870
sbag0
(g10
g2
Ntp871
Rp872
(dp873
g742
S'D'
p874
sg744
(lp875
F0.46899999999999997
asg746
(lp876
(lp877
F1.0
aasg749
S' N'
p878
sbag0
(g10
g2
Ntp879
Rp880
(dp881
g742
S'F'
p882
sg744
(lp883
F1.093
asg746
(lp884
(lp885
F1.0
aasg749
S' N'
p886
sbag0
(g10
g2
Ntp887
Rp888
(dp889
g742
S'S'
p890
sg744
(lp891
F5.952
asg746
(lp892
(lp893
F1.0
aasg749
S' N'
p894
sbag0
(g10
g2
Ntp895
Rp896
(dp897
g742
S'S'
p898
sg744
(lp899
F16.201000000000001
asg746
(lp900
(lp901
F1.0
aasg749
S' N'
p902
sbag0
(g10
g2
Ntp903
Rp904
(dp905
g742
S'P'
p906
sg744
(lp907
F11.871
asg746
(lp908
(lp909
F1.0
aasg749
S' N'
p910
sbag0
(g10
g2
Ntp911
Rp912
(dp913
g742
S'P'
p914
sg744
(lp915
F44.848999999999997
asg746
(lp916
(lp917
F1.0
aasg749
S' N'
p918
sbag0
(g10
g2
Ntp919
Rp920
(dp921
g742
S'D'
p922
sg744
(lp923
F14.199999999999999
asg746
(lp924
(lp925
F1.0
aasg749
S' N'
p926
sbassb.