ccopy_reg
_reconstructor
p0
(cbasisset
BasisSet
p1
c__builtin__
object
p2
Ntp3
Rp4
(dp5
S'basisDictionary'
p6
(dp7
VC
p8
(lp9
g0
(cbasisset
Shell
p10
g2
Ntp11
Rp12
(dp13
S'angularMomentum'
p14
VS
p15
sS'exponents'
p16
(lp17
F96770.0
aF14500.0
aF3300.0
aF935.79999999999995
aF306.19999999999999
aF111.3
aF43.899999999999999
aF18.399999999999999
aF8.0540000000000003
aF3.637
aF1.6559999999999999
aF0.63329999999999997
aF0.2545
aF0.1019
asS'coefficients'
p18
(lp19
(lp20
F2.5000000000000001e-05
aF0.00019000000000000001
aF0.001
aF0.0041830000000000001
aF0.014859000000000001
aF0.045301000000000001
aF0.116504
aF0.24024899999999999
aF0.35879899999999998
aF0.29394100000000001
aF0.077664999999999998
aF0.002333
aF0.00050500000000000002
aF3.0000000000000001e-05
aa(lp21
F-5.0000000000000004e-06
aF-4.1e-05
aF-0.000213
aF-0.00089700000000000001
aF-0.0031870000000000002
aF-0.0099609999999999994
aF-0.026374999999999999
aF-0.060000999999999999
aF-0.106825
aF-0.14416599999999999
aF-0.024644200000000002
aF0.34900900000000001
aF0.55873700000000004
aF0.228102
aasS'atom'
p22
V C
p23
sbag0
(g10
g2
Ntp24
Rp25
(dp26
g14
g15
sg16
(lp27
F1.6559999999999999
asg18
(lp28
(lp29
F1.0
aasg22
g23
sbag0
(g10
g2
Ntp30
Rp31
(dp32
g14
g15
sg16
(lp33
F0.63329999999999997
asg18
(lp34
(lp35
F1.0
aasg22
g23
sbag0
(g10
g2
Ntp36
Rp37
(dp38
g14
g15
sg16
(lp39
F0.2545
asg18
(lp40
(lp41
F1.0
aasg22
g23
sbag0
(g10
g2
Ntp42
Rp43
(dp44
g14
g15
sg16
(lp45
F0.1019
asg18
(lp46
(lp47
F1.0
aasg22
g23
sbag0
(g10
g2
Ntp48
Rp49
(dp50
g14
g15
sg16
(lp51
F0.039399999999999998
asg18
(lp52
(lp53
F1.0
aasg22
g23
sbag0
(g10
g2
Ntp54
Rp55
(dp56
g14
VP
p57
sg16
(lp58
F101.8
aF24.039999999999999
aF7.5709999999999997
aF2.7320000000000002
aF1.085
aF0.4496
aF0.18759999999999999
aF0.076060000000000003
asg18
(lp59
(lp60
F0.00089099999999999997
aF0.0069760000000000004
aF0.031669000000000003
aF0.104006
aF0.24163299999999999
aF0.371946
aF0.35420000000000001
aF0.13156799999999999
aasg22
g23
sbag0
(g10
g2
Ntp61
Rp62
(dp63
g14
g57
sg16
(lp64
F2.7320000000000002
asg18
(lp65
(lp66
F1.0
aasg22
g23
sbag0
(g10
g2
Ntp67
Rp68
(dp69
g14
g57
sg16
(lp70
F1.085
asg18
(lp71
(lp72
F1.0
aasg22
g23
sbag0
(g10
g2
Ntp73
Rp74
(dp75
g14
g57
sg16
(lp76
F0.4496
asg18
(lp77
(lp78
F1.0
aasg22
g23
sbag0
(g10
g2
Ntp79
Rp80
(dp81
g14
g57
sg16
(lp82
F0.18759999999999999
asg18
(lp83
(lp84
F1.0
aasg22
g23
sbag0
(g10
g2
Ntp85
Rp86
(dp87
g14
g57
sg16
(lp88
F0.076060000000000003
asg18
(lp89
(lp90
F1.0
aasg22
g23
sbag0
(g10
g2
Ntp91
Rp92
(dp93
g14
g57
sg16
(lp94
F0.027199999999999998
asg18
(lp95
(lp96
F1.0
aasg22
g23
sbag0
(g10
g2
Ntp97
Rp98
(dp99
g14
VD
p100
sg16
(lp101
F3.7056
asg18
(lp102
(lp103
F1.0
aasg22
g23
sbag0
(g10
g2
Ntp104
Rp105
(dp106
g14
g100
sg16
(lp107
F1.4212
asg18
(lp108
(lp109
F1.0
aasg22
g23
sbag0
(g10
g2
Ntp110
Rp111
(dp112
g14
g100
sg16
(lp113
F0.54510000000000003
asg18
(lp114
(lp115
F1.0
aasg22
g23
sbag0
(g10
g2
Ntp116
Rp117
(dp118
g14
g100
sg16
(lp119
F0.20910000000000001
asg18
(lp120
(lp121
F1.0
aasg22
g23
sbag0
(g10
g2
Ntp122
Rp123
(dp124
g14
VF
p125
sg16
(lp126
F1.4438
asg18
(lp127
(lp128
F1.0
aasg22
g23
sbag0
(g10
g2
Ntp129
Rp130
(dp131
g14
g125
sg16
(lp132
F0.59309999999999996
asg18
(lp133
(lp134
F1.0
aasg22
g23
sbag0
(g10
g2
Ntp135
Rp136
(dp137
g14
g125
sg16
(lp138
F0.24360000000000001
asg18
(lp139
(lp140
F1.0
aasg22
g23
sbag0
(g10
g2
Ntp141
Rp142
(dp143
g14
VG
p144
sg16
(lp145
F1.1825000000000001
asg18
(lp146
(lp147
F1.0
aasg22
g23
sbag0
(g10
g2
Ntp148
Rp149
(dp150
g14
g144
sg16
(lp151
F0.46850000000000003
asg18
(lp152
(lp153
F1.0
aasg22
g23
sbasVB
p154
(lp155
g0
(g10
g2
Ntp156
Rp157
(dp158
g14
g15
sg16
(lp159
F68260.0
aF10230.0
aF2328.0
aF660.39999999999998
aF216.19999999999999
aF78.599999999999994
aF30.98
aF12.960000000000001
aF5.6589999999999998
aF2.556
aF1.175
aF0.4249
aF0.17119999999999999
aF0.069129999999999997
asg18
(lp160
(lp161
F2.4000000000000001e-05
aF0.000185
aF0.00097000000000000005
aF0.0040559999999999997
aF0.014399
aF0.043901000000000003
aF0.113057
aF0.23382500000000001
aF0.35396
aF0.30154700000000001
aF0.087521000000000002
aF0.0028189999999999999
aF4.3000000000000002e-05
aF7.7999999999999999e-05
aa(lp162
F-5.0000000000000004e-06
aF-3.6999999999999998e-05
aF-0.00019599999999999999
aF-0.00082399999999999997
aF-0.0029229999999999998
aF-0.0091380000000000003
aF-0.024105000000000001
aF-0.054754999999999998
aF-0.096943000000000001
aF-0.137485
aF-0.044565
aF0.32434499999999999
aF0.57041399999999998
aF0.24344399999999999
aasg22
V B
p163
sbag0
(g10
g2
Ntp164
Rp165
(dp166
g14
g15
sg16
(lp167
F1.175
asg18
(lp168
(lp169
F1.0
aasg22
g163
sbag0
(g10
g2
Ntp170
Rp171
(dp172
g14
g15
sg16
(lp173
F0.4249
asg18
(lp174
(lp175
F1.0
aasg22
g163
sbag0
(g10
g2
Ntp176
Rp177
(dp178
g14
g15
sg16
(lp179
F0.17119999999999999
asg18
(lp180
(lp181
F1.0
aasg22
g163
sbag0
(g10
g2
Ntp182
Rp183
(dp184
g14
g15
sg16
(lp185
F0.069129999999999997
asg18
(lp186
(lp187
F1.0
aasg22
g163
sbag0
(g10
g2
Ntp188
Rp189
(dp190
g14
g15
sg16
(lp191
F0.026100000000000002
asg18
(lp192
(lp193
F1.0
aasg22
g163
sbag0
(g10
g2
Ntp194
Rp195
(dp196
g14
g57
sg16
(lp197
F66.439999999999998
aF15.710000000000001
aF4.9359999999999999
aF1.77
aF0.70079999999999998
aF0.29010000000000002
aF0.1211
aF0.049730000000000003
asg18
(lp198
(lp199
F0.00083799999999999999
aF0.0064089999999999998
aF0.028080999999999998
aF0.092151999999999998
aF0.224164
aF0.36991499999999999
aF0.37444100000000002
aF0.13908599999999999
aasg22
g163
sbag0
(g10
g2
Ntp200
Rp201
(dp202
g14
g57
sg16
(lp203
F1.77
asg18
(lp204
(lp205
F1.0
aasg22
g163
sbag0
(g10
g2
Ntp206
Rp207
(dp208
g14
g57
sg16
(lp209
F0.70079999999999998
asg18
(lp210
(lp211
F1.0
aasg22
g163
sbag0
(g10
g2
Ntp212
Rp213
(dp214
g14
g57
sg16
(lp215
F0.29010000000000002
asg18
(lp216
(lp217
F1.0
aasg22
g163
sbag0
(g10
g2
Ntp218
Rp219
(dp220
g14
g57
sg16
(lp221
F0.1211
asg18
(lp222
(lp223
F1.0
aasg22
g163
sbag0
(g10
g2
Ntp224
Rp225
(dp226
g14
g57
sg16
(lp227
F0.049730000000000003
asg18
(lp228
(lp229
F1.0
aasg22
g163
sbag0
(g10
g2
Ntp230
Rp231
(dp232
g14
g57
sg16
(lp233
F0.015699999999999999
asg18
(lp234
(lp235
F1.0
aasg22
g163
sbag0
(g10
g2
Ntp236
Rp237
(dp238
g14
g100
sg16
(lp239
F2.5278
asg18
(lp240
(lp241
F1.0
aasg22
g163
sbag0
(g10
g2
Ntp242
Rp243
(dp244
g14
g100
sg16
(lp245
F0.98519999999999996
asg18
(lp246
(lp247
F1.0
aasg22
g163
sbag0
(g10
g2
Ntp248
Rp249
(dp250
g14
g100
sg16
(lp251
F0.38400000000000001
asg18
(lp252
(lp253
F1.0
aasg22
g163
sbag0
(g10
g2
Ntp254
Rp255
(dp256
g14
g100
sg16
(lp257
F0.1497
asg18
(lp258
(lp259
F1.0
aasg22
g163
sbag0
(g10
g2
Ntp260
Rp261
(dp262
g14
g125
sg16
(lp263
F1.1400999999999999
asg18
(lp264
(lp265
F1.0
aasg22
g163
sbag0
(g10
g2
Ntp266
Rp267
(dp268
g14
g125
sg16
(lp269
F0.43130000000000002
asg18
(lp270
(lp271
F1.0
aasg22
g163
sbag0
(g10
g2
Ntp272
Rp273
(dp274
g14
g125
sg16
(lp275
F0.16309999999999999
asg18
(lp276
(lp277
F1.0
aasg22
g163
sbag0
(g10
g2
Ntp278
Rp279
(dp280
g14
g144
sg16
(lp281
F0.9375
asg18
(lp282
(lp283
F1.0
aasg22
g163
sbag0
(g10
g2
Ntp284
Rp285
(dp286
g14
g144
sg16
(lp287
F0.3306
asg18
(lp288
(lp289
F1.0
aasg22
g163
sbasg125
(lp290
g0
(g10
g2
Ntp291
Rp292
(dp293
g14
g15
sg16
(lp294
F211400.0
aF31660.0
aF7202.0
aF2040.0
aF666.39999999999998
aF242.0
aF95.530000000000001
aF40.229999999999997
aF17.719999999999999
aF8.0050000000000008
aF3.5379999999999998
aF1.458
aF0.5887
aF0.2324
asg18
(lp295
(lp296
F2.5999999999999998e-05
aF0.00020100000000000001
aF0.0010560000000000001
aF0.0044320000000000002
aF0.015765999999999999
aF0.048112000000000002
aF0.12323199999999999
aF0.25151899999999999
aF0.36452499999999999
aF0.27976600000000001
aF0.063545000000000004
aF0.001111
aF0.001258
aF-3.4999999999999997e-05
aa(lp297
F-6.0000000000000002e-06
aF-4.6999999999999997e-05
aF-0.00024399999999999999
aF-0.001031
aF-0.0036830000000000001
aF-0.011513000000000001
aF-0.030662999999999999
aF-0.069571999999999995
aF-0.123992
aF-0.15021399999999999
aF0.016459999999999999
aF0.39255000000000001
aF0.53216399999999997
aF0.196524
aasg22
V F
p298
sbag0
(g10
g2
Ntp299
Rp300
(dp301
g14
g15
sg16
(lp302
F3.5379999999999998
asg18
(lp303
(lp304
F1.0
aasg22
g298
sbag0
(g10
g2
Ntp305
Rp306
(dp307
g14
g15
sg16
(lp308
F1.458
asg18
(lp309
(lp310
F1.0
aasg22
g298
sbag0
(g10
g2
Ntp311
Rp312
(dp313
g14
g15
sg16
(lp314
F0.5887
asg18
(lp315
(lp316
F1.0
aasg22
g298
sbag0
(g10
g2
Ntp317
Rp318
(dp319
g14
g15
sg16
(lp320
F0.2324
asg18
(lp321
(lp322
F1.0
aasg22
g298
sbag0
(g10
g2
Ntp323
Rp324
(dp325
g14
g15
sg16
(lp326
F0.080600000000000005
asg18
(lp327
(lp328
F1.0
aasg22
g298
sbag0
(g10
g2
Ntp329
Rp330
(dp331
g14
g57
sg16
(lp332
F241.90000000000001
aF57.170000000000002
aF18.129999999999999
aF6.6239999999999997
aF2.6219999999999999
aF1.0569999999999999
aF0.41760000000000003
aF0.15740000000000001
asg18
(lp333
(lp334
F0.0010020000000000001
aF0.0080540000000000004
aF0.038047999999999998
aF0.123779
aF0.26606000000000002
aF0.37179600000000002
aF0.33289000000000002
aF0.12849099999999999
aasg22
g298
sbag0
(g10
g2
Ntp335
Rp336
(dp337
g14
g57
sg16
(lp338
F6.6239999999999997
asg18
(lp339
(lp340
F1.0
aasg22
g298
sbag0
(g10
g2
Ntp341
Rp342
(dp343
g14
g57
sg16
(lp344
F2.6219999999999999
asg18
(lp345
(lp346
F1.0
aasg22
g298
sbag0
(g10
g2
Ntp347
Rp348
(dp349
g14
g57
sg16
(lp350
F1.0569999999999999
asg18
(lp351
(lp352
F1.0
aasg22
g298
sbag0
(g10
g2
Ntp353
Rp354
(dp355
g14
g57
sg16
(lp356
F0.41760000000000003
asg18
(lp357
(lp358
F1.0
aasg22
g298
sbag0
(g10
g2
Ntp359
Rp360
(dp361
g14
g57
sg16
(lp362
F0.15740000000000001
asg18
(lp363
(lp364
F1.0
aasg22
g298
sbag0
(g10
g2
Ntp365
Rp366
(dp367
g14
g57
sg16
(lp368
F0.055
asg18
(lp369
(lp370
F1.0
aasg22
g298
sbag0
(g10
g2
Ntp371
Rp372
(dp373
g14
g100
sg16
(lp374
F9.2777999999999992
asg18
(lp375
(lp376
F1.0
aasg22
g298
sbag0
(g10
g2
Ntp377
Rp378
(dp379
g14
g100
sg16
(lp380
F3.2484999999999999
asg18
(lp381
(lp382
F1.0
aasg22
g298
sbag0
(g10
g2
Ntp383
Rp384
(dp385
g14
g100
sg16
(lp386
F1.1375
asg18
(lp387
(lp388
F1.0
aasg22
g298
sbag0
(g10
g2
Ntp389
Rp390
(dp391
g14
g100
sg16
(lp392
F0.39829999999999999
asg18
(lp393
(lp394
F1.0
aasg22
g298
sbag0
(g10
g2
Ntp395
Rp396
(dp397
g14
g125
sg16
(lp398
F4.5968999999999998
asg18
(lp399
(lp400
F1.0
aasg22
g298
sbag0
(g10
g2
Ntp401
Rp402
(dp403
g14
g125
sg16
(lp404
F1.6112
asg18
(lp405
(lp406
F1.0
aasg22
g298
sbag0
(g10
g2
Ntp407
Rp408
(dp409
g14
g125
sg16
(lp410
F0.56469999999999998
asg18
(lp411
(lp412
F1.0
aasg22
g298
sbag0
(g10
g2
Ntp413
Rp414
(dp415
g14
g144
sg16
(lp416
F2.1149
asg18
(lp417
(lp418
F1.0
aasg22
g298
sbag0
(g10
g2
Ntp419
Rp420
(dp421
g14
g144
sg16
(lp422
F0.76400000000000001
asg18
(lp423
(lp424
F1.0
aasg22
g298
sbasVH
p425
(lp426
g0
(g10
g2
Ntp427
Rp428
(dp429
g14
g15
sg16
(lp430
F402.0
aF60.240000000000002
aF13.73
aF3.9049999999999998
aF1.2829999999999999
aF0.46550000000000002
aF0.18110000000000001
aF0.072789999999999994
asg18
(lp431
(lp432
F0.00027900000000000001
aF0.0021649999999999998
aF0.011200999999999999
aF0.044878000000000001
aF0.14229900000000001
aF0.33097900000000002
aF0.43626900000000002
aF0.17644000000000001
aasg22
V H
p433
sbag0
(g10
g2
Ntp434
Rp435
(dp436
g14
g15
sg16
(lp437
F1.2829999999999999
asg18
(lp438
(lp439
F1.0
aasg22
g433
sbag0
(g10
g2
Ntp440
Rp441
(dp442
g14
g15
sg16
(lp443
F0.46550000000000002
asg18
(lp444
(lp445
F1.0
aasg22
g433
sbag0
(g10
g2
Ntp446
Rp447
(dp448
g14
g15
sg16
(lp449
F0.18110000000000001
asg18
(lp450
(lp451
F1.0
aasg22
g433
sbag0
(g10
g2
Ntp452
Rp453
(dp454
g14
g15
sg16
(lp455
F0.072789999999999994
asg18
(lp456
(lp457
F1.0
aasg22
g433
sbag0
(g10
g2
Ntp458
Rp459
(dp460
g14
g57
sg16
(lp461
F3.2599
asg18
(lp462
(lp463
F1.0
aasg22
g433
sbag0
(g10
g2
Ntp464
Rp465
(dp466
g14
g57
sg16
(lp467
F1.2388999999999999
asg18
(lp468
(lp469
F1.0
aasg22
g433
sbag0
(g10
g2
Ntp470
Rp471
(dp472
g14
g57
sg16
(lp473
F0.4708
asg18
(lp474
(lp475
F1.0
aasg22
g433
sbag0
(g10
g2
Ntp476
Rp477
(dp478
g14
g57
sg16
(lp479
F0.1789
asg18
(lp480
(lp481
F1.0
aasg22
g433
sbag0
(g10
g2
Ntp482
Rp483
(dp484
g14
g100
sg16
(lp485
F1.1111
asg18
(lp486
(lp487
F1.0
aasg22
g433
sbag0
(g10
g2
Ntp488
Rp489
(dp490
g14
g100
sg16
(lp491
F0.35010000000000002
asg18
(lp492
(lp493
F1.0
aasg22
g433
sbag0
(g10
g2
Ntp494
Rp495
(dp496
g14
g125
sg16
(lp497
F0.47960000000000003
asg18
(lp498
(lp499
F1.0
aasg22
g433
sbasVCL
p500
(lp501
g0
(g10
g2
Ntp502
Rp503
(dp504
g14
g15
sg16
(lp505
F6410000.0
aF959600.0
aF218300.0
aF61810.0
aF20140.0
aF7264.0
aF2832.0
aF1175.0
aF512.60000000000002
aF233.0
aF109.5
aF52.859999999999999
aF25.84
aF12.17
aF6.0300000000000002
aF3.012
aF1.5109999999999999
aF0.66039999999999999
aF0.29260000000000003
aF0.12540000000000001
asg18
(lp506
(lp507
F1.8135000000000001e-06
aF1.4111799999999999e-05
aF7.4240599999999995e-05
aF0.00031413099999999999
aF0.00114642
aF0.00373888
aF0.0110946
aF0.030115200000000002
aF0.073914499999999994
aF0.15825800000000001
aF0.27475300000000002
aF0.33406599999999997
aF0.217589
aF0.045727799999999999
aF-0.00013473900000000001
aF0.00163933
aF-0.00052221199999999998
aF0.000180648
aF-9.9931200000000003e-05
aF1.92175e-05
aa(lp508
F-5.0830300000000005e-07
aF-3.9563300000000001e-06
aF-2.0809500000000001e-05
aF-8.8117500000000005e-05
aF-0.00032174200000000002
aF-0.00105277
aF-0.00314183
aF-0.0086636300000000003
aF-0.021935300000000001
aF-0.050258400000000002
aF-0.099541400000000002
aF-0.15764700000000001
aF-0.14602399999999999
aF0.069223000000000007
aF0.43041200000000002
aF0.49080200000000002
aF0.15839
aF0.0083988499999999994
aF0.00076848400000000005
aF0.00022714600000000001
aa(lp509
F1.53808e-07
aF1.1965399999999999e-06
aF6.2982799999999998e-06
aF2.6645e-05
aF9.7416200000000004e-05
aF0.00031836000000000001
aF0.00095237700000000002
aF0.0026243
aF0.0066816000000000002
aF0.0153595
aF0.030943200000000001
aF0.050063799999999999
aF0.0489782
aF-0.026080699999999998
aF-0.178426
aF-0.33232400000000001
aF-0.13200799999999999
aF0.440556
aF0.61189099999999996
aF0.19317200000000001
aasg22
VCL
p510
sbag0
(g10
g2
Ntp511
Rp512
(dp513
g14
g15
sg16
(lp514
F1.5109999999999999
asg18
(lp515
(lp516
F1.0
aasg22
VCL
p517
sbag0
(g10
g2
Ntp518
Rp519
(dp520
g14
g15
sg16
(lp521
F0.66039999999999999
asg18
(lp522
(lp523
F1.0
aasg22
VCL
p524
sbag0
(g10
g2
Ntp525
Rp526
(dp527
g14
g15
sg16
(lp528
F0.29260000000000003
asg18
(lp529
(lp530
F1.0
aasg22
VCL
p531
sbag0
(g10
g2
Ntp532
Rp533
(dp534
g14
g15
sg16
(lp535
F0.12540000000000001
asg18
(lp536
(lp537
F1.0
aasg22
VCL
p538
sbag0
(g10
g2
Ntp539
Rp540
(dp541
g14
g15
sg16
(lp542
F0.047899999999999998
asg18
(lp543
(lp544
F1.0
aasg22
VCL
p545
sbag0
(g10
g2
Ntp546
Rp547
(dp548
g14
g57
sg16
(lp549
F2548.0
aF603.70000000000005
aF195.59999999999999
aF74.150000000000006
aF30.940000000000001
aF13.69
aF6.2290000000000001
aF2.8780000000000001
aF1.282
aF0.56410000000000005
aF0.23480000000000001
aF0.093119999999999994
asg18
(lp550
(lp551
F0.00023570199999999999
aF0.0020515799999999999
aF0.011154300000000001
aF0.043981600000000003
aF0.129994
aF0.27295900000000001
aF0.38368999999999998
aF0.29187000000000002
aF0.070446400000000006
aF0.00128761
aF0.0018262300000000001
aF1.9901299999999999e-05
aa(lp552
F-6.3540999999999994e-05
aF-0.00055325899999999996
aF-0.0030279500000000002
aF-0.012064999999999999
aF-0.036634800000000002
aF-0.079076400000000005
aF-0.117422
aF-0.086094299999999999
aF0.14030799999999999
aF0.42233599999999999
aF0.44636300000000001
aF0.166634
aasg22
VCL
p553
sbag0
(g10
g2
Ntp554
Rp555
(dp556
g14
g57
sg16
(lp557
F2.8780000000000001
asg18
(lp558
(lp559
F1.0
aasg22
VCL
p560
sbag0
(g10
g2
Ntp561
Rp562
(dp563
g14
g57
sg16
(lp564
F1.282
asg18
(lp565
(lp566
F1.0
aasg22
VCL
p567
sbag0
(g10
g2
Ntp568
Rp569
(dp570
g14
g57
sg16
(lp571
F0.56410000000000005
asg18
(lp572
(lp573
F1.0
aasg22
VCL
p574
sbag0
(g10
g2
Ntp575
Rp576
(dp577
g14
g57
sg16
(lp578
F0.23480000000000001
asg18
(lp579
(lp580
F1.0
aasg22
VCL
p581
sbag0
(g10
g2
Ntp582
Rp583
(dp584
g14
g57
sg16
(lp585
F0.093119999999999994
asg18
(lp586
(lp587
F1.0
aasg22
VCL
p588
sbag0
(g10
g2
Ntp589
Rp590
(dp591
g14
g57
sg16
(lp592
F0.034799999999999998
asg18
(lp593
(lp594
F1.0
aasg22
VCL
p595
sbag0
(g10
g2
Ntp596
Rp597
(dp598
g14
g100
sg16
(lp599
F15.385
asg18
(lp600
(lp601
F1.0
aasg22
VCL
p602
sbag0
(g10
g2
Ntp603
Rp604
(dp605
g14
g100
sg16
(lp606
F4.2916999999999996
asg18
(lp607
(lp608
F1.0
aasg22
VCL
p609
sbag0
(g10
g2
Ntp610
Rp611
(dp612
g14
g100
sg16
(lp613
F1.599
asg18
(lp614
(lp615
F1.0
aasg22
VCL
p616
sbag0
(g10
g2
Ntp617
Rp618
(dp619
g14
g100
sg16
(lp620
F0.59570000000000001
asg18
(lp621
(lp622
F1.0
aasg22
VCL
p623
sbag0
(g10
g2
Ntp624
Rp625
(dp626
g14
g100
sg16
(lp627
F0.222
asg18
(lp628
(lp629
F1.0
aasg22
VCL
p630
sbag0
(g10
g2
Ntp631
Rp632
(dp633
g14
g125
sg16
(lp634
F4.6212
asg18
(lp635
(lp636
F1.0
aasg22
VCL
p637
sbag0
(g10
g2
Ntp638
Rp639
(dp640
g14
g125
sg16
(lp641
F0.82420000000000004
asg18
(lp642
(lp643
F1.0
aasg22
VCL
p644
sbag0
(g10
g2
Ntp645
Rp646
(dp647
g14
g125
sg16
(lp648
F0.31780000000000003
asg18
(lp649
(lp650
F1.0
aasg22
VCL
p651
sbag0
(g10
g2
Ntp652
Rp653
(dp654
g14
g144
sg16
(lp655
F0.88639999999999997
asg18
(lp656
(lp657
F1.0
aasg22
VCL
p658
sbag0
(g10
g2
Ntp659
Rp660
(dp661
g14
g144
sg16
(lp662
F0.36180000000000001
asg18
(lp663
(lp664
F1.0
aasg22
VCL
p665
sbasVAL
p666
(lp667
g0
(g10
g2
Ntp668
Rp669
(dp670
g14
g15
sg16
(lp671
F3269000.0
aF489400.0
aF111400.0
aF31560.0
aF10320.0
aF3731.0
aF1456.0
aF604.10000000000002
aF263.5
aF119.8
aF56.32
aF27.190000000000001
aF13.26
aF6.0519999999999996
aF2.9809999999999999
aF1.476
aF0.73340000000000005
aF0.2447
aF0.10879999999999999
aF0.046719999999999998
asg18
(lp672
(lp673
F2.1396199999999999e-06
aF1.6626400000000001e-05
aF8.7516799999999995e-05
aF0.00036898999999999998
aF0.00133903
aF0.0043563600000000001
aF0.012895500000000001
aF0.0348201
aF0.084352999999999997
aF0.17590700000000001
aF0.29209099999999999
aF0.32822000000000001
aF0.18692700000000001
aF0.031043000000000001
aF-0.00050892199999999998
aF0.00148836
aF-0.00027824099999999998
aF0.000118752
aF-6.6149999999999995e-05
aF1.7595400000000001e-05
aa(lp674
F-5.5602600000000003e-07
aF-4.3230300000000003e-06
aF-2.2741299999999999e-05
aF-9.6011600000000001e-05
aF-0.00034837600000000001
aF-0.0011383599999999999
aF-0.0033874399999999998
aF-0.0093150500000000001
aF-0.023302300000000001
aF-0.052348600000000002
aF-0.099949899999999994
aF-0.15056
aF-0.119121
aF0.10809100000000001
aF0.41112900000000002
aF0.45721400000000001
aF0.17593800000000001
aF0.0077060999999999996
aF-0.00166168
aF0.00044534700000000002
aa(lp675
F1.2842300000000001e-07
aF9.9751399999999994e-07
aF5.2548000000000001e-06
aF2.2144999999999999e-05
aF8.0546399999999998e-05
aF0.00026250600000000002
aF0.00078421999999999997
aF0.0021503899999999999
aF0.0054197400000000001
aF0.0121686
aF0.0236823
aF0.036093699999999999
aF0.030328399999999998
aF-0.030903400000000001
aF-0.119126
aF-0.211145
aF-0.157944
aF0.33903800000000001
aF0.613097
aF0.23516799999999999
aasg22
VAL
p676
sbag0
(g10
g2
Ntp677
Rp678
(dp679
g14
g15
sg16
(lp680
F0.73340000000000005
asg18
(lp681
(lp682
F1.0
aasg22
VAL
p683
sbag0
(g10
g2
Ntp684
Rp685
(dp686
g14
g15
sg16
(lp687
F0.2447
asg18
(lp688
(lp689
F1.0
aasg22
VAL
p690
sbag0
(g10
g2
Ntp691
Rp692
(dp693
g14
g15
sg16
(lp694
F0.10879999999999999
asg18
(lp695
(lp696
F1.0
aasg22
VAL
p697
sbag0
(g10
g2
Ntp698
Rp699
(dp700
g14
g15
sg16
(lp701
F0.046719999999999998
asg18
(lp702
(lp703
F1.0
aasg22
VAL
p704
sbag0
(g10
g2
Ntp705
Rp706
(dp707
g14
g15
sg16
(lp708
F0.0177
asg18
(lp709
(lp710
F1.0
aasg22
VAL
p711
sbag0
(g10
g2
Ntp712
Rp713
(dp714
g14
g57
sg16
(lp715
F1461.0
aF346.19999999999999
aF112.2
aF42.509999999999998
aF17.719999999999999
aF7.8520000000000003
aF3.5710000000000002
aF1.637
aF0.73819999999999997
aF0.25769999999999998
aF0.097729999999999997
aF0.036900000000000002
asg18
(lp716
(lp717
F0.00020861299999999999
aF0.0018100499999999999
aF0.0097343299999999994
aF0.037826600000000002
aF0.110898
aF0.234295
aF0.34524500000000002
aF0.33143
aF0.147064
aF0.0121411
aF-0.00087163900000000001
aF0.00043795699999999999
aa(lp718
F-3.7194699999999998e-05
aF-0.00032856299999999998
aF-0.0017426399999999999
aF-0.0069482800000000003
aF-0.020280699999999999
aF-0.044865700000000001
aF-0.064327800000000004
aF-0.075266600000000003
aF0.00061600800000000003
aF0.28781899999999999
aF0.54303000000000001
aF0.30186499999999999
aasg22
VAL
p719
sbag0
(g10
g2
Ntp720
Rp721
(dp722
g14
g57
sg16
(lp723
F1.637
asg18
(lp724
(lp725
F1.0
aasg22
VAL
p726
sbag0
(g10
g2
Ntp727
Rp728
(dp729
g14
g57
sg16
(lp730
F0.73819999999999997
asg18
(lp731
(lp732
F1.0
aasg22
VAL
p733
sbag0
(g10
g2
Ntp734
Rp735
(dp736
g14
g57
sg16
(lp737
F0.25769999999999998
asg18
(lp738
(lp739
F1.0
aasg22
VAL
p740
sbag0
(g10
g2
Ntp741
Rp742
(dp743
g14
g57
sg16
(lp744
F0.097729999999999997
asg18
(lp745
(lp746
F1.0
aasg22
VAL
p747
sbag0
(g10
g2
Ntp748
Rp749
(dp750
g14
g57
sg16
(lp751
F0.036900000000000002
asg18
(lp752
(lp753
F1.0
aasg22
VAL
p754
sbag0
(g10
g2
Ntp755
Rp756
(dp757
g14
g57
sg16
(lp758
F0.0115
asg18
(lp759
(lp760
F1.0
aasg22
VAL
p761
sbag0
(g10
g2
Ntp762
Rp763
(dp764
g14
g100
sg16
(lp765
F5.1993999999999998
asg18
(lp766
(lp767
F1.0
aasg22
VAL
p768
sbag0
(g10
g2
Ntp769
Rp770
(dp771
g14
g100
sg16
(lp772
F1.4792000000000001
asg18
(lp773
(lp774
F1.0
aasg22
VAL
p775
sbag0
(g10
g2
Ntp776
Rp777
(dp778
g14
g100
sg16
(lp779
F0.59970000000000001
asg18
(lp780
(lp781
F1.0
aasg22
VAL
p782
sbag0
(g10
g2
Ntp783
Rp784
(dp785
g14
g100
sg16
(lp786
F0.24310000000000001
asg18
(lp787
(lp788
F1.0
aasg22
VAL
p789
sbag0
(g10
g2
Ntp790
Rp791
(dp792
g14
g100
sg16
(lp793
F0.098599999999999993
asg18
(lp794
(lp795
F1.0
aasg22
VAL
p796
sbag0
(g10
g2
Ntp797
Rp798
(dp799
g14
g125
sg16
(lp800
F0.7833
asg18
(lp801
(lp802
F1.0
aasg22
VAL
p803
sbag0
(g10
g2
Ntp804
Rp805
(dp806
g14
g125
sg16
(lp807
F0.28620000000000001
asg18
(lp808
(lp809
F1.0
aasg22
VAL
p810
sbag0
(g10
g2
Ntp811
Rp812
(dp813
g14
g125
sg16
(lp814
F0.1157
asg18
(lp815
(lp816
F1.0
aasg22
VAL
p817
sbag0
(g10
g2
Ntp818
Rp819
(dp820
g14
g144
sg16
(lp821
F0.3765
asg18
(lp822
(lp823
F1.0
aasg22
VAL
p824
sbag0
(g10
g2
Ntp825
Rp826
(dp827
g14
g144
sg16
(lp828
F0.14610000000000001
asg18
(lp829
(lp830
F1.0
aasg22
VAL
p831
sbasVO
p832
(lp833
g0
(g10
g2
Ntp834
Rp835
(dp836
g14
g15
sg16
(lp837
F164200.0
aF24590.0
aF5592.0
aF1582.0
aF516.10000000000002
aF187.19999999999999
aF73.930000000000007
aF31.219999999999999
aF13.81
aF6.2560000000000002
aF2.7759999999999998
aF1.1379999999999999
aF0.46000000000000002
aF0.18290000000000001
asg18
(lp838
(lp839
F2.5999999999999998e-05
aF0.000205
aF0.0010759999999999999
aF0.004522
aF0.016108000000000001
aF0.049084999999999997
aF0.124857
aF0.25168600000000002
aF0.36242000000000002
aF0.27905099999999999
aF0.063551999999999997
aF0.0010629999999999999
aF0.0011440000000000001
aF-4.0000000000000003e-05
aa(lp840
F-6.0000000000000002e-06
aF-4.6e-05
aF-0.00024399999999999999
aF-0.001031
aF-0.0036879999999999999
aF-0.011514
aF-0.030435
aF-0.068146999999999999
aF-0.120368
aF-0.14826
aF0.0099050000000000006
aF0.38428600000000002
aF0.53680499999999998
aF0.20268700000000001
aasg22
V O
p841
sbag0
(g10
g2
Ntp842
Rp843
(dp844
g14
g15
sg16
(lp845
F2.7759999999999998
asg18
(lp846
(lp847
F1.0
aasg22
g841
sbag0
(g10
g2
Ntp848
Rp849
(dp850
g14
g15
sg16
(lp851
F1.1379999999999999
asg18
(lp852
(lp853
F1.0
aasg22
g841
sbag0
(g10
g2
Ntp854
Rp855
(dp856
g14
g15
sg16
(lp857
F0.46000000000000002
asg18
(lp858
(lp859
F1.0
aasg22
g841
sbag0
(g10
g2
Ntp860
Rp861
(dp862
g14
g15
sg16
(lp863
F0.18290000000000001
asg18
(lp864
(lp865
F1.0
aasg22
g841
sbag0
(g10
g2
Ntp866
Rp867
(dp868
g14
g15
sg16
(lp869
F0.065500000000000003
asg18
(lp870
(lp871
F1.0
aasg22
g841
sbag0
(g10
g2
Ntp872
Rp873
(dp874
g14
g57
sg16
(lp875
F195.5
aF46.159999999999997
aF14.58
aF5.2960000000000003
aF2.0939999999999999
aF0.84709999999999996
aF0.33679999999999999
aF0.1285
asg18
(lp876
(lp877
F0.00091799999999999998
aF0.0073879999999999996
aF0.034958000000000003
aF0.11543100000000001
aF0.256803
aF0.37393799999999999
aF0.343447
aF0.12970599999999999
aasg22
g841
sbag0
(g10
g2
Ntp878
Rp879
(dp880
g14
g57
sg16
(lp881
F5.2960000000000003
asg18
(lp882
(lp883
F1.0
aasg22
g841
sbag0
(g10
g2
Ntp884
Rp885
(dp886
g14
g57
sg16
(lp887
F2.0939999999999999
asg18
(lp888
(lp889
F1.0
aasg22
g841
sbag0
(g10
g2
Ntp890
Rp891
(dp892
g14
g57
sg16
(lp893
F0.84709999999999996
asg18
(lp894
(lp895
F1.0
aasg22
g841
sbag0
(g10
g2
Ntp896
Rp897
(dp898
g14
g57
sg16
(lp899
F0.33679999999999999
asg18
(lp900
(lp901
F1.0
aasg22
g841
sbag0
(g10
g2
Ntp902
Rp903
(dp904
g14
g57
sg16
(lp905
F0.1285
asg18
(lp906
(lp907
F1.0
aasg22
g841
sbag0
(g10
g2
Ntp908
Rp909
(dp910
g14
g57
sg16
(lp911
F0.044600000000000001
asg18
(lp912
(lp913
F1.0
aasg22
g841
sbag0
(g10
g2
Ntp914
Rp915
(dp916
g14
g100
sg16
(lp917
F7.6719999999999997
asg18
(lp918
(lp919
F1.0
aasg22
g841
sbag0
(g10
g2
Ntp920
Rp921
(dp922
g14
g100
sg16
(lp923
F2.8205
asg18
(lp924
(lp925
F1.0
aasg22
g841
sbag0
(g10
g2
Ntp926
Rp927
(dp928
g14
g100
sg16
(lp929
F1.0368999999999999
asg18
(lp930
(lp931
F1.0
aasg22
g841
sbag0
(g10
g2
Ntp932
Rp933
(dp934
g14
g100
sg16
(lp935
F0.38119999999999998
asg18
(lp936
(lp937
F1.0
aasg22
g841
sbag0
(g10
g2
Ntp938
Rp939
(dp940
g14
g125
sg16
(lp941
F3.5028000000000001
asg18
(lp942
(lp943
F1.0
aasg22
g841
sbag0
(g10
g2
Ntp944
Rp945
(dp946
g14
g125
sg16
(lp947
F1.2802
asg18
(lp948
(lp949
F1.0
aasg22
g841
sbag0
(g10
g2
Ntp950
Rp951
(dp952
g14
g125
sg16
(lp953
F0.46789999999999998
asg18
(lp954
(lp955
F1.0
aasg22
g841
sbag0
(g10
g2
Ntp956
Rp957
(dp958
g14
g144
sg16
(lp959
F1.5880000000000001
asg18
(lp960
(lp961
F1.0
aasg22
g841
sbag0
(g10
g2
Ntp962
Rp963
(dp964
g14
g144
sg16
(lp965
F0.58360000000000001
asg18
(lp966
(lp967
F1.0
aasg22
g841
sbasVNE
p968
(lp969
g0
(g10
g2
Ntp970
Rp971
(dp972
g14
g15
sg16
(lp973
F262700.0
aF39350.0
aF8955.0
aF2538.0
aF829.89999999999998
aF301.5
aF119.0
aF50.0
aF21.98
aF9.891
aF4.327
aF1.804
aF0.7288
aF0.28670000000000001
asg18
(lp974
(lp975
F2.5999999999999998e-05
aF0.00020000000000000001
aF0.0010499999999999999
aF0.0044000000000000003
aF0.015649
aF0.047758000000000002
aF0.122943
aF0.25248300000000001
aF0.36631399999999997
aF0.279617
aF0.061650999999999997
aF0.00093400000000000004
aF0.0013669999999999999
aF-3.8000000000000002e-05
aa(lp976
F-6.0000000000000002e-06
aF-4.6999999999999997e-05
aF-0.00024699999999999999
aF-0.0010380000000000001
aF-0.0037109999999999999
aF-0.011592999999999999
aF-0.031085999999999999
aF-0.070971999999999993
aF-0.12726599999999999
aF-0.151231
aF0.024666
aF0.39961200000000002
aF0.52661599999999997
aF0.190854
aasg22
VNE
p977
sbag0
(g10
g2
Ntp978
Rp979
(dp980
g14
g15
sg16
(lp981
F4.327
asg18
(lp982
(lp983
F1.0
aasg22
VNE
p984
sbag0
(g10
g2
Ntp985
Rp986
(dp987
g14
g15
sg16
(lp988
F1.804
asg18
(lp989
(lp990
F1.0
aasg22
VNE
p991
sbag0
(g10
g2
Ntp992
Rp993
(dp994
g14
g15
sg16
(lp995
F0.7288
asg18
(lp996
(lp997
F1.0
aasg22
VNE
p998
sbag0
(g10
g2
Ntp999
Rp1000
(dp1001
g14
g15
sg16
(lp1002
F0.28670000000000001
asg18
(lp1003
(lp1004
F1.0
aasg22
VNE
p1005
sbag0
(g10
g2
Ntp1006
Rp1007
(dp1008
g14
g15
sg16
(lp1009
F0.095699999999999993
asg18
(lp1010
(lp1011
F1.0
aasg22
VNE
p1012
sbag0
(g10
g2
Ntp1013
Rp1014
(dp1015
g14
g57
sg16
(lp1016
F299.10000000000002
aF70.730000000000004
aF22.48
aF8.2460000000000004
aF3.2690000000000001
aF1.3149999999999999
aF0.51580000000000004
aF0.1918
asg18
(lp1017
(lp1018
F0.0010380000000000001
aF0.0083750000000000005
aF0.039692999999999999
aF0.128056
aF0.27032499999999998
aF0.37096299999999999
aF0.32849899999999999
aF0.12758800000000001
aasg22
VNE
p1019
sbag0
(g10
g2
Ntp1020
Rp1021
(dp1022
g14
g57
sg16
(lp1023
F8.2460000000000004
asg18
(lp1024
(lp1025
F1.0
aasg22
VNE
p1026
sbag0
(g10
g2
Ntp1027
Rp1028
(dp1029
g14
g57
sg16
(lp1030
F3.2690000000000001
asg18
(lp1031
(lp1032
F1.0
aasg22
VNE
p1033
sbag0
(g10
g2
Ntp1034
Rp1035
(dp1036
g14
g57
sg16
(lp1037
F1.3149999999999999
asg18
(lp1038
(lp1039
F1.0
aasg22
VNE
p1040
sbag0
(g10
g2
Ntp1041
Rp1042
(dp1043
g14
g57
sg16
(lp1044
F0.51580000000000004
asg18
(lp1045
(lp1046
F1.0
aasg22
VNE
p1047
sbag0
(g10
g2
Ntp1048
Rp1049
(dp1050
g14
g57
sg16
(lp1051
F0.1918
asg18
(lp1052
(lp1053
F1.0
aasg22
VNE
p1054
sbag0
(g10
g2
Ntp1055
Rp1056
(dp1057
g14
g57
sg16
(lp1058
F0.0654
asg18
(lp1059
(lp1060
F1.0
aasg22
VNE
p1061
sbag0
(g10
g2
Ntp1062
Rp1063
(dp1064
g14
g100
sg16
(lp1065
F11.922000000000001
asg18
(lp1066
(lp1067
F1.0
aasg22
VNE
p1068
sbag0
(g10
g2
Ntp1069
Rp1070
(dp1071
g14
g100
sg16
(lp1072
F4.0799000000000003
asg18
(lp1073
(lp1074
F1.0
aasg22
VNE
p1075
sbag0
(g10
g2
Ntp1076
Rp1077
(dp1078
g14
g100
sg16
(lp1079
F1.3963000000000001
asg18
(lp1080
(lp1081
F1.0
aasg22
VNE
p1082
sbag0
(g10
g2
Ntp1083
Rp1084
(dp1085
g14
g100
sg16
(lp1086
F0.4778
asg18
(lp1087
(lp1088
F1.0
aasg22
VNE
p1089
sbag0
(g10
g2
Ntp1090
Rp1091
(dp1092
g14
g125
sg16
(lp1093
F7.1249000000000002
asg18
(lp1094
(lp1095
F1.0
aasg22
VNE
p1096
sbag0
(g10
g2
Ntp1097
Rp1098
(dp1099
g14
g125
sg16
(lp1100
F2.323
asg18
(lp1101
(lp1102
F1.0
aasg22
VNE
p1103
sbag0
(g10
g2
Ntp1104
Rp1105
(dp1106
g14
g125
sg16
(lp1107
F0.75739999999999996
asg18
(lp1108
(lp1109
F1.0
aasg22
VNE
p1110
sbag0
(g10
g2
Ntp1111
Rp1112
(dp1113
g14
g144
sg16
(lp1114
F4.4684999999999997
asg18
(lp1115
(lp1116
F1.0
aasg22
VNE
p1117
sbag0
(g10
g2
Ntp1118
Rp1119
(dp1120
g14
g144
sg16
(lp1121
F0.9718
asg18
(lp1122
(lp1123
F1.0
aasg22
VNE
p1124
sbasg57
(lp1125
g0
(g10
g2
Ntp1126
Rp1127
(dp1128
g14
g15
sg16
(lp1129
F4666000.0
aF698600.0
aF159000.0
aF45040.0
aF14720.0
aF5323.0
aF2076.0
aF861.10000000000002
aF375.69999999999999
aF170.80000000000001
aF80.290000000000006
aF38.770000000000003
aF18.93
aF8.7959999999999994
aF4.3579999999999997
aF2.1739999999999999
aF1.095
aF0.44
aF0.19450000000000001
aF0.083760000000000001
asg18
(lp1130
(lp1131
F1.9675900000000002e-06
aF1.5296300000000001e-05
aF8.0482599999999994e-05
aF0.000339737
aF0.00123291
aF0.00401345
aF0.0119124
aF0.032251099999999998
aF0.078664300000000006
aF0.16645799999999999
aF0.28303899999999999
aF0.33194200000000001
aF0.203352
aF0.0383183
aF-0.00038472000000000002
aF0.0015874400000000001
aF-0.00041337999999999998
aF0.00015283699999999999
aF-8.2703100000000004e-05
aF1.8413299999999999e-05
aa(lp1132
F-5.3415299999999998e-07
aF-4.1542199999999997e-06
aF-2.1848399999999999e-05
aF-9.2327199999999999e-05
aF-0.00033510899999999999
aF-0.00109508
aF-0.0032679800000000002
aF-0.0089995100000000005
aF-0.022652800000000001
aF-0.051464999999999997
aF-0.100186
aF-0.15507499999999999
aF-0.13381799999999999
aF0.0878361
aF0.42258099999999998
aF0.47489900000000002
aF0.16500200000000001
aF0.0084686199999999996
aF-0.00029176199999999999
aF0.00028534099999999999
aa(lp1133
F1.4677599999999999e-07
aF1.14064e-06
aF6.0056800000000002e-06
aF2.53427e-05
aF9.21606e-05
aF0.000300563
aF0.00089988399999999999
aF0.0024735400000000002
aF0.0062681200000000003
aF0.0142598
aF0.028276900000000001
aF0.044512400000000001
aF0.0407217
aF-0.0301908
aF-0.152894
aF-0.28241100000000002
aF-0.14852199999999999
aF0.393563
aF0.61732699999999996
aF0.214612
aasg22
V P
p1134
sbag0
(g10
g2
Ntp1135
Rp1136
(dp1137
g14
g15
sg16
(lp1138
F1.095
asg18
(lp1139
(lp1140
F1.0
aasg22
g1134
sbag0
(g10
g2
Ntp1141
Rp1142
(dp1143
g14
g15
sg16
(lp1144
F0.44
asg18
(lp1145
(lp1146
F1.0
aasg22
g1134
sbag0
(g10
g2
Ntp1147
Rp1148
(dp1149
g14
g15
sg16
(lp1150
F0.19450000000000001
asg18
(lp1151
(lp1152
F1.0
aasg22
g1134
sbag0
(g10
g2
Ntp1153
Rp1154
(dp1155
g14
g15
sg16
(lp1156
F0.083760000000000001
asg18
(lp1157
(lp1158
F1.0
aasg22
g1134
sbag0
(g10
g2
Ntp1159
Rp1160
(dp1161
g14
g15
sg16
(lp1162
F0.033500000000000002
asg18
(lp1163
(lp1164
F1.0
aasg22
g1134
sbag0
(g10
g2
Ntp1165
Rp1166
(dp1167
g14
g57
sg16
(lp1168
F2010.0
aF476.30000000000001
aF154.40000000000001
aF58.509999999999998
aF24.399999999999999
aF10.800000000000001
aF4.9130000000000003
aF2.2690000000000001
aF1.0429999999999999
aF0.43130000000000002
aF0.1767
aF0.07009
asg18
(lp1169
(lp1170
F0.00021591500000000001
aF0.00187536
aF0.0101742
aF0.039985600000000003
aF0.118563
aF0.25181599999999998
aF0.36656499999999997
aF0.31617699999999999
aF0.1047
aF0.0060986199999999999
aF0.00050207699999999997
aF-2.9561799999999999e-05
aa(lp1171
F-5.1144399999999998e-05
aF-0.00044835600000000001
aF-0.0024234
aF-0.0096982600000000002
aF-0.029096500000000001
aF-0.064172599999999996
aF-0.094507099999999997
aF-0.093469999999999998
aF0.052061099999999999
aF0.37462400000000001
aF0.50909700000000002
aF0.215116
aasg22
g1134
sbag0
(g10
g2
Ntp1172
Rp1173
(dp1174
g14
g57
sg16
(lp1175
F2.2690000000000001
asg18
(lp1176
(lp1177
F1.0
aasg22
g1134
sbag0
(g10
g2
Ntp1178
Rp1179
(dp1180
g14
g57
sg16
(lp1181
F1.0429999999999999
asg18
(lp1182
(lp1183
F1.0
aasg22
g1134
sbag0
(g10
g2
Ntp1184
Rp1185
(dp1186
g14
g57
sg16
(lp1187
F0.43130000000000002
asg18
(lp1188
(lp1189
F1.0
aasg22
g1134
sbag0
(g10
g2
Ntp1190
Rp1191
(dp1192
g14
g57
sg16
(lp1193
F0.1767
asg18
(lp1194
(lp1195
F1.0
aasg22
g1134
sbag0
(g10
g2
Ntp1196
Rp1197
(dp1198
g14
g57
sg16
(lp1199
F0.07009
asg18
(lp1200
(lp1201
F1.0
aasg22
g1134
sbag0
(g10
g2
Ntp1202
Rp1203
(dp1204
g14
g57
sg16
(lp1205
F0.0253
asg18
(lp1206
(lp1207
F1.0
aasg22
g1134
sbag0
(g10
g2
Ntp1208
Rp1209
(dp1210
g14
g100
sg16
(lp1211
F9.5221
asg18
(lp1212
(lp1213
F1.0
aasg22
g1134
sbag0
(g10
g2
Ntp1214
Rp1215
(dp1216
g14
g100
sg16
(lp1217
F2.7993999999999999
asg18
(lp1218
(lp1219
F1.0
aasg22
g1134
sbag0
(g10
g2
Ntp1220
Rp1221
(dp1222
g14
g100
sg16
(lp1223
F1.0799000000000001
asg18
(lp1224
(lp1225
F1.0
aasg22
g1134
sbag0
(g10
g2
Ntp1226
Rp1227
(dp1228
g14
g100
sg16
(lp1229
F0.41660000000000003
asg18
(lp1230
(lp1231
F1.0
aasg22
g1134
sbag0
(g10
g2
Ntp1232
Rp1233
(dp1234
g14
g100
sg16
(lp1235
F0.16070000000000001
asg18
(lp1236
(lp1237
F1.0
aasg22
g1134
sbag0
(g10
g2
Ntp1238
Rp1239
(dp1240
g14
g125
sg16
(lp1241
F1.5054000000000001
asg18
(lp1242
(lp1243
F1.0
aasg22
g1134
sbag0
(g10
g2
Ntp1244
Rp1245
(dp1246
g14
g125
sg16
(lp1247
F0.49020000000000002
asg18
(lp1248
(lp1249
F1.0
aasg22
g1134
sbag0
(g10
g2
Ntp1250
Rp1251
(dp1252
g14
g125
sg16
(lp1253
F0.2026
asg18
(lp1254
(lp1255
F1.0
aasg22
g1134
sbag0
(g10
g2
Ntp1256
Rp1257
(dp1258
g14
g144
sg16
(lp1259
F0.6431
asg18
(lp1260
(lp1261
F1.0
aasg22
g1134
sbag0
(g10
g2
Ntp1262
Rp1263
(dp1264
g14
g144
sg16
(lp1265
F0.25729999999999997
asg18
(lp1266
(lp1267
F1.0
aasg22
g1134
sbasg15
(lp1268
g0
(g10
g2
Ntp1269
Rp1270
(dp1271
g14
g15
sg16
(lp1272
F5481000.0
aF820600.0
aF186700.0
aF52880.0
aF17250.0
aF6226.0
aF2429.0
aF1007.0
aF439.5
aF199.80000000000001
aF93.920000000000002
aF45.340000000000003
aF22.149999999999999
aF10.34
aF5.1189999999999998
aF2.5529999999999999
aF1.282
aF0.54500000000000004
aF0.24110000000000001
aF0.10349999999999999
asg18
(lp1273
(lp1274
F1.89338e-06
aF1.47211e-05
aF7.7508400000000005e-05
aF0.00032722399999999998
aF0.0011936500000000001
aF0.0038839299999999998
aF0.0115336
aF0.031274799999999998
aF0.076438699999999998
aF0.16270000000000001
aF0.27932800000000002
aF0.33314500000000002
aF0.20983599999999999
aF0.0415974
aF-0.00045055200000000001
aF0.00168855
aF-0.00051723600000000002
aF0.00018877299999999999
aF-9.9773399999999996e-05
aF2.0902000000000001e-05
aa(lp1275
F-5.2291200000000002e-07
aF-4.0669e-06
aF-2.1406499999999999e-05
aF-9.0453999999999998e-05
aF-0.00033008000000000001
aF-0.0010778199999999999
aF-0.0032187399999999999
aF-0.0088721700000000004
aF-0.0223771
aF-0.051057699999999998
aF-0.10022499999999999
aF-0.15679499999999999
aF-0.13974800000000001
aF0.081005900000000006
aF0.43088300000000002
aF0.48168800000000001
aF0.156862
aF0.0078881400000000001
aF0.000393533
aF0.00022375699999999999
aa(lp1276
F1.51823e-07
aF1.18008e-06
aF6.2169900000000001e-06
aF2.6240500000000001e-05
aF9.5903999999999995e-05
aF0.00031267799999999999
aF0.00093632199999999996
aF0.0025779000000000002
aF0.0065412100000000004
aF0.014963000000000001
aF0.029894
aF0.047694599999999997
aF0.044955599999999998
aF-0.029300900000000001
aF-0.16891600000000001
aF-0.31101400000000001
aF-0.136491
aF0.42319499999999999
aF0.61388799999999999
aF0.20047300000000001
aasg22
V S
p1277
sbag0
(g10
g2
Ntp1278
Rp1279
(dp1280
g14
g15
sg16
(lp1281
F1.282
asg18
(lp1282
(lp1283
F1.0
aasg22
g1277
sbag0
(g10
g2
Ntp1284
Rp1285
(dp1286
g14
g15
sg16
(lp1287
F0.54500000000000004
asg18
(lp1288
(lp1289
F1.0
aasg22
g1277
sbag0
(g10
g2
Ntp1290
Rp1291
(dp1292
g14
g15
sg16
(lp1293
F0.24110000000000001
asg18
(lp1294
(lp1295
F1.0
aasg22
g1277
sbag0
(g10
g2
Ntp1296
Rp1297
(dp1298
g14
g15
sg16
(lp1299
F0.10349999999999999
asg18
(lp1300
(lp1301
F1.0
aasg22
g1277
sbag0
(g10
g2
Ntp1302
Rp1303
(dp1304
g14
g15
sg16
(lp1305
F0.042000000000000003
asg18
(lp1306
(lp1307
F1.0
aasg22
g1277
sbag0
(g10
g2
Ntp1308
Rp1309
(dp1310
g14
g57
sg16
(lp1311
F2200.0
aF521.39999999999998
aF169.0
aF64.049999999999997
aF26.719999999999999
aF11.83
aF5.3780000000000001
aF2.4820000000000002
aF1.1160000000000001
aF0.48480000000000001
aF0.2006
aF0.079509999999999997
asg18
(lp1312
(lp1313
F0.00023904899999999999
aF0.0020768599999999998
aF0.011236299999999999
aF0.044068999999999997
aF0.12916800000000001
aF0.26908300000000002
aF0.37861099999999998
aF0.29677900000000002
aF0.077967599999999998
aF0.00205193
aF0.0014360200000000001
aF-5.9599999999999999e-05
aa(lp1314
F-6.0856200000000002e-05
aF-0.00053041899999999996
aF-0.00287915
aF-0.011439700000000001
aF-0.034276399999999999
aF-0.073581099999999997
aF-0.107782
aF-0.087976899999999997
aF0.108261
aF0.407082
aF0.46899400000000002
aF0.18487700000000001
aasg22
g1277
sbag0
(g10
g2
Ntp1315
Rp1316
(dp1317
g14
g57
sg16
(lp1318
F2.4820000000000002
asg18
(lp1319
(lp1320
F1.0
aasg22
g1277
sbag0
(g10
g2
Ntp1321
Rp1322
(dp1323
g14
g57
sg16
(lp1324
F1.1160000000000001
asg18
(lp1325
(lp1326
F1.0
aasg22
g1277
sbag0
(g10
g2
Ntp1327
Rp1328
(dp1329
g14
g57
sg16
(lp1330
F0.48480000000000001
asg18
(lp1331
(lp1332
F1.0
aasg22
g1277
sbag0
(g10
g2
Ntp1333
Rp1334
(dp1335
g14
g57
sg16
(lp1336
F0.2006
asg18
(lp1337
(lp1338
F1.0
aasg22
g1277
sbag0
(g10
g2
Ntp1339
Rp1340
(dp1341
g14
g57
sg16
(lp1342
F0.079509999999999997
asg18
(lp1343
(lp1344
F1.0
aasg22
g1277
sbag0
(g10
g2
Ntp1345
Rp1346
(dp1347
g14
g57
sg16
(lp1348
F0.029399999999999999
asg18
(lp1349
(lp1350
F1.0
aasg22
g1277
sbag0
(g10
g2
Ntp1351
Rp1352
(dp1353
g14
g100
sg16
(lp1354
F12.605
asg18
(lp1355
(lp1356
F1.0
aasg22
g1277
sbag0
(g10
g2
Ntp1357
Rp1358
(dp1359
g14
g100
sg16
(lp1360
F3.6852
asg18
(lp1361
(lp1362
F1.0
aasg22
g1277
sbag0
(g10
g2
Ntp1363
Rp1364
(dp1365
g14
g100
sg16
(lp1366
F1.3714999999999999
asg18
(lp1367
(lp1368
F1.0
aasg22
g1277
sbag0
(g10
g2
Ntp1369
Rp1370
(dp1371
g14
g100
sg16
(lp1372
F0.51039999999999996
asg18
(lp1373
(lp1374
F1.0
aasg22
g1277
sbag0
(g10
g2
Ntp1375
Rp1376
(dp1377
g14
g100
sg16
(lp1378
F0.19
asg18
(lp1379
(lp1380
F1.0
aasg22
g1277
sbag0
(g10
g2
Ntp1381
Rp1382
(dp1383
g14
g125
sg16
(lp1384
F3.7749000000000001
asg18
(lp1385
(lp1386
F1.0
aasg22
g1277
sbag0
(g10
g2
Ntp1387
Rp1388
(dp1389
g14
g125
sg16
(lp1390
F0.70909999999999995
asg18
(lp1391
(lp1392
F1.0
aasg22
g1277
sbag0
(g10
g2
Ntp1393
Rp1394
(dp1395
g14
g125
sg16
(lp1396
F0.2737
asg18
(lp1397
(lp1398
F1.0
aasg22
g1277
sbag0
(g10
g2
Ntp1399
Rp1400
(dp1401
g14
g144
sg16
(lp1402
F0.77559999999999996
asg18
(lp1403
(lp1404
F1.0
aasg22
g1277
sbag0
(g10
g2
Ntp1405
Rp1406
(dp1407
g14
g144
sg16
(lp1408
F0.31159999999999999
asg18
(lp1409
(lp1410
F1.0
aasg22
g1277
sbasVAR
p1411
(lp1412
g0
(g10
g2
Ntp1413
Rp1414
(dp1415
g14
g15
sg16
(lp1416
F7401000.0
aF1108000.0
aF252100.0
aF71380.0
aF23260.0
aF8390.0
aF3271.0
aF1357.0
aF592.0
aF269.10000000000002
aF126.5
aF61.030000000000001
aF29.859999999999999
aF14.17
aF7.0220000000000002
aF3.5110000000000001
aF1.758
aF0.78410000000000002
aF0.34799999999999998
aF0.14910000000000001
asg18
(lp1417
(lp1418
F1.7501800000000001e-06
aF1.36147e-05
aF7.1629699999999996e-05
aF0.000303035
aF0.0011061000000000001
aF0.0036067899999999999
aF0.0107134
aF0.029107399999999999
aF0.071661699999999995
aF0.154144
aF0.27042300000000002
aF0.33486199999999999
aF0.22434699999999999
aF0.0500081
aF0.00014972600000000001
aF0.0021036900000000001
aF-0.00041072599999999998
aF-0.00088861699999999997
aF-0.0015623600000000001
aF-0.00042683800000000002
aa(lp1419
F-5.2044799999999998e-07
aF-4.0490900000000001e-06
aF-2.1302300000000001e-05
aF-9.0168599999999996e-05
aF-0.00032937400000000001
aF-0.00107715
aF-0.0032189200000000001
aF-0.0088784499999999995
aF-0.022554500000000002
aF-0.051845299999999997
aF-0.10372199999999999
aF-0.16659499999999999
aF-0.160165
aF0.062365400000000001
aF0.465534
aF0.58156399999999997
aF0.19136900000000001
aF-0.12856600000000001
aF-0.18321599999999999
aF-0.056626599999999999
aa(lp1420
F2.30379e-09
aF1.7422100000000001e-08
aF9.5529999999999996e-08
aF3.8361900000000002e-07
aF1.5053499999999999e-06
aF4.5863200000000002e-06
aF1.5500200000000001e-05
aF4.0669500000000001e-05
aF0.00013133700000000001
aF0.00033268499999999999
aF0.0010667000000000001
aF0.0025720999999999999
aF0.0048358400000000001
aF-0.0038572799999999998
aF-0.047612500000000002
aF-0.18295700000000001
aF-0.073282
aF0.43482199999999999
aF0.58171099999999998
aF0.179373
aasg22
VAR
p1421
sbag0
(g10
g2
Ntp1422
Rp1423
(dp1424
g14
g15
sg16
(lp1425
F1.758
asg18
(lp1426
(lp1427
F1.0
aasg22
VAR
p1428
sbag0
(g10
g2
Ntp1429
Rp1430
(dp1431
g14
g15
sg16
(lp1432
F0.78410000000000002
asg18
(lp1433
(lp1434
F1.0
aasg22
VAR
p1435
sbag0
(g10
g2
Ntp1436
Rp1437
(dp1438
g14
g15
sg16
(lp1439
F0.34799999999999998
asg18
(lp1440
(lp1441
F1.0
aasg22
VAR
p1442
sbag0
(g10
g2
Ntp1443
Rp1444
(dp1445
g14
g15
sg16
(lp1446
F0.14910000000000001
asg18
(lp1447
(lp1448
F1.0
aasg22
VAR
p1449
sbag0
(g10
g2
Ntp1450
Rp1451
(dp1452
g14
g15
sg16
(lp1453
F0.053800000000000001
asg18
(lp1454
(lp1455
F1.0
aasg22
VAR
p1456
sbag0
(g10
g2
Ntp1457
Rp1458
(dp1459
g14
g57
sg16
(lp1460
F2927.0
aF693.5
aF224.69999999999999
aF85.170000000000002
aF35.530000000000001
aF15.73
aF7.165
aF3.3220000000000001
aF1.478
aF0.6552
aF0.27510000000000001
aF0.10970000000000001
asg18
(lp1461
(lp1462
F0.000188338
aF0.00164288
aF0.0089489300000000008
aF0.035511099999999997
aF0.105147
aF0.221552
aF0.30841200000000002
aF0.23220299999999999
aF0.12447800000000001
aF0.16830999999999999
aF0.168292
aF0.0597981
aa(lp1463
F-0.00015020699999999999
aF-0.0013092799999999999
aF-0.0071650100000000003
aF-0.028572299999999998
aF-0.086015800000000003
aF-0.18399599999999999
aF-0.26584400000000002
aF-0.18874099999999999
aF0.12537799999999999
aF0.39724599999999999
aF0.39465800000000001
aF0.14191699999999999
aasg22
VAR
p1464
sbag0
(g10
g2
Ntp1465
Rp1466
(dp1467
g14
g57
sg16
(lp1468
F3.3220000000000001
asg18
(lp1469
(lp1470
F1.0
aasg22
VAR
p1471
sbag0
(g10
g2
Ntp1472
Rp1473
(dp1474
g14
g57
sg16
(lp1475
F1.478
asg18
(lp1476
(lp1477
F1.0
aasg22
VAR
p1478
sbag0
(g10
g2
Ntp1479
Rp1480
(dp1481
g14
g57
sg16
(lp1482
F0.6552
asg18
(lp1483
(lp1484
F1.0
aasg22
VAR
p1485
sbag0
(g10
g2
Ntp1486
Rp1487
(dp1488
g14
g57
sg16
(lp1489
F0.27510000000000001
asg18
(lp1490
(lp1491
F1.0
aasg22
VAR
p1492
sbag0
(g10
g2
Ntp1493
Rp1494
(dp1495
g14
g57
sg16
(lp1496
F0.10970000000000001
asg18
(lp1497
(lp1498
F1.0
aasg22
VAR
p1499
sbag0
(g10
g2
Ntp1500
Rp1501
(dp1502
g14
g57
sg16
(lp1503
F0.0402
asg18
(lp1504
(lp1505
F1.0
aasg22
VAR
p1506
sbag0
(g10
g2
Ntp1507
Rp1508
(dp1509
g14
g100
sg16
(lp1510
F19.024999999999999
asg18
(lp1511
(lp1512
F1.0
aasg22
VAR
p1513
sbag0
(g10
g2
Ntp1514
Rp1515
(dp1516
g14
g100
sg16
(lp1517
F5.3638000000000003
asg18
(lp1518
(lp1519
F1.0
aasg22
VAR
p1520
sbag0
(g10
g2
Ntp1521
Rp1522
(dp1523
g14
g100
sg16
(lp1524
F1.9686999999999999
asg18
(lp1525
(lp1526
F1.0
aasg22
VAR
p1527
sbag0
(g10
g2
Ntp1528
Rp1529
(dp1530
g14
g100
sg16
(lp1531
F0.72260000000000002
asg18
(lp1532
(lp1533
F1.0
aasg22
VAR
p1534
sbag0
(g10
g2
Ntp1535
Rp1536
(dp1537
g14
g100
sg16
(lp1538
F0.26519999999999999
asg18
(lp1539
(lp1540
F1.0
aasg22
VAR
p1541
sbag0
(g10
g2
Ntp1542
Rp1543
(dp1544
g14
g125
sg16
(lp1545
F6.6618000000000004
asg18
(lp1546
(lp1547
F1.0
aasg22
VAR
p1548
sbag0
(g10
g2
Ntp1549
Rp1550
(dp1551
g14
g125
sg16
(lp1552
F1.0543
asg18
(lp1553
(lp1554
F1.0
aasg22
VAR
p1555
sbag0
(g10
g2
Ntp1556
Rp1557
(dp1558
g14
g125
sg16
(lp1559
F0.38929999999999998
asg18
(lp1560
(lp1561
F1.0
aasg22
VAR
p1562
sbag0
(g10
g2
Ntp1563
Rp1564
(dp1565
g14
g144
sg16
(lp1566
F1.3268
asg18
(lp1567
(lp1568
F1.0
aasg22
VAR
p1569
sbag0
(g10
g2
Ntp1570
Rp1571
(dp1572
g14
g144
sg16
(lp1573
F0.47710000000000002
asg18
(lp1574
(lp1575
F1.0
aasg22
VAR
p1576
sbasVN
p1577
(lp1578
g0
(g10
g2
Ntp1579
Rp1580
(dp1581
g14
g15
sg16
(lp1582
F129200.0
aF19350.0
aF4404.0
aF1248.0
aF408.0
aF148.19999999999999
aF58.5
aF24.59
aF10.81
aF4.8819999999999997
aF2.1949999999999998
aF0.87150000000000005
aF0.35039999999999999
aF0.13969999999999999
asg18
(lp1583
(lp1584
F2.5000000000000001e-05
aF0.00019699999999999999
aF0.0010319999999999999
aF0.0043249999999999999
aF0.01538
aF0.046866999999999999
aF0.120116
aF0.245695
aF0.36137900000000001
aF0.28728300000000001
aF0.070170999999999997
aF0.0018309999999999999
aF0.00083500000000000002
aF-6.0000000000000002e-06
aa(lp1585
F-6.0000000000000002e-06
aF-4.3000000000000002e-05
aF-0.00022699999999999999
aF-0.00095799999999999998
aF-0.0034160000000000002
aF-0.010666999999999999
aF-0.028278999999999999
aF-0.064019999999999994
aF-0.11393200000000001
aF-0.14699499999999999
aF-0.0072509999999999996
aF0.36618299999999998
aF0.54790799999999995
aF0.216645
aasg22
V N
p1586
sbag0
(g10
g2
Ntp1587
Rp1588
(dp1589
g14
g15
sg16
(lp1590
F2.1949999999999998
asg18
(lp1591
(lp1592
F1.0
aasg22
g1586
sbag0
(g10
g2
Ntp1593
Rp1594
(dp1595
g14
g15
sg16
(lp1596
F0.87150000000000005
asg18
(lp1597
(lp1598
F1.0
aasg22
g1586
sbag0
(g10
g2
Ntp1599
Rp1600
(dp1601
g14
g15
sg16
(lp1602
F0.35039999999999999
asg18
(lp1603
(lp1604
F1.0
aasg22
g1586
sbag0
(g10
g2
Ntp1605
Rp1606
(dp1607
g14
g15
sg16
(lp1608
F0.13969999999999999
asg18
(lp1609
(lp1610
F1.0
aasg22
g1586
sbag0
(g10
g2
Ntp1611
Rp1612
(dp1613
g14
g15
sg16
(lp1614
F0.051799999999999999
asg18
(lp1615
(lp1616
F1.0
aasg22
g1586
sbag0
(g10
g2
Ntp1617
Rp1618
(dp1619
g14
g57
sg16
(lp1620
F147.0
aF34.759999999999998
aF11.0
aF3.9950000000000001
aF1.587
aF0.65329999999999999
aF0.26860000000000001
aF0.1067
asg18
(lp1621
(lp1622
F0.000892
aF0.0070819999999999998
aF0.032815999999999998
aF0.108209
aF0.24809400000000001
aF0.37451299999999998
aF0.348414
aF0.12834000000000001
aasg22
g1586
sbag0
(g10
g2
Ntp1623
Rp1624
(dp1625
g14
g57
sg16
(lp1626
F3.9950000000000001
asg18
(lp1627
(lp1628
F1.0
aasg22
g1586
sbag0
(g10
g2
Ntp1629
Rp1630
(dp1631
g14
g57
sg16
(lp1632
F1.587
asg18
(lp1633
(lp1634
F1.0
aasg22
g1586
sbag0
(g10
g2
Ntp1635
Rp1636
(dp1637
g14
g57
sg16
(lp1638
F0.65329999999999999
asg18
(lp1639
(lp1640
F1.0
aasg22
g1586
sbag0
(g10
g2
Ntp1641
Rp1642
(dp1643
g14
g57
sg16
(lp1644
F0.26860000000000001
asg18
(lp1645
(lp1646
F1.0
aasg22
g1586
sbag0
(g10
g2
Ntp1647
Rp1648
(dp1649
g14
g57
sg16
(lp1650
F0.1067
asg18
(lp1651
(lp1652
F1.0
aasg22
g1586
sbag0
(g10
g2
Ntp1653
Rp1654
(dp1655
g14
g57
sg16
(lp1656
F0.036900000000000002
asg18
(lp1657
(lp1658
F1.0
aasg22
g1586
sbag0
(g10
g2
Ntp1659
Rp1660
(dp1661
g14
g100
sg16
(lp1662
F5.9817
asg18
(lp1663
(lp1664
F1.0
aasg22
g1586
sbag0
(g10
g2
Ntp1665
Rp1666
(dp1667
g14
g100
sg16
(lp1668
F2.2056
asg18
(lp1669
(lp1670
F1.0
aasg22
g1586
sbag0
(g10
g2
Ntp1671
Rp1672
(dp1673
g14
g100
sg16
(lp1674
F0.81330000000000002
asg18
(lp1675
(lp1676
F1.0
aasg22
g1586
sbag0
(g10
g2
Ntp1677
Rp1678
(dp1679
g14
g100
sg16
(lp1680
F0.2999
asg18
(lp1681
(lp1682
F1.0
aasg22
g1586
sbag0
(g10
g2
Ntp1683
Rp1684
(dp1685
g14
g125
sg16
(lp1686
F2.4727999999999999
asg18
(lp1687
(lp1688
F1.0
aasg22
g1586
sbag0
(g10
g2
Ntp1689
Rp1690
(dp1691
g14
g125
sg16
(lp1692
F0.9819
asg18
(lp1693
(lp1694
F1.0
aasg22
g1586
sbag0
(g10
g2
Ntp1695
Rp1696
(dp1697
g14
g125
sg16
(lp1698
F0.38990000000000002
asg18
(lp1699
(lp1700
F1.0
aasg22
g1586
sbag0
(g10
g2
Ntp1701
Rp1702
(dp1703
g14
g144
sg16
(lp1704
F1.3975
asg18
(lp1705
(lp1706
F1.0
aasg22
g1586
sbag0
(g10
g2
Ntp1707
Rp1708
(dp1709
g14
g144
sg16
(lp1710
F0.50270000000000004
asg18
(lp1711
(lp1712
F1.0
aasg22
g1586
sbasVHE
p1713
(lp1714
g0
(g10
g2
Ntp1715
Rp1716
(dp1717
g14
g15
sg16
(lp1718
F1145.0
aF171.69999999999999
aF39.07
aF11.039999999999999
aF3.5659999999999998
aF1.24
aF0.44729999999999998
aF0.16400000000000001
asg18
(lp1719
(lp1720
F0.000359
aF0.002771
aF0.014251
aF0.055565999999999997
aF0.16209100000000001
aF0.33219700000000002
aF0.41961500000000002
aF0.18612799999999999
aasg22
VHE
p1721
sbag0
(g10
g2
Ntp1722
Rp1723
(dp1724
g14
g15
sg16
(lp1725
F3.5659999999999998
asg18
(lp1726
(lp1727
F1.0
aasg22
VHE
p1728
sbag0
(g10
g2
Ntp1729
Rp1730
(dp1731
g14
g15
sg16
(lp1732
F1.24
asg18
(lp1733
(lp1734
F1.0
aasg22
VHE
p1735
sbag0
(g10
g2
Ntp1736
Rp1737
(dp1738
g14
g15
sg16
(lp1739
F0.44729999999999998
asg18
(lp1740
(lp1741
F1.0
aasg22
VHE
p1742
sbag0
(g10
g2
Ntp1743
Rp1744
(dp1745
g14
g15
sg16
(lp1746
F0.16400000000000001
asg18
(lp1747
(lp1748
F1.0
aasg22
VHE
p1749
sbag0
(g10
g2
Ntp1750
Rp1751
(dp1752
g14
g15
sg16
(lp1753
F0.046640000000000001
asg18
(lp1754
(lp1755
F1.0
aasg22
VHE
p1756
sbag0
(g10
g2
Ntp1757
Rp1758
(dp1759
g14
g57
sg16
(lp1760
F7.6677999999999997
asg18
(lp1761
(lp1762
F1.0
aasg22
VHE
p1763
sbag0
(g10
g2
Ntp1764
Rp1765
(dp1766
g14
g57
sg16
(lp1767
F2.7650999999999999
asg18
(lp1768
(lp1769
F1.0
aasg22
VHE
p1770
sbag0
(g10
g2
Ntp1771
Rp1772
(dp1773
g14
g57
sg16
(lp1774
F0.99709999999999999
asg18
(lp1775
(lp1776
F1.0
aasg22
VHE
p1777
sbag0
(g10
g2
Ntp1778
Rp1779
(dp1780
g14
g57
sg16
(lp1781
F0.35959999999999998
asg18
(lp1782
(lp1783
F1.0
aasg22
VHE
p1784
sbag0
(g10
g2
Ntp1785
Rp1786
(dp1787
g14
g100
sg16
(lp1788
F0.92390000000000005
asg18
(lp1789
(lp1790
F1.0
aasg22
VHE
p1791
sbag0
(g10
g2
Ntp1792
Rp1793
(dp1794
g14
g100
sg16
(lp1795
F0.442
asg18
(lp1796
(lp1797
F1.0
aasg22
VHE
p1798
sbag0
(g10
g2
Ntp1799
Rp1800
(dp1801
g14
g125
sg16
(lp1802
F0.74450000000000005
asg18
(lp1803
(lp1804
F1.0
aasg22
VHE
p1805
sbasVSI
p1806
(lp1807
g0
(g10
g2
Ntp1808
Rp1809
(dp1810
g14
g15
sg16
(lp1811
F3948000.0
aF591100.0
aF134500.0
aF38120.0
aF12460.0
aF4504.0
aF1758.0
aF729.10000000000002
aF318.0
aF144.59999999999999
aF67.969999999999999
aF32.82
aF16.030000000000001
aF7.3959999999999999
aF3.661
aF1.823
aF0.91469999999999996
aF0.33929999999999999
aF0.14999999999999999
aF0.064380000000000007
asg18
(lp1812
(lp1813
F2.0371200000000001e-06
aF1.5839399999999999e-05
aF8.3358999999999999e-05
aF0.00035136100000000001
aF0.0012765999999999999
aF0.00415191
aF0.012303
aF0.033310199999999998
aF0.080984500000000001
aF0.17029
aF0.286879
aF0.33034000000000002
aF0.196602
aF0.035453499999999999
aF-0.00053520399999999995
aF0.00161465
aF-0.00037273900000000002
aF0.00014622600000000001
aF-7.8944599999999996e-05
aF1.9280099999999999e-05
aa(lp1814
F-5.4208499999999997e-07
aF-4.2167699999999996e-06
aF-2.2181300000000001e-05
aF-9.3602800000000004e-05
aF-0.00034011600000000001
aF-0.0011106099999999999
aF-0.0033087799999999999
aF-0.0091160200000000007
aF-0.022879
aF-0.051711899999999998
aF-0.099909100000000001
aF-0.15274699999999999
aF-0.12750800000000001
aF0.094696299999999997
aF0.41403600000000002
aF0.46793400000000002
aF0.173927
aF0.0084389500000000006
aF-0.00099806700000000005
aF0.00036209600000000001
aa(lp1815
F1.3890699999999999e-07
aF1.07953e-06
aF5.6862800000000004e-06
aF2.3953700000000001e-05
aF8.7240899999999993e-05
aF0.00028416299999999998
aF0.00084984000000000004
aF0.00233527
aF0.0059046599999999999
aF0.0133461
aF0.0262889
aF0.040742599999999997
aF0.036147600000000002
aF-0.030392300000000001
aF-0.135961
aF-0.25014399999999998
aF-0.15805
aF0.36965500000000001
aF0.61771799999999999
aF0.22251399999999999
aasg22
VSI
p1816
sbag0
(g10
g2
Ntp1817
Rp1818
(dp1819
g14
g15
sg16
(lp1820
F0.91469999999999996
asg18
(lp1821
(lp1822
F1.0
aasg22
VSI
p1823
sbag0
(g10
g2
Ntp1824
Rp1825
(dp1826
g14
g15
sg16
(lp1827
F0.33929999999999999
asg18
(lp1828
(lp1829
F1.0
aasg22
VSI
p1830
sbag0
(g10
g2
Ntp1831
Rp1832
(dp1833
g14
g15
sg16
(lp1834
F0.14999999999999999
asg18
(lp1835
(lp1836
F1.0
aasg22
VSI
p1837
sbag0
(g10
g2
Ntp1838
Rp1839
(dp1840
g14
g15
sg16
(lp1841
F0.064380000000000007
asg18
(lp1842
(lp1843
F1.0
aasg22
VSI
p1844
sbag0
(g10
g2
Ntp1845
Rp1846
(dp1847
g14
g15
sg16
(lp1848
F0.025999999999999999
asg18
(lp1849
(lp1850
F1.0
aasg22
VSI
p1851
sbag0
(g10
g2
Ntp1852
Rp1853
(dp1854
g14
g57
sg16
(lp1855
F1780.0
aF421.80000000000001
aF136.69999999999999
aF51.810000000000002
aF21.600000000000001
aF9.5630000000000006
aF4.3499999999999996
aF2.0059999999999998
aF0.92049999999999998
aF0.34999999999999998
aF0.1381
aF0.053379999999999997
asg18
(lp1856
(lp1857
F0.000201206
aF0.0017493700000000001
aF0.0094814099999999991
aF0.037231300000000002
aF0.110763
aF0.23793300000000001
aF0.35369099999999998
aF0.32883899999999999
aF0.13237299999999999
aF0.010330000000000001
aF-0.00015030499999999999
aF0.00026580899999999999
aa(lp1858
F-4.2715200000000001e-05
aF-0.00037703900000000002
aF-0.0020224000000000002
aF-0.0081283299999999996
aF-0.024227200000000001
aF-0.0543825
aF-0.079905100000000007
aF-0.088895799999999997
aF0.018399700000000001
aF0.335096
aF0.53228799999999998
aF0.25437399999999999
aasg22
VSI
p1859
sbag0
(g10
g2
Ntp1860
Rp1861
(dp1862
g14
g57
sg16
(lp1863
F2.0059999999999998
asg18
(lp1864
(lp1865
F1.0
aasg22
VSI
p1866
sbag0
(g10
g2
Ntp1867
Rp1868
(dp1869
g14
g57
sg16
(lp1870
F0.92049999999999998
asg18
(lp1871
(lp1872
F1.0
aasg22
VSI
p1873
sbag0
(g10
g2
Ntp1874
Rp1875
(dp1876
g14
g57
sg16
(lp1877
F0.34999999999999998
asg18
(lp1878
(lp1879
F1.0
aasg22
VSI
p1880
sbag0
(g10
g2
Ntp1881
Rp1882
(dp1883
g14
g57
sg16
(lp1884
F0.1381
asg18
(lp1885
(lp1886
F1.0
aasg22
VSI
p1887
sbag0
(g10
g2
Ntp1888
Rp1889
(dp1890
g14
g57
sg16
(lp1891
F0.053379999999999997
asg18
(lp1892
(lp1893
F1.0
aasg22
VSI
p1894
sbag0
(g10
g2
Ntp1895
Rp1896
(dp1897
g14
g57
sg16
(lp1898
F0.019199999999999998
asg18
(lp1899
(lp1900
F1.0
aasg22
VSI
p1901
sbag0
(g10
g2
Ntp1902
Rp1903
(dp1904
g14
g100
sg16
(lp1905
F6.8579999999999997
asg18
(lp1906
(lp1907
F1.0
aasg22
VSI
p1908
sbag0
(g10
g2
Ntp1909
Rp1910
(dp1911
g14
g100
sg16
(lp1912
F1.9557
asg18
(lp1913
(lp1914
F1.0
aasg22
VSI
p1915
sbag0
(g10
g2
Ntp1916
Rp1917
(dp1918
g14
g100
sg16
(lp1919
F0.77859999999999996
asg18
(lp1920
(lp1921
F1.0
aasg22
VSI
p1922
sbag0
(g10
g2
Ntp1923
Rp1924
(dp1925
g14
g100
sg16
(lp1926
F0.31
asg18
(lp1927
(lp1928
F1.0
aasg22
VSI
p1929
sbag0
(g10
g2
Ntp1930
Rp1931
(dp1932
g14
g100
sg16
(lp1933
F0.1234
asg18
(lp1934
(lp1935
F1.0
aasg22
VSI
p1936
sbag0
(g10
g2
Ntp1937
Rp1938
(dp1939
g14
g125
sg16
(lp1940
F1.1785000000000001
asg18
(lp1941
(lp1942
F1.0
aasg22
VSI
p1943
sbag0
(g10
g2
Ntp1944
Rp1945
(dp1946
g14
g125
sg16
(lp1947
F0.3987
asg18
(lp1948
(lp1949
F1.0
aasg22
VSI
p1950
sbag0
(g10
g2
Ntp1951
Rp1952
(dp1953
g14
g125
sg16
(lp1954
F0.16320000000000001
asg18
(lp1955
(lp1956
F1.0
aasg22
VSI
p1957
sbag0
(g10
g2
Ntp1958
Rp1959
(dp1960
g14
g144
sg16
(lp1961
F0.54659999999999997
asg18
(lp1962
(lp1963
F1.0
aasg22
VSI
p1964
sbag0
(g10
g2
Ntp1965
Rp1966
(dp1967
g14
g144
sg16
(lp1968
F0.21340000000000001
asg18
(lp1969
(lp1970
F1.0
aasg22
VSI
p1971
sbassb.