ccopy_reg
_reconstructor
p0
(cbasisset
BasisSet
p1
c__builtin__
object
p2
Ntp3
Rp4
(dp5
S'basisDictionary'
p6
(dp7
S'H'
p8
(lp9
g0
(cbasisset
Shell
p10
g2
Ntp11
Rp12
(dp13
S'angularMomentum'
p14
S'S'
p15
sS'exponents'
p16
(lp17
F13.01
asS'coefficients'
p18
(lp19
(lp20
F1.0
aasS'atom'
p21
S' H'
p22
sbag0
(g10
g2
Ntp23
Rp24
(dp25
g14
S'S'
p26
sg16
(lp27
F1.962
asg18
(lp28
(lp29
F1.0
aasg21
S' H'
p30
sbag0
(g10
g2
Ntp31
Rp32
(dp33
g14
S'S'
p34
sg16
(lp35
F0.4446
asg18
(lp36
(lp37
F1.0
aasg21
S' H'
p38
sbag0
(g10
g2
Ntp39
Rp40
(dp41
g14
S'S'
p42
sg16
(lp43
F0.122
asg18
(lp44
(lp45
F1.0
aasg21
S' H'
p46
sbag0
(g10
g2
Ntp47
Rp48
(dp49
g14
S'P'
p50
sg16
(lp51
F0.72699999999999998
asg18
(lp52
(lp53
F1.0
aasg21
S' H'
p54
sbag0
(g10
g2
Ntp55
Rp56
(dp57
S'angularMomentum'
p58
S'S'
p59
sS'exponents'
p60
(lp61
F143.10999999999999
asS'coefficients'
p62
(lp63
(lp64
F1.0
aasS'atom'
p65
S'H'
p66
sbag0
(g10
g2
Ntp67
Rp68
(dp69
g58
S'S'
p70
sg60
(lp71
F312.24000000000001
asg62
(lp72
(lp73
F1.0
aasg65
S'H'
p74
sbag0
(g10
g2
Ntp75
Rp76
(dp77
g58
S'P'
p78
sg60
(lp79
F7.2699999999999996
asg62
(lp80
(lp81
F1.0
aasg65
S'H'
p82
sbasS'C'
p83
(lp84
g0
(g10
g2
Ntp85
Rp86
(dp87
S'angularMomentum'
p88
S'S'
p89
sS'exponents'
p90
(lp91
F6665.0
asS'coefficients'
p92
(lp93
(lp94
F1.0
aasS'atom'
p95
S' C'
p96
sbag0
(g10
g2
Ntp97
Rp98
(dp99
g88
S'S'
p100
sg90
(lp101
F1000.0
asg92
(lp102
(lp103
F1.0
aasg95
S' C'
p104
sbag0
(g10
g2
Ntp105
Rp106
(dp107
g88
S'S'
p108
sg90
(lp109
F228.0
asg92
(lp110
(lp111
F1.0
aasg95
S' C'
p112
sbag0
(g10
g2
Ntp113
Rp114
(dp115
g88
S'S'
p116
sg90
(lp117
F64.709999999999994
asg92
(lp118
(lp119
F1.0
aasg95
S' C'
p120
sbag0
(g10
g2
Ntp121
Rp122
(dp123
g88
S'S'
p124
sg90
(lp125
F21.059999999999999
asg92
(lp126
(lp127
F1.0
aasg95
S' C'
p128
sbag0
(g10
g2
Ntp129
Rp130
(dp131
g88
S'S'
p132
sg90
(lp133
F7.4950000000000001
asg92
(lp134
(lp135
F1.0
aasg95
S' C'
p136
sbag0
(g10
g2
Ntp137
Rp138
(dp139
g88
S'S'
p140
sg90
(lp141
F2.7970000000000002
asg92
(lp142
(lp143
F1.0
aasg95
S' C'
p144
sbag0
(g10
g2
Ntp145
Rp146
(dp147
g88
S'S'
p148
sg90
(lp149
F0.52149999999999996
asg92
(lp150
(lp151
F1.0
aasg95
S' C'
p152
sbag0
(g10
g2
Ntp153
Rp154
(dp155
g88
S'S'
p156
sg90
(lp157
F0.15959999999999999
asg92
(lp158
(lp159
F1.0
aasg95
S' C'
p160
sbag0
(g10
g2
Ntp161
Rp162
(dp163
g88
S'P'
p164
sg90
(lp165
F9.4390000000000001
asg92
(lp166
(lp167
F1.0
aasg95
S' C'
p168
sbag0
(g10
g2
Ntp169
Rp170
(dp171
g88
S'P'
p172
sg90
(lp173
F2.0019999999999998
asg92
(lp174
(lp175
F1.0
aasg95
S' C'
p176
sbag0
(g10
g2
Ntp177
Rp178
(dp179
g88
S'P'
p180
sg90
(lp181
F0.54559999999999997
asg92
(lp182
(lp183
F1.0
aasg95
S' C'
p184
sbag0
(g10
g2
Ntp185
Rp186
(dp187
g88
S'P'
p188
sg90
(lp189
F0.1517
asg92
(lp190
(lp191
F1.0
aasg95
S' C'
p192
sbag0
(g10
g2
Ntp193
Rp194
(dp195
g88
S'D'
p196
sg90
(lp197
F0.55000000000000004
asg92
(lp198
(lp199
F1.0
aasg95
S' C'
p200
sbag0
(g10
g2
Ntp201
Rp202
(dp203
g58
S'S'
p204
sg60
(lp205
F73315.0
asg62
(lp206
(lp207
F1.0
aasg65
S'C'
p208
sbag0
(g10
g2
Ntp209
Rp210
(dp211
g58
S'S'
p212
sg60
(lp213
F173290.0
asg62
(lp214
(lp215
F1.0
aasg65
S'C'
p216
sbag0
(g10
g2
Ntp217
Rp218
(dp219
g58
S'P'
p220
sg60
(lp221
F56.634
asg62
(lp222
(lp223
F1.0
aasg65
S'C'
p224
sbag0
(g10
g2
Ntp225
Rp226
(dp227
g58
S'D'
p228
sg60
(lp229
F2.2000000000000002
asg62
(lp230
(lp231
F1.0
aasg65
S'C'
p232
sbasS'S'
p233
(lp234
g0
(g10
g2
Ntp235
Rp236
(dp237
S'angularMomentum'
p238
S'S'
p239
sS'exponents'
p240
(lp241
F110800.0
asS'coefficients'
p242
(lp243
(lp244
F1.0
aasS'atom'
p245
S' S'
p246
sbag0
(g10
g2
Ntp247
Rp248
(dp249
g238
S'S'
p250
sg240
(lp251
F16610.0
asg242
(lp252
(lp253
F1.0
aasg245
S' S'
p254
sbag0
(g10
g2
Ntp255
Rp256
(dp257
g238
S'S'
p258
sg240
(lp259
F3781.0
asg242
(lp260
(lp261
F1.0
aasg245
S' S'
p262
sbag0
(g10
g2
Ntp263
Rp264
(dp265
g238
S'S'
p266
sg240
(lp267
F1071.0
asg242
(lp268
(lp269
F1.0
aasg245
S' S'
p270
sbag0
(g10
g2
Ntp271
Rp272
(dp273
g238
S'S'
p274
sg240
(lp275
F349.80000000000001
asg242
(lp276
(lp277
F1.0
aasg245
S' S'
p278
sbag0
(g10
g2
Ntp279
Rp280
(dp281
g238
S'S'
p282
sg240
(lp283
F126.3
asg242
(lp284
(lp285
F1.0
aasg245
S' S'
p286
sbag0
(g10
g2
Ntp287
Rp288
(dp289
g238
S'S'
p290
sg240
(lp291
F49.259999999999998
asg242
(lp292
(lp293
F1.0
aasg245
S' S'
p294
sbag0
(g10
g2
Ntp295
Rp296
(dp297
g238
S'S'
p298
sg240
(lp299
F20.16
asg242
(lp300
(lp301
F1.0
aasg245
S' S'
p302
sbag0
(g10
g2
Ntp303
Rp304
(dp305
g238
S'S'
p306
sg240
(lp307
F5.7199999999999998
asg242
(lp308
(lp309
F1.0
aasg245
S' S'
p310
sbag0
(g10
g2
Ntp311
Rp312
(dp313
g238
S'S'
p314
sg240
(lp315
F2.1819999999999999
asg242
(lp316
(lp317
F1.0
aasg245
S' S'
p318
sbag0
(g10
g2
Ntp319
Rp320
(dp321
g238
S'S'
p322
sg240
(lp323
F0.43269999999999997
asg242
(lp324
(lp325
F1.0
aasg245
S' S'
p326
sbag0
(g10
g2
Ntp327
Rp328
(dp329
g238
S'S'
p330
sg240
(lp331
F0.157
asg242
(lp332
(lp333
F1.0
aasg245
S' S'
p334
sbag0
(g10
g2
Ntp335
Rp336
(dp337
g238
S'P'
p338
sg240
(lp339
F399.69999999999999
asg242
(lp340
(lp341
F1.0
aasg245
S' S'
p342
sbag0
(g10
g2
Ntp343
Rp344
(dp345
g238
S'P'
p346
sg240
(lp347
F94.189999999999998
asg242
(lp348
(lp349
F1.0
aasg245
S' S'
p350
sbag0
(g10
g2
Ntp351
Rp352
(dp353
g238
S'P'
p354
sg240
(lp355
F29.75
asg242
(lp356
(lp357
F1.0
aasg245
S' S'
p358
sbag0
(g10
g2
Ntp359
Rp360
(dp361
g238
S'P'
p362
sg240
(lp363
F10.77
asg242
(lp364
(lp365
F1.0
aasg245
S' S'
p366
sbag0
(g10
g2
Ntp367
Rp368
(dp369
g238
S'P'
p370
sg240
(lp371
F4.1189999999999998
asg242
(lp372
(lp373
F1.0
aasg245
S' S'
p374
sbag0
(g10
g2
Ntp375
Rp376
(dp377
g238
S'P'
p378
sg240
(lp379
F1.625
asg242
(lp380
(lp381
F1.0
aasg245
S' S'
p382
sbag0
(g10
g2
Ntp383
Rp384
(dp385
g238
S'P'
p386
sg240
(lp387
F0.47260000000000002
asg242
(lp388
(lp389
F1.0
aasg245
S' S'
p390
sbag0
(g10
g2
Ntp391
Rp392
(dp393
g238
S'P'
p394
sg240
(lp395
F0.14069999999999999
asg242
(lp396
(lp397
F1.0
aasg245
S' S'
p398
sbag0
(g10
g2
Ntp399
Rp400
(dp401
g238
S'D'
p402
sg240
(lp403
F0.47899999999999998
asg242
(lp404
(lp405
F1.0
aasg245
S' S'
p406
sbag0
(g10
g2
Ntp407
Rp408
(dp409
g58
S'S'
p410
sg60
(lp411
F1218800.0
asg62
(lp412
(lp413
F1.0
aasg65
S'S'
p414
sbag0
(g10
g2
Ntp415
Rp416
(dp417
g58
S'S'
p418
sg60
(lp419
F2880800.0
asg62
(lp420
(lp421
F1.0
aasg65
S'S'
p422
sbag0
(g10
g2
Ntp423
Rp424
(dp425
g58
S'P'
p426
sg60
(lp427
F2398.1999999999998
asg62
(lp428
(lp429
F1.0
aasg65
S'S'
p430
sbag0
(g10
g2
Ntp431
Rp432
(dp433
g58
S'D'
p434
sg60
(lp435
F1.9159999999999999
asg62
(lp436
(lp437
F1.0
aasg65
S'S'
p438
sbasS'O'
p439
(lp440
g0
(g10
g2
Ntp441
Rp442
(dp443
S'angularMomentum'
p444
S'S'
p445
sS'exponents'
p446
(lp447
F11720.0
asS'coefficients'
p448
(lp449
(lp450
F1.0
aasS'atom'
p451
S' O'
p452
sbag0
(g10
g2
Ntp453
Rp454
(dp455
g444
S'S'
p456
sg446
(lp457
F1759.0
asg448
(lp458
(lp459
F1.0
aasg451
S' O'
p460
sbag0
(g10
g2
Ntp461
Rp462
(dp463
g444
S'S'
p464
sg446
(lp465
F400.80000000000001
asg448
(lp466
(lp467
F1.0
aasg451
S' O'
p468
sbag0
(g10
g2
Ntp469
Rp470
(dp471
g444
S'S'
p472
sg446
(lp473
F113.7
asg448
(lp474
(lp475
F1.0
aasg451
S' O'
p476
sbag0
(g10
g2
Ntp477
Rp478
(dp479
g444
S'S'
p480
sg446
(lp481
F37.030000000000001
asg448
(lp482
(lp483
F1.0
aasg451
S' O'
p484
sbag0
(g10
g2
Ntp485
Rp486
(dp487
g444
S'S'
p488
sg446
(lp489
F13.27
asg448
(lp490
(lp491
F1.0
aasg451
S' O'
p492
sbag0
(g10
g2
Ntp493
Rp494
(dp495
g444
S'S'
p496
sg446
(lp497
F5.0250000000000004
asg448
(lp498
(lp499
F1.0
aasg451
S' O'
p500
sbag0
(g10
g2
Ntp501
Rp502
(dp503
g444
S'S'
p504
sg446
(lp505
F1.0129999999999999
asg448
(lp506
(lp507
F1.0
aasg451
S' O'
p508
sbag0
(g10
g2
Ntp509
Rp510
(dp511
g444
S'S'
p512
sg446
(lp513
F0.30230000000000001
asg448
(lp514
(lp515
F1.0
aasg451
S' O'
p516
sbag0
(g10
g2
Ntp517
Rp518
(dp519
g444
S'P'
p520
sg446
(lp521
F17.699999999999999
asg448
(lp522
(lp523
F1.0
aasg451
S' O'
p524
sbag0
(g10
g2
Ntp525
Rp526
(dp527
g444
S'P'
p528
sg446
(lp529
F3.8540000000000001
asg448
(lp530
(lp531
F1.0
aasg451
S' O'
p532
sbag0
(g10
g2
Ntp533
Rp534
(dp535
g444
S'P'
p536
sg446
(lp537
F1.046
asg448
(lp538
(lp539
F1.0
aasg451
S' O'
p540
sbag0
(g10
g2
Ntp541
Rp542
(dp543
g444
S'P'
p544
sg446
(lp545
F0.27529999999999999
asg448
(lp546
(lp547
F1.0
aasg451
S' O'
p548
sbag0
(g10
g2
Ntp549
Rp550
(dp551
g444
S'D'
p552
sg446
(lp553
F1.1850000000000001
asg448
(lp554
(lp555
F1.0
aasg451
S' O'
p556
sbag0
(g10
g2
Ntp557
Rp558
(dp559
g58
S'S'
p560
sg60
(lp561
F128920.0
asg62
(lp562
(lp563
F1.0
aasg65
S'O'
p564
sbag0
(g10
g2
Ntp565
Rp566
(dp567
g58
S'S'
p568
sg60
(lp569
F304720.0
asg62
(lp570
(lp571
F1.0
aasg65
S'O'
p572
sbag0
(g10
g2
Ntp573
Rp574
(dp575
g58
S'P'
p576
sg60
(lp577
F106.19999999999999
asg62
(lp578
(lp579
F1.0
aasg65
S'O'
p580
sbag0
(g10
g2
Ntp581
Rp582
(dp583
g58
S'D'
p584
sg60
(lp585
F4.7400000000000002
asg62
(lp586
(lp587
F1.0
aasg65
S'O'
p588
sbasS'N'
p589
(lp590
g0
(g10
g2
Ntp591
Rp592
(dp593
g58
S'S'
p594
sg60
(lp595
F9046.0
asg62
(lp596
(lp597
F1.0
aasg65
S' N'
p598
sbag0
(g10
g2
Ntp599
Rp600
(dp601
g58
S'S'
p602
sg60
(lp603
F1357.0
asg62
(lp604
(lp605
F1.0
aasg65
S' N'
p606
sbag0
(g10
g2
Ntp607
Rp608
(dp609
g58
S'S'
p610
sg60
(lp611
F309.30000000000001
asg62
(lp612
(lp613
F1.0
aasg65
S' N'
p614
sbag0
(g10
g2
Ntp615
Rp616
(dp617
g58
S'S'
p618
sg60
(lp619
F87.730000000000004
asg62
(lp620
(lp621
F1.0
aasg65
S' N'
p622
sbag0
(g10
g2
Ntp623
Rp624
(dp625
g58
S'S'
p626
sg60
(lp627
F28.559999999999999
asg62
(lp628
(lp629
F1.0
aasg65
S' N'
p630
sbag0
(g10
g2
Ntp631
Rp632
(dp633
g58
S'S'
p634
sg60
(lp635
F10.210000000000001
asg62
(lp636
(lp637
F1.0
aasg65
S' N'
p638
sbag0
(g10
g2
Ntp639
Rp640
(dp641
g58
S'S'
p642
sg60
(lp643
F3.8380000000000001
asg62
(lp644
(lp645
F1.0
aasg65
S' N'
p646
sbag0
(g10
g2
Ntp647
Rp648
(dp649
g58
S'S'
p650
sg60
(lp651
F0.74660000000000004
asg62
(lp652
(lp653
F1.0
aasg65
S' N'
p654
sbag0
(g10
g2
Ntp655
Rp656
(dp657
g58
S'S'
p658
sg60
(lp659
F0.2248
asg62
(lp660
(lp661
F1.0
aasg65
S' N'
p662
sbag0
(g10
g2
Ntp663
Rp664
(dp665
g58
S'P'
p666
sg60
(lp667
F13.550000000000001
asg62
(lp668
(lp669
F1.0
aasg65
S' N'
p670
sbag0
(g10
g2
Ntp671
Rp672
(dp673
g58
S'P'
p674
sg60
(lp675
F2.9169999999999998
asg62
(lp676
(lp677
F1.0
aasg65
S' N'
p678
sbag0
(g10
g2
Ntp679
Rp680
(dp681
g58
S'P'
p682
sg60
(lp683
F0.79730000000000001
asg62
(lp684
(lp685
F1.0
aasg65
S' N'
p686
sbag0
(g10
g2
Ntp687
Rp688
(dp689
g58
S'P'
p690
sg60
(lp691
F0.2185
asg62
(lp692
(lp693
F1.0
aasg65
S' N'
p694
sbag0
(g10
g2
Ntp695
Rp696
(dp697
g58
S'D'
p698
sg60
(lp699
F0.81699999999999995
asg62
(lp700
(lp701
F1.0
aasg65
S' N'
p702
sbag0
(g10
g2
Ntp703
Rp704
(dp705
g58
S'S'
p706
sg60
(lp707
F99506.0
asg62
(lp708
(lp709
F1.0
aasg65
S'N'
p710
sbag0
(g10
g2
Ntp711
Rp712
(dp713
g58
S'S'
p714
sg60
(lp715
F235196.0
asg62
(lp716
(lp717
F1.0
aasg65
S'N'
p718
sbag0
(g10
g2
Ntp719
Rp720
(dp721
g58
S'P'
p722
sg60
(lp723
F81.300000000000011
asg62
(lp724
(lp725
F1.0
aasg65
S'N'
p726
sbag0
(g10
g2
Ntp727
Rp728
(dp729
g58
S'D'
p730
sg60
(lp731
F3.2679999999999998
asg62
(lp732
(lp733
F1.0
aasg65
S'N'
p734
sbassb.