ccopy_reg
_reconstructor
p0
(cbasisset
BasisSet
p1
c__builtin__
object
p2
Ntp3
Rp4
(dp5
S'basisDictionary'
p6
(dp7
VC
p8
(lp9
g0
(cbasisset
Shell
p10
g2
Ntp11
Rp12
(dp13
S'angularMomentum'
p14
VS
p15
sS'exponents'
p16
(lp17
F1.776221
asS'coefficients'
p18
(lp19
(lp20
F1.0
aasS'atom'
p21
V C
p22
sbag0
(g10
g2
Ntp23
Rp24
(dp25
g14
g15
sg16
(lp26
F0.43482979999999999
asg18
(lp27
(lp28
F1.0
aasg21
g22
sbag0
(g10
g2
Ntp29
Rp30
(dp31
g14
g15
sg16
(lp32
F0.1700682
asg18
(lp33
(lp34
F1.0
aasg21
g22
sbag0
(g10
g2
Ntp35
Rp36
(dp37
g14
g15
sg16
(lp38
F0.062863660000000002
asg18
(lp39
(lp40
F1.0
aasg21
g22
sbag0
(g10
g2
Ntp41
Rp42
(dp43
g14
VP
p44
sg16
(lp45
F3.5443660000000001
asg18
(lp46
(lp47
F1.0
aasg21
g22
sbag0
(g10
g2
Ntp48
Rp49
(dp50
g14
g44
sg16
(lp51
F1.2364759999999999
asg18
(lp52
(lp53
F1.0
aasg21
g22
sbag0
(g10
g2
Ntp54
Rp55
(dp56
g14
g44
sg16
(lp57
F0.43306909999999998
asg18
(lp58
(lp59
F1.0
aasg21
g22
sbag0
(g10
g2
Ntp60
Rp61
(dp62
g14
g44
sg16
(lp63
F0.15101880000000001
asg18
(lp64
(lp65
F1.0
aasg21
g22
sbag0
(g10
g2
Ntp66
Rp67
(dp68
g14
VD
p69
sg16
(lp70
F5.3140409999999996
asg18
(lp71
(lp72
F1.0
aasg21
g22
sbag0
(g10
g2
Ntp73
Rp74
(dp75
g14
g69
sg16
(lp76
F1.475516
asg18
(lp77
(lp78
F1.0
aasg21
g22
sbag0
(g10
g2
Ntp79
Rp80
(dp81
g14
g69
sg16
(lp82
F0.45111289999999998
asg18
(lp83
(lp84
F1.0
aasg21
g22
sbag0
(g10
g2
Ntp85
Rp86
(dp87
g14
g69
sg16
(lp88
F0.122335
asg18
(lp89
(lp90
F1.0
aasg21
g22
sbag0
(g10
g2
Ntp91
Rp92
(dp93
g14
VF
p94
sg16
(lp95
F3.649607
asg18
(lp96
(lp97
F1.0
aasg21
g22
sbag0
(g10
g2
Ntp98
Rp99
(dp100
g14
g94
sg16
(lp101
F2.2712110000000001
asg18
(lp102
(lp103
F1.0
aasg21
g22
sbag0
(g10
g2
Ntp104
Rp105
(dp106
g14
g94
sg16
(lp107
F0.65320909999999999
asg18
(lp108
(lp109
F1.0
aasg21
g22
sbag0
(g10
g2
Ntp110
Rp111
(dp112
g14
VG
p113
sg16
(lp114
F1.748891
asg18
(lp115
(lp116
F1.0
aasg21
g22
sbag0
(g10
g2
Ntp117
Rp118
(dp119
g14
g113
sg16
(lp120
F0.67575339999999995
asg18
(lp121
(lp122
F1.0
aasg21
g22
sbasVB
p123
(lp124
g0
(g10
g2
Ntp125
Rp126
(dp127
g14
g15
sg16
(lp128
F1.153942
asg18
(lp129
(lp130
F1.0
aasg21
V B
p131
sbag0
(g10
g2
Ntp132
Rp133
(dp134
g14
g15
sg16
(lp135
F0.2883423
asg18
(lp136
(lp137
F1.0
aasg21
g131
sbag0
(g10
g2
Ntp138
Rp139
(dp140
g14
g15
sg16
(lp141
F0.1113143
asg18
(lp142
(lp143
F1.0
aasg21
g131
sbag0
(g10
g2
Ntp144
Rp145
(dp146
g14
g15
sg16
(lp147
F0.046427450000000002
asg18
(lp148
(lp149
F1.0
aasg21
g131
sbag0
(g10
g2
Ntp150
Rp151
(dp152
g14
g44
sg16
(lp153
F2.3174260000000002
asg18
(lp154
(lp155
F1.0
aasg21
g131
sbag0
(g10
g2
Ntp156
Rp157
(dp158
g14
g44
sg16
(lp159
F0.76091379999999997
asg18
(lp160
(lp161
F1.0
aasg21
g131
sbag0
(g10
g2
Ntp162
Rp163
(dp164
g14
g44
sg16
(lp165
F0.30082389999999998
asg18
(lp166
(lp167
F1.0
aasg21
g131
sbag0
(g10
g2
Ntp168
Rp169
(dp170
g14
g44
sg16
(lp171
F0.10555
asg18
(lp172
(lp173
F1.0
aasg21
g131
sbag0
(g10
g2
Ntp174
Rp175
(dp176
g14
g69
sg16
(lp177
F2.4470130000000001
asg18
(lp178
(lp179
F1.0
aasg21
g131
sbag0
(g10
g2
Ntp180
Rp181
(dp182
g14
g69
sg16
(lp183
F0.94314819999999999
asg18
(lp184
(lp185
F1.0
aasg21
g131
sbag0
(g10
g2
Ntp186
Rp187
(dp188
g14
g69
sg16
(lp189
F0.31679429999999997
asg18
(lp190
(lp191
F1.0
aasg21
g131
sbag0
(g10
g2
Ntp192
Rp193
(dp194
g14
g69
sg16
(lp195
F0.1098659
asg18
(lp196
(lp197
F1.0
aasg21
g131
sbag0
(g10
g2
Ntp198
Rp199
(dp200
g14
g94
sg16
(lp201
F2.8263180000000001
asg18
(lp202
(lp203
F1.0
aasg21
g131
sbag0
(g10
g2
Ntp204
Rp205
(dp206
g14
g94
sg16
(lp207
F1.5301039999999999
asg18
(lp208
(lp209
F1.0
aasg21
g131
sbag0
(g10
g2
Ntp210
Rp211
(dp212
g14
g94
sg16
(lp213
F0.49368489999999998
asg18
(lp214
(lp215
F1.0
aasg21
g131
sbag0
(g10
g2
Ntp216
Rp217
(dp218
g14
g113
sg16
(lp219
F1.14852
asg18
(lp220
(lp221
F1.0
aasg21
g131
sbag0
(g10
g2
Ntp222
Rp223
(dp224
g14
g113
sg16
(lp225
F0.45417950000000001
asg18
(lp226
(lp227
F1.0
aasg21
g131
sbasg94
(lp228
g0
(g10
g2
Ntp229
Rp230
(dp231
g14
g15
sg16
(lp232
F4.2323880000000003
asg18
(lp233
(lp234
F1.0
aasg21
V F
p235
sbag0
(g10
g2
Ntp236
Rp237
(dp238
g14
g15
sg16
(lp239
F1.2231829999999999
asg18
(lp240
(lp241
F1.0
aasg21
g235
sbag0
(g10
g2
Ntp242
Rp243
(dp244
g14
g15
sg16
(lp245
F0.4238711
asg18
(lp246
(lp247
F1.0
aasg21
g235
sbag0
(g10
g2
Ntp248
Rp249
(dp250
g14
g15
sg16
(lp251
F0.14240649999999999
asg18
(lp252
(lp253
F1.0
aasg21
g235
sbag0
(g10
g2
Ntp254
Rp255
(dp256
g14
g44
sg16
(lp257
F8.7998159999999999
asg18
(lp258
(lp259
F1.0
aasg21
g235
sbag0
(g10
g2
Ntp260
Rp261
(dp262
g14
g44
sg16
(lp263
F2.924099
asg18
(lp264
(lp265
F1.0
aasg21
g235
sbag0
(g10
g2
Ntp266
Rp267
(dp268
g14
g44
sg16
(lp269
F1.114163
asg18
(lp270
(lp271
F1.0
aasg21
g235
sbag0
(g10
g2
Ntp272
Rp273
(dp274
g14
g44
sg16
(lp275
F0.400619
asg18
(lp276
(lp277
F1.0
aasg21
g235
sbag0
(g10
g2
Ntp278
Rp279
(dp280
g14
g69
sg16
(lp281
F13.31362
asg18
(lp282
(lp283
F1.0
aasg21
g235
sbag0
(g10
g2
Ntp284
Rp285
(dp286
g14
g69
sg16
(lp287
F2.2073529999999999
asg18
(lp288
(lp289
F1.0
aasg21
g235
sbag0
(g10
g2
Ntp290
Rp291
(dp292
g14
g69
sg16
(lp293
F0.92866870000000001
asg18
(lp294
(lp295
F1.0
aasg21
g235
sbag0
(g10
g2
Ntp296
Rp297
(dp298
g14
g69
sg16
(lp299
F0.20324739999999999
asg18
(lp300
(lp301
F1.0
aasg21
g235
sbag0
(g10
g2
Ntp302
Rp303
(dp304
g14
g94
sg16
(lp305
F5.6156240000000004
asg18
(lp306
(lp307
F1.0
aasg21
g235
sbag0
(g10
g2
Ntp308
Rp309
(dp310
g14
g94
sg16
(lp311
F3.7961450000000001
asg18
(lp312
(lp313
F1.0
aasg21
g235
sbag0
(g10
g2
Ntp314
Rp315
(dp316
g14
g94
sg16
(lp317
F1.2629600000000001
asg18
(lp318
(lp319
F1.0
aasg21
g235
sbag0
(g10
g2
Ntp320
Rp321
(dp322
g14
g113
sg16
(lp323
F4.3166380000000002
asg18
(lp324
(lp325
F1.0
aasg21
g235
sbag0
(g10
g2
Ntp326
Rp327
(dp328
g14
g113
sg16
(lp329
F1.4551000000000001
asg18
(lp330
(lp331
F1.0
aasg21
g235
sbasVH
p332
(lp333
g0
(g10
g2
Ntp334
Rp335
(dp336
g14
g15
sg16
(lp337
F2.0176509999999999
asg18
(lp338
(lp339
F1.0
aasg21
V H
p340
sbag0
(g10
g2
Ntp341
Rp342
(dp343
g14
g15
sg16
(lp344
F0.46161720000000001
asg18
(lp345
(lp346
F1.0
aasg21
g340
sbag0
(g10
g2
Ntp347
Rp348
(dp349
g14
g15
sg16
(lp350
F0.13465849999999999
asg18
(lp351
(lp352
F1.0
aasg21
g340
sbag0
(g10
g2
Ntp353
Rp354
(dp355
g14
g44
sg16
(lp356
F9.4397129999999994
asg18
(lp357
(lp358
F1.0
aasg21
g340
sbag0
(g10
g2
Ntp359
Rp360
(dp361
g14
g44
sg16
(lp362
F1.033185
asg18
(lp363
(lp364
F1.0
aasg21
g340
sbag0
(g10
g2
Ntp365
Rp366
(dp367
g14
g44
sg16
(lp368
F0.37187209999999998
asg18
(lp369
(lp370
F1.0
aasg21
g340
sbag0
(g10
g2
Ntp371
Rp372
(dp373
g14
g69
sg16
(lp374
F2.2303389999999998
asg18
(lp375
(lp376
F1.0
aasg21
g340
sbag0
(g10
g2
Ntp377
Rp378
(dp379
g14
g69
sg16
(lp380
F0.70297410000000005
asg18
(lp381
(lp382
F1.0
aasg21
g340
sbag0
(g10
g2
Ntp383
Rp384
(dp385
g14
g69
sg16
(lp386
F0.30896489999999999
asg18
(lp387
(lp388
F1.0
aasg21
g340
sbag0
(g10
g2
Ntp389
Rp390
(dp391
g14
g94
sg16
(lp392
F1.867108
asg18
(lp393
(lp394
F1.0
aasg21
g340
sbag0
(g10
g2
Ntp395
Rp396
(dp397
g14
g94
sg16
(lp398
F0.73876200000000003
asg18
(lp399
(lp400
F1.0
aasg21
g340
sbasVCL
p401
(lp402
g0
(g10
g2
Ntp403
Rp404
(dp405
g14
g15
sg16
(lp406
F2.0243350000000002
asg18
(lp407
(lp408
F1.0
aasg21
VCL
p409
sbag0
(g10
g2
Ntp410
Rp411
(dp412
g14
g15
sg16
(lp413
F0.52444849999999998
asg18
(lp414
(lp415
F1.0
aasg21
VCL
p416
sbag0
(g10
g2
Ntp417
Rp418
(dp419
g14
g15
sg16
(lp420
F0.2350913
asg18
(lp421
(lp422
F1.0
aasg21
VCL
p423
sbag0
(g10
g2
Ntp424
Rp425
(dp426
g14
g15
sg16
(lp427
F0.091107659999999993
asg18
(lp428
(lp429
F1.0
aasg21
VCL
p430
sbag0
(g10
g2
Ntp431
Rp432
(dp433
g14
g44
sg16
(lp434
F8.4553600000000007
asg18
(lp435
(lp436
F1.0
aasg21
VCL
p437
sbag0
(g10
g2
Ntp438
Rp439
(dp440
g14
g44
sg16
(lp441
F1.8149770000000001
asg18
(lp442
(lp443
F1.0
aasg21
VCL
p444
sbag0
(g10
g2
Ntp445
Rp446
(dp447
g14
g44
sg16
(lp448
F0.44675490000000001
asg18
(lp449
(lp450
F1.0
aasg21
VCL
p451
sbag0
(g10
g2
Ntp452
Rp453
(dp454
g14
g44
sg16
(lp455
F0.1833437
asg18
(lp456
(lp457
F1.0
aasg21
VCL
p458
sbag0
(g10
g2
Ntp459
Rp460
(dp461
g14
g69
sg16
(lp462
F45.075989999999997
asg18
(lp463
(lp464
F1.0
aasg21
VCL
p465
sbag0
(g10
g2
Ntp466
Rp467
(dp468
g14
g69
sg16
(lp469
F5.297218
asg18
(lp470
(lp471
F1.0
aasg21
VCL
p472
sbag0
(g10
g2
Ntp473
Rp474
(dp475
g14
g69
sg16
(lp476
F1.149119
asg18
(lp477
(lp478
F1.0
aasg21
VCL
p479
sbag0
(g10
g2
Ntp480
Rp481
(dp482
g14
g69
sg16
(lp483
F0.39061220000000002
asg18
(lp484
(lp485
F1.0
aasg21
VCL
p486
sbag0
(g10
g2
Ntp487
Rp488
(dp489
g14
g94
sg16
(lp490
F5.9052100000000003
asg18
(lp491
(lp492
F1.0
aasg21
VCL
p493
sbag0
(g10
g2
Ntp494
Rp495
(dp496
g14
g94
sg16
(lp497
F1.2939259999999999
asg18
(lp498
(lp499
F1.0
aasg21
VCL
p500
sbag0
(g10
g2
Ntp501
Rp502
(dp503
g14
g94
sg16
(lp504
F0.49218469999999997
asg18
(lp505
(lp506
F1.0
aasg21
VCL
p507
sbag0
(g10
g2
Ntp508
Rp509
(dp510
g14
g113
sg16
(lp511
F1.2759339999999999
asg18
(lp512
(lp513
F1.0
aasg21
VCL
p514
sbag0
(g10
g2
Ntp515
Rp516
(dp517
g14
g113
sg16
(lp518
F0.60045170000000003
asg18
(lp519
(lp520
F1.0
aasg21
VCL
p521
sbasVAL
p522
(lp523
g0
(g10
g2
Ntp524
Rp525
(dp526
g14
g15
sg16
(lp527
F0.8937541
asg18
(lp528
(lp529
F1.0
aasg21
VAL
p530
sbag0
(g10
g2
Ntp531
Rp532
(dp533
g14
g15
sg16
(lp534
F0.17027400000000001
asg18
(lp535
(lp536
F1.0
aasg21
VAL
p537
sbag0
(g10
g2
Ntp538
Rp539
(dp540
g14
g15
sg16
(lp541
F0.077762040000000004
asg18
(lp542
(lp543
F1.0
aasg21
VAL
p544
sbag0
(g10
g2
Ntp545
Rp546
(dp547
g14
g15
sg16
(lp548
F0.03035349
asg18
(lp549
(lp550
F1.0
aasg21
VAL
p551
sbag0
(g10
g2
Ntp552
Rp553
(dp554
g14
g44
sg16
(lp555
F3.7867579999999998
asg18
(lp556
(lp557
F1.0
aasg21
VAL
p558
sbag0
(g10
g2
Ntp559
Rp560
(dp561
g14
g44
sg16
(lp562
F0.50966299999999998
asg18
(lp563
(lp564
F1.0
aasg21
VAL
p565
sbag0
(g10
g2
Ntp566
Rp567
(dp568
g14
g44
sg16
(lp569
F0.17058619999999999
asg18
(lp570
(lp571
F1.0
aasg21
VAL
p572
sbag0
(g10
g2
Ntp573
Rp574
(dp575
g14
g44
sg16
(lp576
F0.065319569999999993
asg18
(lp577
(lp578
F1.0
aasg21
VAL
p579
sbag0
(g10
g2
Ntp580
Rp581
(dp582
g14
g69
sg16
(lp583
F5.0930530000000003
asg18
(lp584
(lp585
F1.0
aasg21
VAL
p586
sbag0
(g10
g2
Ntp587
Rp588
(dp589
g14
g69
sg16
(lp590
F1.1858500000000001
asg18
(lp591
(lp592
F1.0
aasg21
VAL
p593
sbag0
(g10
g2
Ntp594
Rp595
(dp596
g14
g69
sg16
(lp597
F0.38809510000000003
asg18
(lp598
(lp599
F1.0
aasg21
VAL
p600
sbag0
(g10
g2
Ntp601
Rp602
(dp603
g14
g69
sg16
(lp604
F0.1552917
asg18
(lp605
(lp606
F1.0
aasg21
VAL
p607
sbag0
(g10
g2
Ntp608
Rp609
(dp610
g14
g94
sg16
(lp611
F1.5224059999999999
asg18
(lp612
(lp613
F1.0
aasg21
VAL
p614
sbag0
(g10
g2
Ntp615
Rp616
(dp617
g14
g94
sg16
(lp618
F0.87110860000000001
asg18
(lp619
(lp620
F1.0
aasg21
VAL
p621
sbag0
(g10
g2
Ntp622
Rp623
(dp624
g14
g94
sg16
(lp625
F0.2478293
asg18
(lp626
(lp627
F1.0
aasg21
VAL
p628
sbag0
(g10
g2
Ntp629
Rp630
(dp631
g14
g113
sg16
(lp632
F0.50038130000000003
asg18
(lp633
(lp634
F1.0
aasg21
VAL
p635
sbag0
(g10
g2
Ntp636
Rp637
(dp638
g14
g113
sg16
(lp639
F0.2433825
asg18
(lp640
(lp641
F1.0
aasg21
VAL
p642
sbasVO
p643
(lp644
g0
(g10
g2
Ntp645
Rp646
(dp647
g14
g15
sg16
(lp648
F3.2774939999999999
asg18
(lp649
(lp650
F1.0
aasg21
V O
p651
sbag0
(g10
g2
Ntp652
Rp653
(dp654
g14
g15
sg16
(lp655
F0.86662090000000003
asg18
(lp656
(lp657
F1.0
aasg21
g651
sbag0
(g10
g2
Ntp658
Rp659
(dp660
g14
g15
sg16
(lp661
F0.31153589999999998
asg18
(lp662
(lp663
F1.0
aasg21
g651
sbag0
(g10
g2
Ntp664
Rp665
(dp666
g14
g15
sg16
(lp667
F0.10525080000000001
asg18
(lp668
(lp669
F1.0
aasg21
g651
sbag0
(g10
g2
Ntp670
Rp671
(dp672
g14
g44
sg16
(lp673
F6.6784410000000003
asg18
(lp674
(lp675
F1.0
aasg21
g651
sbag0
(g10
g2
Ntp676
Rp677
(dp678
g14
g44
sg16
(lp679
F2.2948200000000001
asg18
(lp680
(lp681
F1.0
aasg21
g651
sbag0
(g10
g2
Ntp682
Rp683
(dp684
g14
g44
sg16
(lp685
F0.79403939999999995
asg18
(lp686
(lp687
F1.0
aasg21
g651
sbag0
(g10
g2
Ntp688
Rp689
(dp690
g14
g44
sg16
(lp691
F0.2937651
asg18
(lp692
(lp693
F1.0
aasg21
g651
sbag0
(g10
g2
Ntp694
Rp695
(dp696
g14
g69
sg16
(lp697
F10.426069999999999
asg18
(lp698
(lp699
F1.0
aasg21
g651
sbag0
(g10
g2
Ntp700
Rp701
(dp702
g14
g69
sg16
(lp703
F1.8599079999999999
asg18
(lp704
(lp705
F1.0
aasg21
g651
sbag0
(g10
g2
Ntp706
Rp707
(dp708
g14
g69
sg16
(lp709
F0.76562249999999998
asg18
(lp710
(lp711
F1.0
aasg21
g651
sbag0
(g10
g2
Ntp712
Rp713
(dp714
g14
g69
sg16
(lp715
F0.19751779999999999
asg18
(lp716
(lp717
F1.0
aasg21
g651
sbag0
(g10
g2
Ntp718
Rp719
(dp720
g14
g94
sg16
(lp721
F6.7272829999999999
asg18
(lp722
(lp723
F1.0
aasg21
g651
sbag0
(g10
g2
Ntp724
Rp725
(dp726
g14
g94
sg16
(lp727
F3.3043079999999998
asg18
(lp728
(lp729
F1.0
aasg21
g651
sbag0
(g10
g2
Ntp730
Rp731
(dp732
g14
g94
sg16
(lp733
F0.95666569999999995
asg18
(lp734
(lp735
F1.0
aasg21
g651
sbag0
(g10
g2
Ntp736
Rp737
(dp738
g14
g113
sg16
(lp739
F3.4281350000000002
asg18
(lp740
(lp741
F1.0
aasg21
g651
sbag0
(g10
g2
Ntp742
Rp743
(dp744
g14
g113
sg16
(lp745
F1.188941
asg18
(lp746
(lp747
F1.0
aasg21
g651
sbasVNE
p748
(lp749
g0
(g10
g2
Ntp750
Rp751
(dp752
g14
g15
sg16
(lp753
F5.6009450000000003
asg18
(lp754
(lp755
F1.0
aasg21
VNE
p756
sbag0
(g10
g2
Ntp757
Rp758
(dp759
g14
g15
sg16
(lp760
F1.348352
asg18
(lp761
(lp762
F1.0
aasg21
VNE
p763
sbag0
(g10
g2
Ntp764
Rp765
(dp766
g14
g15
sg16
(lp767
F0.60020359999999995
asg18
(lp768
(lp769
F1.0
aasg21
VNE
p770
sbag0
(g10
g2
Ntp771
Rp772
(dp773
g14
g15
sg16
(lp774
F0.157087
asg18
(lp775
(lp776
F1.0
aasg21
VNE
p777
sbag0
(g10
g2
Ntp778
Rp779
(dp780
g14
g44
sg16
(lp781
F15.03561
asg18
(lp782
(lp783
F1.0
aasg21
VNE
p784
sbag0
(g10
g2
Ntp785
Rp786
(dp787
g14
g44
sg16
(lp788
F3.7159879999999998
asg18
(lp789
(lp790
F1.0
aasg21
VNE
p791
sbag0
(g10
g2
Ntp792
Rp793
(dp794
g14
g44
sg16
(lp795
F1.3697440000000001
asg18
(lp796
(lp797
F1.0
aasg21
VNE
p798
sbag0
(g10
g2
Ntp799
Rp800
(dp801
g14
g44
sg16
(lp802
F0.46069339999999998
asg18
(lp803
(lp804
F1.0
aasg21
VNE
p805
sbag0
(g10
g2
Ntp806
Rp807
(dp808
g14
g69
sg16
(lp809
F24.920290000000001
asg18
(lp810
(lp811
F1.0
aasg21
VNE
p812
sbag0
(g10
g2
Ntp813
Rp814
(dp815
g14
g69
sg16
(lp816
F3.008032
asg18
(lp817
(lp818
F1.0
aasg21
VNE
p819
sbag0
(g10
g2
Ntp820
Rp821
(dp822
g14
g69
sg16
(lp823
F0.99170080000000005
asg18
(lp824
(lp825
F1.0
aasg21
VNE
p826
sbag0
(g10
g2
Ntp827
Rp828
(dp829
g14
g69
sg16
(lp830
F0.31986920000000002
asg18
(lp831
(lp832
F1.0
aasg21
VNE
p833
sbag0
(g10
g2
Ntp834
Rp835
(dp836
g14
g94
sg16
(lp837
F9.7432739999999995
asg18
(lp838
(lp839
F1.0
aasg21
VNE
p840
sbag0
(g10
g2
Ntp841
Rp842
(dp843
g14
g94
sg16
(lp844
F6.5021880000000003
asg18
(lp845
(lp846
F1.0
aasg21
VNE
p847
sbag0
(g10
g2
Ntp848
Rp849
(dp850
g14
g94
sg16
(lp851
F2.71888
asg18
(lp852
(lp853
F1.0
aasg21
VNE
p854
sbag0
(g10
g2
Ntp855
Rp856
(dp857
g14
g113
sg16
(lp858
F5.0236929999999997
asg18
(lp859
(lp860
F1.0
aasg21
VNE
p861
sbag0
(g10
g2
Ntp862
Rp863
(dp864
g14
g113
sg16
(lp865
F1.709522
asg18
(lp866
(lp867
F1.0
aasg21
VNE
p868
sbasg44
(lp869
g0
(g10
g2
Ntp870
Rp871
(dp872
g14
g15
sg16
(lp873
F1.4444939999999999
asg18
(lp874
(lp875
F1.0
aasg21
V P
p876
sbag0
(g10
g2
Ntp877
Rp878
(dp879
g14
g15
sg16
(lp880
F0.33276060000000002
asg18
(lp881
(lp882
F1.0
aasg21
g876
sbag0
(g10
g2
Ntp883
Rp884
(dp885
g14
g15
sg16
(lp886
F0.14701500000000001
asg18
(lp887
(lp888
F1.0
aasg21
g876
sbag0
(g10
g2
Ntp889
Rp890
(dp891
g14
g15
sg16
(lp892
F0.05476901
asg18
(lp893
(lp894
F1.0
aasg21
g876
sbag0
(g10
g2
Ntp895
Rp896
(dp897
g14
g44
sg16
(lp898
F8.8333919999999999
asg18
(lp899
(lp900
F1.0
aasg21
g876
sbag0
(g10
g2
Ntp901
Rp902
(dp903
g14
g44
sg16
(lp904
F1.4292579999999999
asg18
(lp905
(lp906
F1.0
aasg21
g876
sbag0
(g10
g2
Ntp907
Rp908
(dp909
g14
g44
sg16
(lp910
F0.34552709999999998
asg18
(lp911
(lp912
F1.0
aasg21
g876
sbag0
(g10
g2
Ntp913
Rp914
(dp915
g14
g44
sg16
(lp916
F0.1227022
asg18
(lp917
(lp918
F1.0
aasg21
g876
sbag0
(g10
g2
Ntp919
Rp920
(dp921
g14
g69
sg16
(lp922
F23.84423
asg18
(lp923
(lp924
F1.0
aasg21
g876
sbag0
(g10
g2
Ntp925
Rp926
(dp927
g14
g69
sg16
(lp928
F2.5708769999999999
asg18
(lp929
(lp930
F1.0
aasg21
g876
sbag0
(g10
g2
Ntp931
Rp932
(dp933
g14
g69
sg16
(lp934
F0.75052949999999996
asg18
(lp935
(lp936
F1.0
aasg21
g876
sbag0
(g10
g2
Ntp937
Rp938
(dp939
g14
g69
sg16
(lp940
F0.2728738
asg18
(lp941
(lp942
F1.0
aasg21
g876
sbag0
(g10
g2
Ntp943
Rp944
(dp945
g14
g94
sg16
(lp946
F2.63863
asg18
(lp947
(lp948
F1.0
aasg21
g876
sbag0
(g10
g2
Ntp949
Rp950
(dp951
g14
g94
sg16
(lp952
F1.0873250000000001
asg18
(lp953
(lp954
F1.0
aasg21
g876
sbag0
(g10
g2
Ntp955
Rp956
(dp957
g14
g94
sg16
(lp958
F0.33084029999999998
asg18
(lp959
(lp960
F1.0
aasg21
g876
sbag0
(g10
g2
Ntp961
Rp962
(dp963
g14
g113
sg16
(lp964
F0.8655794
asg18
(lp965
(lp966
F1.0
aasg21
g876
sbag0
(g10
g2
Ntp967
Rp968
(dp969
g14
g113
sg16
(lp970
F0.41952070000000002
asg18
(lp971
(lp972
F1.0
aasg21
g876
sbasg15
(lp973
g0
(g10
g2
Ntp974
Rp975
(dp976
g14
g15
sg16
(lp977
F1.7191529999999999
asg18
(lp978
(lp979
F1.0
aasg21
V S
p980
sbag0
(g10
g2
Ntp981
Rp982
(dp983
g14
g15
sg16
(lp984
F0.42519200000000001
asg18
(lp985
(lp986
F1.0
aasg21
g980
sbag0
(g10
g2
Ntp987
Rp988
(dp989
g14
g15
sg16
(lp990
F0.1916437
asg18
(lp991
(lp992
F1.0
aasg21
g980
sbag0
(g10
g2
Ntp993
Rp994
(dp995
g14
g15
sg16
(lp996
F0.078139210000000001
asg18
(lp997
(lp998
F1.0
aasg21
g980
sbag0
(g10
g2
Ntp999
Rp1000
(dp1001
g14
g44
sg16
(lp1002
F7.503031
asg18
(lp1003
(lp1004
F1.0
aasg21
g980
sbag0
(g10
g2
Ntp1005
Rp1006
(dp1007
g14
g44
sg16
(lp1008
F1.6650229999999999
asg18
(lp1009
(lp1010
F1.0
aasg21
g980
sbag0
(g10
g2
Ntp1011
Rp1012
(dp1013
g14
g44
sg16
(lp1014
F0.36581200000000003
asg18
(lp1015
(lp1016
F1.0
aasg21
g980
sbag0
(g10
g2
Ntp1017
Rp1018
(dp1019
g14
g44
sg16
(lp1020
F0.1511065
asg18
(lp1021
(lp1022
F1.0
aasg21
g980
sbag0
(g10
g2
Ntp1023
Rp1024
(dp1025
g14
g69
sg16
(lp1026
F38.721170000000001
asg18
(lp1027
(lp1028
F1.0
aasg21
g980
sbag0
(g10
g2
Ntp1029
Rp1030
(dp1031
g14
g69
sg16
(lp1032
F4.5339679999999998
asg18
(lp1033
(lp1034
F1.0
aasg21
g980
sbag0
(g10
g2
Ntp1035
Rp1036
(dp1037
g14
g69
sg16
(lp1038
F0.90392410000000001
asg18
(lp1039
(lp1040
F1.0
aasg21
g980
sbag0
(g10
g2
Ntp1041
Rp1042
(dp1043
g14
g69
sg16
(lp1044
F0.39079259999999999
asg18
(lp1045
(lp1046
F1.0
aasg21
g980
sbag0
(g10
g2
Ntp1047
Rp1048
(dp1049
g14
g94
sg16
(lp1050
F4.5971549999999999
asg18
(lp1051
(lp1052
F1.0
aasg21
g980
sbag0
(g10
g2
Ntp1053
Rp1054
(dp1055
g14
g94
sg16
(lp1056
F1.1422300000000001
asg18
(lp1057
(lp1058
F1.0
aasg21
g980
sbag0
(g10
g2
Ntp1059
Rp1060
(dp1061
g14
g94
sg16
(lp1062
F0.41551929999999998
asg18
(lp1063
(lp1064
F1.0
aasg21
g980
sbag0
(g10
g2
Ntp1065
Rp1066
(dp1067
g14
g113
sg16
(lp1068
F1.0509280000000001
asg18
(lp1069
(lp1070
F1.0
aasg21
g980
sbag0
(g10
g2
Ntp1071
Rp1072
(dp1073
g14
g113
sg16
(lp1074
F0.50031519999999996
asg18
(lp1075
(lp1076
F1.0
aasg21
g980
sbasVAR
p1077
(lp1078
g0
(g10
g2
Ntp1079
Rp1080
(dp1081
g14
g15
sg16
(lp1082
F2.376547
asg18
(lp1083
(lp1084
F1.0
aasg21
VAR
p1085
sbag0
(g10
g2
Ntp1086
Rp1087
(dp1088
g14
g15
sg16
(lp1089
F0.63379249999999998
asg18
(lp1090
(lp1091
F1.0
aasg21
VAR
p1092
sbag0
(g10
g2
Ntp1093
Rp1094
(dp1095
g14
g15
sg16
(lp1096
F0.28309269999999997
asg18
(lp1097
(lp1098
F1.0
aasg21
VAR
p1099
sbag0
(g10
g2
Ntp1100
Rp1101
(dp1102
g14
g15
sg16
(lp1103
F0.1049718
asg18
(lp1104
(lp1105
F1.0
aasg21
VAR
p1106
sbag0
(g10
g2
Ntp1107
Rp1108
(dp1109
g14
g44
sg16
(lp1110
F9.4622089999999996
asg18
(lp1111
(lp1112
F1.0
aasg21
VAR
p1113
sbag0
(g10
g2
Ntp1114
Rp1115
(dp1116
g14
g44
sg16
(lp1117
F1.9950639999999999
asg18
(lp1118
(lp1119
F1.0
aasg21
VAR
p1120
sbag0
(g10
g2
Ntp1121
Rp1122
(dp1123
g14
g44
sg16
(lp1124
F0.49840099999999998
asg18
(lp1125
(lp1126
F1.0
aasg21
VAR
p1127
sbag0
(g10
g2
Ntp1128
Rp1129
(dp1130
g14
g44
sg16
(lp1131
F0.19304959999999999
asg18
(lp1132
(lp1133
F1.0
aasg21
VAR
p1134
sbag0
(g10
g2
Ntp1135
Rp1136
(dp1137
g14
g69
sg16
(lp1138
F52.816130000000001
asg18
(lp1139
(lp1140
F1.0
aasg21
VAR
p1141
sbag0
(g10
g2
Ntp1142
Rp1143
(dp1144
g14
g69
sg16
(lp1145
F7.8068999999999997
asg18
(lp1146
(lp1147
F1.0
aasg21
VAR
p1148
sbag0
(g10
g2
Ntp1149
Rp1150
(dp1151
g14
g69
sg16
(lp1152
F1.351842
asg18
(lp1153
(lp1154
F1.0
aasg21
VAR
p1155
sbag0
(g10
g2
Ntp1156
Rp1157
(dp1158
g14
g69
sg16
(lp1159
F0.53918370000000004
asg18
(lp1160
(lp1161
F1.0
aasg21
VAR
p1162
sbag0
(g10
g2
Ntp1163
Rp1164
(dp1165
g14
g94
sg16
(lp1166
F7.2584
asg18
(lp1167
(lp1168
F1.0
aasg21
VAR
p1169
sbag0
(g10
g2
Ntp1170
Rp1171
(dp1172
g14
g94
sg16
(lp1173
F2.0900430000000001
asg18
(lp1174
(lp1175
F1.0
aasg21
VAR
p1176
sbag0
(g10
g2
Ntp1177
Rp1178
(dp1179
g14
g94
sg16
(lp1180
F0.5969411
asg18
(lp1181
(lp1182
F1.0
aasg21
VAR
p1183
sbag0
(g10
g2
Ntp1184
Rp1185
(dp1186
g14
g113
sg16
(lp1187
F1.5233289999999999
asg18
(lp1188
(lp1189
F1.0
aasg21
VAR
p1190
sbag0
(g10
g2
Ntp1191
Rp1192
(dp1193
g14
g113
sg16
(lp1194
F0.71099520000000005
asg18
(lp1195
(lp1196
F1.0
aasg21
VAR
p1197
sbasVN
p1198
(lp1199
g0
(g10
g2
Ntp1200
Rp1201
(dp1202
g14
g15
sg16
(lp1203
F2.5142530000000001
asg18
(lp1204
(lp1205
F1.0
aasg21
V N
p1206
sbag0
(g10
g2
Ntp1207
Rp1208
(dp1209
g14
g15
sg16
(lp1210
F0.61954609999999999
asg18
(lp1211
(lp1212
F1.0
aasg21
g1206
sbag0
(g10
g2
Ntp1213
Rp1214
(dp1215
g14
g15
sg16
(lp1216
F0.23687730000000001
asg18
(lp1217
(lp1218
F1.0
aasg21
g1206
sbag0
(g10
g2
Ntp1219
Rp1220
(dp1221
g14
g15
sg16
(lp1222
F0.082795090000000002
asg18
(lp1223
(lp1224
F1.0
aasg21
g1206
sbag0
(g10
g2
Ntp1225
Rp1226
(dp1227
g14
g44
sg16
(lp1228
F5.1433850000000003
asg18
(lp1229
(lp1230
F1.0
aasg21
g1206
sbag0
(g10
g2
Ntp1231
Rp1232
(dp1233
g14
g44
sg16
(lp1234
F1.7680389999999999
asg18
(lp1235
(lp1236
F1.0
aasg21
g1206
sbag0
(g10
g2
Ntp1237
Rp1238
(dp1239
g14
g44
sg16
(lp1240
F0.65279759999999998
asg18
(lp1241
(lp1242
F1.0
aasg21
g1206
sbag0
(g10
g2
Ntp1243
Rp1244
(dp1245
g14
g44
sg16
(lp1246
F0.23506779999999999
asg18
(lp1247
(lp1248
F1.0
aasg21
g1206
sbag0
(g10
g2
Ntp1249
Rp1250
(dp1251
g14
g69
sg16
(lp1252
F8.4417550000000006
asg18
(lp1253
(lp1254
F1.0
aasg21
g1206
sbag0
(g10
g2
Ntp1255
Rp1256
(dp1257
g14
g69
sg16
(lp1258
F2.0351560000000002
asg18
(lp1259
(lp1260
F1.0
aasg21
g1206
sbag0
(g10
g2
Ntp1261
Rp1262
(dp1263
g14
g69
sg16
(lp1264
F0.53086520000000004
asg18
(lp1265
(lp1266
F1.0
aasg21
g1206
sbag0
(g10
g2
Ntp1267
Rp1268
(dp1269
g14
g69
sg16
(lp1270
F0.16567309999999999
asg18
(lp1271
(lp1272
F1.0
aasg21
g1206
sbag0
(g10
g2
Ntp1273
Rp1274
(dp1275
g14
g94
sg16
(lp1276
F5.7586399999999998
asg18
(lp1277
(lp1278
F1.0
aasg21
g1206
sbag0
(g10
g2
Ntp1279
Rp1280
(dp1281
g14
g94
sg16
(lp1282
F3.4621279999999999
asg18
(lp1283
(lp1284
F1.0
aasg21
g1206
sbag0
(g10
g2
Ntp1285
Rp1286
(dp1287
g14
g94
sg16
(lp1288
F0.70086990000000005
asg18
(lp1289
(lp1290
F1.0
aasg21
g1206
sbag0
(g10
g2
Ntp1291
Rp1292
(dp1293
g14
g113
sg16
(lp1294
F2.4582290000000002
asg18
(lp1295
(lp1296
F1.0
aasg21
g1206
sbag0
(g10
g2
Ntp1297
Rp1298
(dp1299
g14
g113
sg16
(lp1300
F0.91147210000000001
asg18
(lp1301
(lp1302
F1.0
aasg21
g1206
sbasVSI
p1303
(lp1304
g0
(g10
g2
Ntp1305
Rp1306
(dp1307
g14
g15
sg16
(lp1308
F1.1735420000000001
asg18
(lp1309
(lp1310
F1.0
aasg21
VSI
p1311
sbag0
(g10
g2
Ntp1312
Rp1313
(dp1314
g14
g15
sg16
(lp1315
F0.24642149999999999
asg18
(lp1316
(lp1317
F1.0
aasg21
VSI
p1318
sbag0
(g10
g2
Ntp1319
Rp1320
(dp1321
g14
g15
sg16
(lp1322
F0.1059406
asg18
(lp1323
(lp1324
F1.0
aasg21
VSI
p1325
sbag0
(g10
g2
Ntp1326
Rp1327
(dp1328
g14
g15
sg16
(lp1329
F0.042027599999999998
asg18
(lp1330
(lp1331
F1.0
aasg21
VSI
p1332
sbag0
(g10
g2
Ntp1333
Rp1334
(dp1335
g14
g44
sg16
(lp1336
F7.2034019999999996
asg18
(lp1337
(lp1338
F1.0
aasg21
VSI
p1339
sbag0
(g10
g2
Ntp1340
Rp1341
(dp1342
g14
g44
sg16
(lp1343
F1.05477
asg18
(lp1344
(lp1345
F1.0
aasg21
VSI
p1346
sbag0
(g10
g2
Ntp1347
Rp1348
(dp1349
g14
g44
sg16
(lp1350
F0.22966729999999999
asg18
(lp1351
(lp1352
F1.0
aasg21
VSI
p1353
sbag0
(g10
g2
Ntp1354
Rp1355
(dp1356
g14
g44
sg16
(lp1357
F0.085868070000000005
asg18
(lp1358
(lp1359
F1.0
aasg21
VSI
p1360
sbag0
(g10
g2
Ntp1361
Rp1362
(dp1363
g14
g69
sg16
(lp1364
F13.89786
asg18
(lp1365
(lp1366
F1.0
aasg21
VSI
p1367
sbag0
(g10
g2
Ntp1368
Rp1369
(dp1370
g14
g69
sg16
(lp1371
F1.852967
asg18
(lp1372
(lp1373
F1.0
aasg21
VSI
p1374
sbag0
(g10
g2
Ntp1375
Rp1376
(dp1377
g14
g69
sg16
(lp1378
F0.53423750000000003
asg18
(lp1379
(lp1380
F1.0
aasg21
VSI
p1381
sbag0
(g10
g2
Ntp1382
Rp1383
(dp1384
g14
g69
sg16
(lp1385
F0.20859720000000001
asg18
(lp1386
(lp1387
F1.0
aasg21
VSI
p1388
sbag0
(g10
g2
Ntp1389
Rp1390
(dp1391
g14
g94
sg16
(lp1392
F2.63863
asg18
(lp1393
(lp1394
F1.0
aasg21
VSI
p1395
sbag0
(g10
g2
Ntp1396
Rp1397
(dp1398
g14
g94
sg16
(lp1399
F1.0873250000000001
asg18
(lp1400
(lp1401
F1.0
aasg21
VSI
p1402
sbag0
(g10
g2
Ntp1403
Rp1404
(dp1405
g14
g94
sg16
(lp1406
F0.33084029999999998
asg18
(lp1407
(lp1408
F1.0
aasg21
VSI
p1409
sbag0
(g10
g2
Ntp1410
Rp1411
(dp1412
g14
g113
sg16
(lp1413
F0.66792050000000003
asg18
(lp1414
(lp1415
F1.0
aasg21
VSI
p1416
sbag0
(g10
g2
Ntp1417
Rp1418
(dp1419
g14
g113
sg16
(lp1420
F0.3232411
asg18
(lp1421
(lp1422
F1.0
aasg21
VSI
p1423
sbassb.