ccopy_reg
_reconstructor
p0
(cbasisset
BasisSet
p1
c__builtin__
object
p2
Ntp3
Rp4
(dp5
S'basisDictionary'
p6
(dp7
S'H'
p8
(lp9
g0
(cbasisset
Shell
p10
g2
Ntp11
Rp12
(dp13
S'angularMomentum'
p14
S'S'
p15
sS'exponents'
p16
(lp17
F13.01
aF1.962
aF0.4446
asS'coefficients'
p18
(lp19
(lp20
F0.019685000000000001
aF0.13797699999999999
aF0.47814800000000002
aasS'atom'
p21
S' H'
p22
sbag0
(g10
g2
Ntp23
Rp24
(dp25
g14
S'S'
p26
sg16
(lp27
F0.122
asg18
(lp28
(lp29
F1.0
aasg21
S' H'
p30
sbag0
(g10
g2
Ntp31
Rp32
(dp33
g14
S'P'
p34
sg16
(lp35
F0.72699999999999998
asg18
(lp36
(lp37
F1.0
aasg21
S' H'
p38
sbasS'C'
p39
(lp40
g0
(g10
g2
Ntp41
Rp42
(dp43
g14
S'S'
p44
sg16
(lp45
F6665.0
aF1000.0
aF228.0
aF64.709999999999994
aF21.059999999999999
aF7.4950000000000001
aF2.7970000000000002
aF0.52149999999999996
asg18
(lp46
(lp47
F0.00069200000000000002
aF0.0053290000000000004
aF0.027077
aF0.101718
aF0.27473999999999998
aF0.44856400000000002
aF0.28507399999999999
aF0.015204000000000001
aa(lp48
F-0.000146
aF-0.0011540000000000001
aF-0.0057250000000000001
aF-0.023311999999999999
aF-0.063954999999999998
aF-0.149981
aF-0.12726199999999999
aF0.54452900000000004
aasg21
S' C'
p49
sbag0
(g10
g2
Ntp50
Rp51
(dp52
g14
S'S'
p53
sg16
(lp54
F0.15959999999999999
asg18
(lp55
(lp56
F1.0
aasg21
S' C'
p57
sbag0
(g10
g2
Ntp58
Rp59
(dp60
g14
S'P'
p61
sg16
(lp62
F9.4390000000000001
aF2.0019999999999998
aF0.54559999999999997
asg18
(lp63
(lp64
F0.038108999999999997
aF0.20948
aF0.50855700000000004
aasg21
S' C'
p65
sbag0
(g10
g2
Ntp66
Rp67
(dp68
g14
S'P'
p69
sg16
(lp70
F0.1517
asg18
(lp71
(lp72
F1.0
aasg21
S' C'
p73
sbag0
(g10
g2
Ntp74
Rp75
(dp76
g14
S'D'
p77
sg16
(lp78
F0.55000000000000004
asg18
(lp79
(lp80
F1.0
aasg21
S' C'
p81
sbag0
(g10
g2
Ntp82
Rp83
(dp84
g14
S'S'
p85
sg16
(lp86
F4.5300000000000002
asg18
(lp87
(lp88
F1.0
aasg21
S' C'
p89
sbag0
(g10
g2
Ntp90
Rp91
(dp92
g14
S'P'
p93
sg16
(lp94
F14.557
asg18
(lp95
(lp96
F1.0
aasg21
S' C'
p97
sbasS'S'
p98
(lp99
g0
(g10
g2
Ntp100
Rp101
(dp102
g14
S'S'
p103
sg16
(lp104
F110800.0
aF16610.0
aF3781.0
aF1071.0
aF349.80000000000001
aF126.3
aF49.259999999999998
aF20.16
aF5.7199999999999998
aF2.1819999999999999
aF0.43269999999999997
asg18
(lp105
(lp106
F0.00024763500000000001
aF0.00192026
aF0.0099619200000000008
aF0.0402975
aF0.128604
aF0.30348000000000003
aF0.42143199999999997
aF0.23078099999999999
aF0.017897099999999999
aF-0.0029751600000000001
aF0.00084952200000000002
aa(lp107
F-6.8703900000000005e-05
aF-0.00052768100000000001
aF-0.00279671
aF-0.0112651
aF-0.038883399999999999
aF-0.099502499999999994
aF-0.19974
aF-0.12336
aF0.51319400000000004
aF0.60711999999999999
aF0.039675299999999997
aa(lp108
F1.9907699999999999e-05
aF0.00015348299999999999
aF0.00080950300000000005
aF0.0032897400000000002
aF0.0112967
aF0.029638500000000002
aF0.0599851
aF0.041324800000000002
aF-0.20747399999999999
aF-0.39288899999999999
aF0.63283999999999996
aasg21
S' S'
p109
sbag0
(g10
g2
Ntp110
Rp111
(dp112
g14
S'S'
p113
sg16
(lp114
F0.157
asg18
(lp115
(lp116
F1.0
aasg21
S' S'
p117
sbag0
(g10
g2
Ntp118
Rp119
(dp120
g14
S'P'
p121
sg16
(lp122
F399.69999999999999
aF94.189999999999998
aF29.75
aF10.77
aF4.1189999999999998
aF1.625
aF0.47260000000000002
asg18
(lp123
(lp124
F0.00447541
aF0.034170800000000001
aF0.14424999999999999
aF0.35392800000000002
aF0.45908500000000002
aF0.20638300000000001
aF0.0102141
aa(lp125
F-0.0011625100000000001
aF-0.0086566400000000002
aF-0.039088600000000001
aF-0.093462500000000004
aF-0.14799399999999999
aF0.030190399999999999
aF0.56157299999999999
aasg21
S' S'
p126
sbag0
(g10
g2
Ntp127
Rp128
(dp129
g14
S'P'
p130
sg16
(lp131
F0.14069999999999999
asg18
(lp132
(lp133
F1.0
aasg21
S' S'
p134
sbag0
(g10
g2
Ntp135
Rp136
(dp137
g14
S'D'
p138
sg16
(lp139
F0.47899999999999998
asg18
(lp140
(lp141
F1.0
aasg21
S' S'
p142
sbag0
(g10
g2
Ntp143
Rp144
(dp145
g14
S'S'
p146
sg16
(lp147
F7.0830000000000002
asg18
(lp148
(lp149
F1.0
aasg21
S' S'
p150
sbag0
(g10
g2
Ntp151
Rp152
(dp153
g14
S'P'
p154
sg16
(lp155
F3.089
asg18
(lp156
(lp157
F1.0
aasg21
S' S'
p158
sbag0
(g10
g2
Ntp159
Rp160
(dp161
g14
S'D'
p162
sg16
(lp163
F8.3629999999999995
asg18
(lp164
(lp165
F1.0
aasg21
S' S'
p166
sbasS'O'
p167
(lp168
g0
(g10
g2
Ntp169
Rp170
(dp171
g14
S'S'
p172
sg16
(lp173
F11720.0
aF1759.0
aF400.80000000000001
aF113.7
aF37.030000000000001
aF13.27
aF5.0250000000000004
aF1.0129999999999999
asg18
(lp174
(lp175
F0.00071000000000000002
aF0.00547
aF0.027837000000000001
aF0.1048
aF0.28306199999999998
aF0.44871899999999998
aF0.27095200000000003
aF0.015458
aa(lp176
F-0.00016000000000000001
aF-0.001263
aF-0.006267
aF-0.025715999999999999
aF-0.070924000000000001
aF-0.165411
aF-0.116955
aF0.55736799999999997
aasg21
S' O'
p177
sbag0
(g10
g2
Ntp178
Rp179
(dp180
g14
S'S'
p181
sg16
(lp182
F0.30230000000000001
asg18
(lp183
(lp184
F1.0
aasg21
S' O'
p185
sbag0
(g10
g2
Ntp186
Rp187
(dp188
g14
S'P'
p189
sg16
(lp190
F17.699999999999999
aF3.8540000000000001
aF1.046
asg18
(lp191
(lp192
F0.043018000000000001
aF0.22891300000000001
aF0.50872799999999996
aasg21
S' O'
p193
sbag0
(g10
g2
Ntp194
Rp195
(dp196
g14
S'P'
p197
sg16
(lp198
F0.27529999999999999
asg18
(lp199
(lp200
F1.0
aasg21
S' O'
p201
sbag0
(g10
g2
Ntp202
Rp203
(dp204
g14
S'D'
p205
sg16
(lp206
F1.1850000000000001
asg18
(lp207
(lp208
F1.0
aasg21
S' O'
p209
sbag0
(g10
g2
Ntp210
Rp211
(dp212
g14
S'S'
p213
sg16
(lp214
F8.2149999999999999
asg18
(lp215
(lp216
F1.0
aasg21
S' O'
p217
sbag0
(g10
g2
Ntp218
Rp219
(dp220
g14
S'P'
p221
sg16
(lp222
F26.056000000000001
asg18
(lp223
(lp224
F1.0
aasg21
S' O'
p225
sbasS'N'
p226
(lp227
g0
(g10
g2
Ntp228
Rp229
(dp230
g14
S'S'
p231
sg16
(lp232
F9046.0
aF1357.0
aF309.30000000000001
aF87.730000000000004
aF28.559999999999999
aF10.210000000000001
aF3.8380000000000001
aF0.74660000000000004
asg18
(lp233
(lp234
F0.00069999999999999999
aF0.0053889999999999997
aF0.027406
aF0.10320699999999999
aF0.278723
aF0.44853999999999999
aF0.27823799999999999
aF0.015440000000000001
aa(lp235
F-0.00015300000000000001
aF-0.0012080000000000001
aF-0.0059919999999999999
aF-0.024544
aF-0.067459000000000005
aF-0.158078
aF-0.12183099999999999
aF0.54900300000000002
aasg21
S' N'
p236
sbag0
(g10
g2
Ntp237
Rp238
(dp239
g14
S'S'
p240
sg16
(lp241
F0.2248
asg18
(lp242
(lp243
F1.0
aasg21
S' N'
p244
sbag0
(g10
g2
Ntp245
Rp246
(dp247
g14
S'P'
p248
sg16
(lp249
F13.550000000000001
aF2.9169999999999998
aF0.79730000000000001
asg18
(lp250
(lp251
F0.039919000000000003
aF0.217169
aF0.51031899999999997
aasg21
S' N'
p252
sbag0
(g10
g2
Ntp253
Rp254
(dp255
g14
S'P'
p256
sg16
(lp257
F0.2185
asg18
(lp258
(lp259
F1.0
aasg21
S' N'
p260
sbag0
(g10
g2
Ntp261
Rp262
(dp263
g14
S'D'
p264
sg16
(lp265
F0.81699999999999995
asg18
(lp266
(lp267
F1.0
aasg21
S' N'
p268
sbag0
(g10
g2
Ntp269
Rp270
(dp271
g14
S'S'
p272
sg16
(lp273
F6.2329999999999997
asg18
(lp274
(lp275
F1.0
aasg21
S' N'
p276
sbag0
(g10
g2
Ntp277
Rp278
(dp279
g14
S'P'
p280
sg16
(lp281
F19.977
asg18
(lp282
(lp283
F1.0
aasg21
S' N'
p284
sbassb.