ccopy_reg
_reconstructor
p0
(cchem.basisset
BasisSet
p1
c__builtin__
object
p2
Ntp3
Rp4
(dp5
S'basisDictionary'
p6
(dp7
S'C'
p8
(lp9
g0
(cchem.basisset
Shell
p10
g2
Ntp11
Rp12
(dp13
S'angularMomentum'
p14
S'S'
p15
sS'exponents'
p16
(lp17
F1113.9867718999999
asS'coefficients'
p18
(lp19
(lp20
F1.0
aasS'atom'
p21
S'C'
p22
sbag0
(g10
g2
Ntp23
Rp24
(dp25
g14
S'S'
p26
sg16
(lp27
F369.16234179999998
asg18
(lp28
(lp29
F1.0
aasg21
S'C'
p30
sbag0
(g10
g2
Ntp31
Rp32
(dp33
g14
S'S'
p34
sg16
(lp35
F121.79275232000001
asg18
(lp36
(lp37
F1.0
aasg21
S'C'
p38
sbag0
(g10
g2
Ntp39
Rp40
(dp41
g14
S'S'
p42
sg16
(lp43
F48.127114540000001
asg18
(lp44
(lp45
F1.0
aasg21
S'C'
p46
sbag0
(g10
g2
Ntp47
Rp48
(dp49
g14
S'S'
p50
sg16
(lp51
F20.365074
asg18
(lp52
(lp53
F1.0
aasg21
S'C'
p54
sbag0
(g10
g2
Ntp55
Rp56
(dp57
g14
S'S'
p58
sg16
(lp59
F8.0883596900000008
asg18
(lp60
(lp61
F1.0
aasg21
S'C'
p62
sbag0
(g10
g2
Ntp63
Rp64
(dp65
g14
S'S'
p66
sg16
(lp67
F2.5068656599999999
asg18
(lp68
(lp69
F1.0
aasg21
S'C'
p70
sbag0
(g10
g2
Ntp71
Rp72
(dp73
g14
S'S'
p74
sg16
(lp75
F1.24385374
asg18
(lp76
(lp77
F1.0
aasg21
S'C'
p78
sbag0
(g10
g2
Ntp79
Rp80
(dp81
g14
S'S'
p82
sg16
(lp83
F0.48449900000000001
asg18
(lp84
(lp85
F1.0
aasg21
S'C'
p86
sbag0
(g10
g2
Ntp87
Rp88
(dp89
g14
S'S'
p90
sg16
(lp91
F0.19185160000000001
asg18
(lp92
(lp93
F1.0
aasg21
S'C'
p94
sbag0
(g10
g2
Ntp95
Rp96
(dp97
g14
S'P'
p98
sg16
(lp99
F102.99176249
asg18
(lp100
(lp101
F1.0
aasg21
S'C'
p102
sbag0
(g10
g2
Ntp103
Rp104
(dp105
g14
S'P'
p106
sg16
(lp107
F28.132594009999998
asg18
(lp108
(lp109
F1.0
aasg21
S'C'
p110
sbag0
(g10
g2
Ntp111
Rp112
(dp113
g14
S'P'
p114
sg16
(lp115
F9.8364318199999996
asg18
(lp116
(lp117
F1.0
aasg21
S'C'
p118
sbag0
(g10
g2
Ntp119
Rp120
(dp121
g14
S'P'
p122
sg16
(lp123
F3.3490544999999998
asg18
(lp124
(lp125
F1.0
aasg21
S'C'
p126
sbag0
(g10
g2
Ntp127
Rp128
(dp129
g14
S'P'
p130
sg16
(lp131
F1.4947618600000001
asg18
(lp132
(lp133
F1.0
aasg21
S'C'
p134
sbag0
(g10
g2
Ntp135
Rp136
(dp137
g14
S'P'
p138
sg16
(lp139
F0.57690109000000001
asg18
(lp140
(lp141
F1.0
aasg21
S'C'
p142
sbag0
(g10
g2
Ntp143
Rp144
(dp145
g14
S'P'
p146
sg16
(lp147
F0.20320062999999999
asg18
(lp148
(lp149
F1.0
aasg21
S'C'
p150
sbag0
(g10
g2
Ntp151
Rp152
(dp153
g14
S'D'
p154
sg16
(lp155
F10.59406836
asg18
(lp156
(lp157
F1.0
aasg21
S'C'
p158
sbag0
(g10
g2
Ntp159
Rp160
(dp161
g14
S'D'
p162
sg16
(lp163
F3.5997195400000002
asg18
(lp164
(lp165
F1.0
aasg21
S'C'
p166
sbag0
(g10
g2
Ntp167
Rp168
(dp169
g14
S'D'
p170
sg16
(lp171
F1.33556911
asg18
(lp172
(lp173
F1.0
aasg21
S'C'
p174
sbag0
(g10
g2
Ntp175
Rp176
(dp177
g14
S'D'
p178
sg16
(lp179
F0.51949765000000003
asg18
(lp180
(lp181
F1.0
aasg21
S'C'
p182
sbag0
(g10
g2
Ntp183
Rp184
(dp185
g14
S'D'
p186
sg16
(lp187
F0.19954125
asg18
(lp188
(lp189
F1.0
aasg21
S'C'
p190
sbag0
(g10
g2
Ntp191
Rp192
(dp193
g14
S'F'
p194
sg16
(lp195
F1.1948663399999999
asg18
(lp196
(lp197
F1.0
aasg21
S'C'
p198
sbag0
(g10
g2
Ntp199
Rp200
(dp201
g14
S'F'
p202
sg16
(lp203
F0.41586634
asg18
(lp204
(lp205
F1.0
aasg21
S'C'
p206
sbag0
(g10
g2
Ntp207
Rp208
(dp209
g14
S'G'
p210
sg16
(lp211
F0.85886633999999995
asg18
(lp212
(lp213
F1.0
aasg21
S'C'
p214
sbasS'B'
p215
(lp216
g0
(g10
g2
Ntp217
Rp218
(dp219
g14
S'S'
p220
sg16
(lp221
F441.88913157000002
asg18
(lp222
(lp223
F1.0
aasg21
S'B'
p224
sbag0
(g10
g2
Ntp225
Rp226
(dp227
g14
S'S'
p228
sg16
(lp229
F92.069629789999993
asg18
(lp230
(lp231
F1.0
aasg21
S'B'
p232
sbag0
(g10
g2
Ntp233
Rp234
(dp235
g14
S'S'
p236
sg16
(lp237
F29.978448520000001
asg18
(lp238
(lp239
F1.0
aasg21
S'B'
p240
sbag0
(g10
g2
Ntp241
Rp242
(dp243
g14
S'S'
p244
sg16
(lp245
F11.42633079
asg18
(lp246
(lp247
F1.0
aasg21
S'B'
p248
sbag0
(g10
g2
Ntp249
Rp250
(dp251
g14
S'S'
p252
sg16
(lp253
F4.3808722400000004
asg18
(lp254
(lp255
F1.0
aasg21
S'B'
p256
sbag0
(g10
g2
Ntp257
Rp258
(dp259
g14
S'S'
p260
sg16
(lp261
F2.0594033500000002
asg18
(lp262
(lp263
F1.0
aasg21
S'B'
p264
sbag0
(g10
g2
Ntp265
Rp266
(dp267
g14
S'S'
p268
sg16
(lp269
F0.90115718
asg18
(lp270
(lp271
F1.0
aasg21
S'B'
p272
sbag0
(g10
g2
Ntp273
Rp274
(dp275
g14
S'S'
p276
sg16
(lp277
F0.52455289000000005
asg18
(lp278
(lp279
F1.0
aasg21
S'B'
p280
sbag0
(g10
g2
Ntp281
Rp282
(dp283
g14
S'S'
p284
sg16
(lp285
F0.24634726000000001
asg18
(lp286
(lp287
F1.0
aasg21
S'B'
p288
sbag0
(g10
g2
Ntp289
Rp290
(dp291
g14
S'S'
p292
sg16
(lp293
F0.12085806
asg18
(lp294
(lp295
F1.0
aasg21
S'B'
p296
sbag0
(g10
g2
Ntp297
Rp298
(dp299
g14
S'P'
p300
sg16
(lp301
F229.95115195
asg18
(lp302
(lp303
F1.0
aasg21
S'B'
p304
sbag0
(g10
g2
Ntp305
Rp306
(dp307
g14
S'P'
p308
sg16
(lp309
F36.381694760000002
asg18
(lp310
(lp311
F1.0
aasg21
S'B'
p312
sbag0
(g10
g2
Ntp313
Rp314
(dp315
g14
S'P'
p316
sg16
(lp317
F12.1197967
asg18
(lp318
(lp319
F1.0
aasg21
S'B'
p320
sbag0
(g10
g2
Ntp321
Rp322
(dp323
g14
S'P'
p324
sg16
(lp325
F3.84411294
asg18
(lp326
(lp327
F1.0
aasg21
S'B'
p328
sbag0
(g10
g2
Ntp329
Rp330
(dp331
g14
S'P'
p332
sg16
(lp333
F1.10027612
asg18
(lp334
(lp335
F1.0
aasg21
S'B'
p336
sbag0
(g10
g2
Ntp337
Rp338
(dp339
g14
S'P'
p340
sg16
(lp341
F0.39733118000000001
asg18
(lp342
(lp343
F1.0
aasg21
S'B'
p344
sbag0
(g10
g2
Ntp345
Rp346
(dp347
g14
S'P'
p348
sg16
(lp349
F0.13514765000000001
asg18
(lp350
(lp351
F1.0
aasg21
S'B'
p352
sbag0
(g10
g2
Ntp353
Rp354
(dp355
g14
S'D'
p356
sg16
(lp357
F9.3643373899999993
asg18
(lp358
(lp359
F1.0
aasg21
S'B'
p360
sbag0
(g10
g2
Ntp361
Rp362
(dp363
g14
S'D'
p364
sg16
(lp365
F3.1035658000000002
asg18
(lp366
(lp367
F1.0
aasg21
S'B'
p368
sbag0
(g10
g2
Ntp369
Rp370
(dp371
g14
S'D'
p372
sg16
(lp373
F1.20068351
asg18
(lp374
(lp375
F1.0
aasg21
S'B'
p376
sbag0
(g10
g2
Ntp377
Rp378
(dp379
g14
S'D'
p380
sg16
(lp381
F0.40829625000000003
asg18
(lp382
(lp383
F1.0
aasg21
S'B'
p384
sbag0
(g10
g2
Ntp385
Rp386
(dp387
g14
S'D'
p388
sg16
(lp389
F0.13188304000000001
asg18
(lp390
(lp391
F1.0
aasg21
S'B'
p392
sbag0
(g10
g2
Ntp393
Rp394
(dp395
g14
S'F'
p396
sg16
(lp397
F0.72359123999999997
asg18
(lp398
(lp399
F1.0
aasg21
S'B'
p400
sbag0
(g10
g2
Ntp401
Rp402
(dp403
g14
S'F'
p404
sg16
(lp405
F0.26159124
asg18
(lp406
(lp407
F1.0
aasg21
S'B'
p408
sbag0
(g10
g2
Ntp409
Rp410
(dp411
g14
S'G'
p412
sg16
(lp413
F0.55259124000000004
asg18
(lp414
(lp415
F1.0
aasg21
S'B'
p416
sbasS'F'
p417
(lp418
g0
(g10
g2
Ntp419
Rp420
(dp421
g14
S'S'
p422
sg16
(lp423
F1885.0661216000001
asg18
(lp424
(lp425
F1.0
aasg21
S'F'
p426
sbag0
(g10
g2
Ntp427
Rp428
(dp429
g14
S'S'
p430
sg16
(lp431
F623.75582297000005
asg18
(lp432
(lp433
F1.0
aasg21
S'F'
p434
sbag0
(g10
g2
Ntp435
Rp436
(dp437
g14
S'S'
p438
sg16
(lp439
F227.92405029
asg18
(lp440
(lp441
F1.0
aasg21
S'F'
p442
sbag0
(g10
g2
Ntp443
Rp444
(dp445
g14
S'S'
p446
sg16
(lp447
F82.184178770000003
asg18
(lp448
(lp449
F1.0
aasg21
S'F'
p450
sbag0
(g10
g2
Ntp451
Rp452
(dp453
g14
S'S'
p454
sg16
(lp455
F32.628937579999999
asg18
(lp456
(lp457
F1.0
aasg21
S'F'
p458
sbag0
(g10
g2
Ntp459
Rp460
(dp461
g14
S'S'
p462
sg16
(lp463
F12.78327958
asg18
(lp464
(lp465
F1.0
aasg21
S'F'
p466
sbag0
(g10
g2
Ntp467
Rp468
(dp469
g14
S'S'
p470
sg16
(lp471
F5.6589257899999996
asg18
(lp472
(lp473
F1.0
aasg21
S'F'
p474
sbag0
(g10
g2
Ntp475
Rp476
(dp477
g14
S'S'
p478
sg16
(lp479
F2.3208306699999999
asg18
(lp480
(lp481
F1.0
aasg21
S'F'
p482
sbag0
(g10
g2
Ntp483
Rp484
(dp485
g14
S'S'
p486
sg16
(lp487
F1.01915209
asg18
(lp488
(lp489
F1.0
aasg21
S'F'
p490
sbag0
(g10
g2
Ntp491
Rp492
(dp493
g14
S'S'
p494
sg16
(lp495
F0.42196698999999999
asg18
(lp496
(lp497
F1.0
aasg21
S'F'
p498
sbag0
(g10
g2
Ntp499
Rp500
(dp501
g14
S'P'
p502
sg16
(lp503
F153.72069768
asg18
(lp504
(lp505
F1.0
aasg21
S'F'
p506
sbag0
(g10
g2
Ntp507
Rp508
(dp509
g14
S'P'
p510
sg16
(lp511
F45.390450870000002
asg18
(lp512
(lp513
F1.0
aasg21
S'F'
p514
sbag0
(g10
g2
Ntp515
Rp516
(dp517
g14
S'P'
p518
sg16
(lp519
F16.785845770000002
asg18
(lp520
(lp521
F1.0
aasg21
S'F'
p522
sbag0
(g10
g2
Ntp523
Rp524
(dp525
g14
S'P'
p526
sg16
(lp527
F6.7293857800000003
asg18
(lp528
(lp529
F1.0
aasg21
S'F'
p530
sbag0
(g10
g2
Ntp531
Rp532
(dp533
g14
S'P'
p534
sg16
(lp535
F2.6694607000000001
asg18
(lp536
(lp537
F1.0
aasg21
S'F'
p538
sbag0
(g10
g2
Ntp539
Rp540
(dp541
g14
S'P'
p542
sg16
(lp543
F1.1049787099999999
asg18
(lp544
(lp545
F1.0
aasg21
S'F'
p546
sbag0
(g10
g2
Ntp547
Rp548
(dp549
g14
S'P'
p550
sg16
(lp551
F0.45727704000000002
asg18
(lp552
(lp553
F1.0
aasg21
S'F'
p554
sbag0
(g10
g2
Ntp555
Rp556
(dp557
g14
S'D'
p558
sg16
(lp559
F24.869685350000001
asg18
(lp560
(lp561
F1.0
aasg21
S'F'
p562
sbag0
(g10
g2
Ntp563
Rp564
(dp565
g14
S'D'
p566
sg16
(lp567
F7.5554441600000004
asg18
(lp568
(lp569
F1.0
aasg21
S'F'
p570
sbag0
(g10
g2
Ntp571
Rp572
(dp573
g14
S'D'
p574
sg16
(lp575
F2.8268499199999999
asg18
(lp576
(lp577
F1.0
aasg21
S'F'
p578
sbag0
(g10
g2
Ntp579
Rp580
(dp581
g14
S'D'
p582
sg16
(lp583
F1.11233413
asg18
(lp584
(lp585
F1.0
aasg21
S'F'
p586
sbag0
(g10
g2
Ntp587
Rp588
(dp589
g14
S'D'
p590
sg16
(lp591
F0.43877754000000002
asg18
(lp592
(lp593
F1.0
aasg21
S'F'
p594
sbag0
(g10
g2
Ntp595
Rp596
(dp597
g14
S'F'
p598
sg16
(lp599
F3.3353964
asg18
(lp600
(lp601
F1.0
aasg21
S'F'
p602
sbag0
(g10
g2
Ntp603
Rp604
(dp605
g14
S'F'
p606
sg16
(lp607
F1.0833964
asg18
(lp608
(lp609
F1.0
aasg21
S'F'
p610
sbag0
(g10
g2
Ntp611
Rp612
(dp613
g14
S'G'
p614
sg16
(lp615
F2.1453964000000001
asg18
(lp616
(lp617
F1.0
aasg21
S'F'
p618
sbasS'H'
p619
(lp620
g0
(g10
g2
Ntp621
Rp622
(dp623
g14
S'S'
p624
sg16
(lp625
F9.5302493300000002
asg18
(lp626
(lp627
F1.0
aasg21
S'H'
p628
sbag0
(g10
g2
Ntp629
Rp630
(dp631
g14
S'S'
p632
sg16
(lp633
F1.9174506200000001
asg18
(lp634
(lp635
F1.0
aasg21
S'H'
p636
sbag0
(g10
g2
Ntp637
Rp638
(dp639
g14
S'S'
p640
sg16
(lp641
F0.68424048999999998
asg18
(lp642
(lp643
F1.0
aasg21
S'H'
p644
sbag0
(g10
g2
Ntp645
Rp646
(dp647
g14
S'S'
p648
sg16
(lp649
F0.28413255999999998
asg18
(lp650
(lp651
F1.0
aasg21
S'H'
p652
sbag0
(g10
g2
Ntp653
Rp654
(dp655
g14
S'P'
p656
sg16
(lp657
F2.9133231999999998
asg18
(lp658
(lp659
F1.0
aasg21
S'H'
p660
sbag0
(g10
g2
Ntp661
Rp662
(dp663
g14
S'P'
p664
sg16
(lp665
F1.26212054
asg18
(lp666
(lp667
F1.0
aasg21
S'H'
p668
sbag0
(g10
g2
Ntp669
Rp670
(dp671
g14
S'P'
p672
sg16
(lp673
F0.50199775999999996
asg18
(lp674
(lp675
F1.0
aasg21
S'H'
p676
sbag0
(g10
g2
Ntp677
Rp678
(dp679
g14
S'D'
p680
sg16
(lp681
F2.3135329100000002
asg18
(lp682
(lp683
F1.0
aasg21
S'H'
p684
sbag0
(g10
g2
Ntp685
Rp686
(dp687
g14
S'D'
p688
sg16
(lp689
F0.71290724000000005
asg18
(lp690
(lp691
F1.0
aasg21
S'H'
p692
sbag0
(g10
g2
Ntp693
Rp694
(dp695
g14
S'F'
p696
sg16
(lp697
F1.65657261
asg18
(lp698
(lp699
F1.0
aasg21
S'H'
p700
sbasS'CL'
p701
(lp702
g0
(g10
g2
Ntp703
Rp704
(dp705
g14
S'S'
p706
sg16
(lp707
F7082.7970581
asg18
(lp708
(lp709
F1.0
aasg21
S'CL'
p710
sbag0
(g10
g2
Ntp711
Rp712
(dp713
g14
S'S'
p714
sg16
(lp715
F2109.3095076
asg18
(lp716
(lp717
F1.0
aasg21
S'CL'
p718
sbag0
(g10
g2
Ntp719
Rp720
(dp721
g14
S'S'
p722
sg16
(lp723
F768.41281873000003
asg18
(lp724
(lp725
F1.0
aasg21
S'CL'
p726
sbag0
(g10
g2
Ntp727
Rp728
(dp729
g14
S'S'
p730
sg16
(lp731
F284.79255416000001
asg18
(lp732
(lp733
F1.0
aasg21
S'CL'
p734
sbag0
(g10
g2
Ntp735
Rp736
(dp737
g14
S'S'
p738
sg16
(lp739
F116.55331731
asg18
(lp740
(lp741
F1.0
aasg21
S'CL'
p742
sbag0
(g10
g2
Ntp743
Rp744
(dp745
g14
S'S'
p746
sg16
(lp747
F46.394820989999999
asg18
(lp748
(lp749
F1.0
aasg21
S'CL'
p750
sbag0
(g10
g2
Ntp751
Rp752
(dp753
g14
S'S'
p754
sg16
(lp755
F21.956303389999999
asg18
(lp756
(lp757
F1.0
aasg21
S'CL'
p758
sbag0
(g10
g2
Ntp759
Rp760
(dp761
g14
S'S'
p762
sg16
(lp763
F9.9930272099999993
asg18
(lp764
(lp765
F1.0
aasg21
S'CL'
p766
sbag0
(g10
g2
Ntp767
Rp768
(dp769
g14
S'S'
p770
sg16
(lp771
F4.7199459600000004
asg18
(lp772
(lp773
F1.0
aasg21
S'CL'
p774
sbag0
(g10
g2
Ntp775
Rp776
(dp777
g14
S'S'
p778
sg16
(lp779
F2.6573396200000001
asg18
(lp780
(lp781
F1.0
aasg21
S'CL'
p782
sbag0
(g10
g2
Ntp783
Rp784
(dp785
g14
S'S'
p786
sg16
(lp787
F1.08134811
asg18
(lp788
(lp789
F1.0
aasg21
S'CL'
p790
sbag0
(g10
g2
Ntp791
Rp792
(dp793
g14
S'S'
p794
sg16
(lp795
F0.53154679000000005
asg18
(lp796
(lp797
F1.0
aasg21
S'CL'
p798
sbag0
(g10
g2
Ntp799
Rp800
(dp801
g14
S'S'
p802
sg16
(lp803
F0.23367039000000001
asg18
(lp804
(lp805
F1.0
aasg21
S'CL'
p806
sbag0
(g10
g2
Ntp807
Rp808
(dp809
g14
S'P'
p810
sg16
(lp811
F973.73528509000005
asg18
(lp812
(lp813
F1.0
aasg21
S'CL'
p814
sbag0
(g10
g2
Ntp815
Rp816
(dp817
g14
S'P'
p818
sg16
(lp819
F278.99109347000001
asg18
(lp820
(lp821
F1.0
aasg21
S'CL'
p822
sbag0
(g10
g2
Ntp823
Rp824
(dp825
g14
S'P'
p826
sg16
(lp827
F105.88644515999999
asg18
(lp828
(lp829
F1.0
aasg21
S'CL'
p830
sbag0
(g10
g2
Ntp831
Rp832
(dp833
g14
S'P'
p834
sg16
(lp835
F45.231846879999999
asg18
(lp836
(lp837
F1.0
aasg21
S'CL'
p838
sbag0
(g10
g2
Ntp839
Rp840
(dp841
g14
S'P'
p842
sg16
(lp843
F20.28916615
asg18
(lp844
(lp845
F1.0
aasg21
S'CL'
p846
sbag0
(g10
g2
Ntp847
Rp848
(dp849
g14
S'P'
p850
sg16
(lp851
F9.5829383799999999
asg18
(lp852
(lp853
F1.0
aasg21
S'CL'
p854
sbag0
(g10
g2
Ntp855
Rp856
(dp857
g14
S'P'
p858
sg16
(lp859
F4.4641678599999999
asg18
(lp860
(lp861
F1.0
aasg21
S'CL'
p862
sbag0
(g10
g2
Ntp863
Rp864
(dp865
g14
S'P'
p866
sg16
(lp867
F2.36256121
asg18
(lp868
(lp869
F1.0
aasg21
S'CL'
p870
sbag0
(g10
g2
Ntp871
Rp872
(dp873
g14
S'P'
p874
sg16
(lp875
F1.14919642
asg18
(lp876
(lp877
F1.0
aasg21
S'CL'
p878
sbag0
(g10
g2
Ntp879
Rp880
(dp881
g14
S'P'
p882
sg16
(lp883
F0.60310216999999999
asg18
(lp884
(lp885
F1.0
aasg21
S'CL'
p886
sbag0
(g10
g2
Ntp887
Rp888
(dp889
g14
S'P'
p890
sg16
(lp891
F0.30590910999999998
asg18
(lp892
(lp893
F1.0
aasg21
S'CL'
p894
sbag0
(g10
g2
Ntp895
Rp896
(dp897
g14
S'D'
p898
sg16
(lp899
F204.38030062999999
asg18
(lp900
(lp901
F1.0
aasg21
S'CL'
p902
sbag0
(g10
g2
Ntp903
Rp904
(dp905
g14
S'D'
p906
sg16
(lp907
F63.69389331
asg18
(lp908
(lp909
F1.0
aasg21
S'CL'
p910
sbag0
(g10
g2
Ntp911
Rp912
(dp913
g14
S'D'
p914
sg16
(lp915
F25.726668979999999
asg18
(lp916
(lp917
F1.0
aasg21
S'CL'
p918
sbag0
(g10
g2
Ntp919
Rp920
(dp921
g14
S'D'
p922
sg16
(lp923
F11.60246727
asg18
(lp924
(lp925
F1.0
aasg21
S'CL'
p926
sbag0
(g10
g2
Ntp927
Rp928
(dp929
g14
S'D'
p930
sg16
(lp931
F5.4574541500000002
asg18
(lp932
(lp933
F1.0
aasg21
S'CL'
p934
sbag0
(g10
g2
Ntp935
Rp936
(dp937
g14
S'D'
p938
sg16
(lp939
F2.8838397599999999
asg18
(lp940
(lp941
F1.0
aasg21
S'CL'
p942
sbag0
(g10
g2
Ntp943
Rp944
(dp945
g14
S'D'
p946
sg16
(lp947
F1.33940236
asg18
(lp948
(lp949
F1.0
aasg21
S'CL'
p950
sbag0
(g10
g2
Ntp951
Rp952
(dp953
g14
S'D'
p954
sg16
(lp955
F0.61649222000000004
asg18
(lp956
(lp957
F1.0
aasg21
S'CL'
p958
sbag0
(g10
g2
Ntp959
Rp960
(dp961
g14
S'D'
p962
sg16
(lp963
F0.27470143000000002
asg18
(lp964
(lp965
F1.0
aasg21
S'CL'
p966
sbag0
(g10
g2
Ntp967
Rp968
(dp969
g14
S'F'
p970
sg16
(lp971
F4.2040664000000003
asg18
(lp972
(lp973
F1.0
aasg21
S'CL'
p974
sbag0
(g10
g2
Ntp975
Rp976
(dp977
g14
S'F'
p978
sg16
(lp979
F1.20116183
asg18
(lp980
(lp981
F1.0
aasg21
S'CL'
p982
sbag0
(g10
g2
Ntp983
Rp984
(dp985
g14
S'F'
p986
sg16
(lp987
F0.49916182999999997
asg18
(lp988
(lp989
F1.0
aasg21
S'CL'
p990
sbag0
(g10
g2
Ntp991
Rp992
(dp993
g14
S'G'
p994
sg16
(lp995
F0.86116183000000002
asg18
(lp996
(lp997
F1.0
aasg21
S'CL'
p998
sbasS'NE'
p999
(lp1000
sS'O'
p1001
(lp1002
g0
(g10
g2
Ntp1003
Rp1004
(dp1005
g14
S'S'
p1006
sg16
(lp1007
F1517.8667505999999
asg18
(lp1008
(lp1009
F1.0
aasg21
S'O'
p1010
sbag0
(g10
g2
Ntp1011
Rp1012
(dp1013
g14
S'S'
p1014
sg16
(lp1015
F489.67952007999997
asg18
(lp1016
(lp1017
F1.0
aasg21
S'O'
p1018
sbag0
(g10
g2
Ntp1019
Rp1020
(dp1021
g14
S'S'
p1022
sg16
(lp1023
F176.72118664999999
asg18
(lp1024
(lp1025
F1.0
aasg21
S'O'
p1026
sbag0
(g10
g2
Ntp1027
Rp1028
(dp1029
g14
S'S'
p1030
sg16
(lp1031
F63.79223314
asg18
(lp1032
(lp1033
F1.0
aasg21
S'O'
p1034
sbag0
(g10
g2
Ntp1035
Rp1036
(dp1037
g14
S'S'
p1038
sg16
(lp1039
F25.366499130000001
asg18
(lp1040
(lp1041
F1.0
aasg21
S'O'
p1042
sbag0
(g10
g2
Ntp1043
Rp1044
(dp1045
g14
S'S'
p1046
sg16
(lp1047
F9.9135491200000008
asg18
(lp1048
(lp1049
F1.0
aasg21
S'O'
p1050
sbag0
(g10
g2
Ntp1051
Rp1052
(dp1053
g14
S'S'
p1054
sg16
(lp1055
F4.4645306600000003
asg18
(lp1056
(lp1057
F1.0
aasg21
S'O'
p1058
sbag0
(g10
g2
Ntp1059
Rp1060
(dp1061
g14
S'S'
p1062
sg16
(lp1063
F1.80177437
asg18
(lp1064
(lp1065
F1.0
aasg21
S'O'
p1066
sbag0
(g10
g2
Ntp1067
Rp1068
(dp1069
g14
S'S'
p1070
sg16
(lp1071
F0.80789710999999997
asg18
(lp1072
(lp1073
F1.0
aasg21
S'O'
p1074
sbag0
(g10
g2
Ntp1075
Rp1076
(dp1077
g14
S'S'
p1078
sg16
(lp1079
F0.33864327
asg18
(lp1080
(lp1081
F1.0
aasg21
S'O'
p1082
sbag0
(g10
g2
Ntp1083
Rp1084
(dp1085
g14
S'P'
p1086
sg16
(lp1087
F120.16030920999999
asg18
(lp1088
(lp1089
F1.0
aasg21
S'O'
p1090
sbag0
(g10
g2
Ntp1091
Rp1092
(dp1093
g14
S'P'
p1094
sg16
(lp1095
F34.409622470000002
asg18
(lp1096
(lp1097
F1.0
aasg21
S'O'
p1098
sbag0
(g10
g2
Ntp1099
Rp1100
(dp1101
g14
S'P'
p1102
sg16
(lp1103
F12.58114861
asg18
(lp1104
(lp1105
F1.0
aasg21
S'O'
p1106
sbag0
(g10
g2
Ntp1107
Rp1108
(dp1109
g14
S'P'
p1110
sg16
(lp1111
F5.0663824200000001
asg18
(lp1112
(lp1113
F1.0
aasg21
S'O'
p1114
sbag0
(g10
g2
Ntp1115
Rp1116
(dp1117
g14
S'P'
p1118
sg16
(lp1119
F2.0346927099999998
asg18
(lp1120
(lp1121
F1.0
aasg21
S'O'
p1122
sbag0
(g10
g2
Ntp1123
Rp1124
(dp1125
g14
S'P'
p1126
sg16
(lp1127
F0.86092966999999998
asg18
(lp1128
(lp1129
F1.0
aasg21
S'O'
p1130
sbag0
(g10
g2
Ntp1131
Rp1132
(dp1133
g14
S'P'
p1134
sg16
(lp1135
F0.36681356999999998
asg18
(lp1136
(lp1137
F1.0
aasg21
S'O'
p1138
sbag0
(g10
g2
Ntp1139
Rp1140
(dp1141
g14
S'D'
p1142
sg16
(lp1143
F19.043062809999999
asg18
(lp1144
(lp1145
F1.0
aasg21
S'O'
p1146
sbag0
(g10
g2
Ntp1147
Rp1148
(dp1149
g14
S'D'
p1150
sg16
(lp1151
F5.8060381100000003
asg18
(lp1152
(lp1153
F1.0
aasg21
S'O'
p1154
sbag0
(g10
g2
Ntp1155
Rp1156
(dp1157
g14
S'D'
p1158
sg16
(lp1159
F2.1891841599999999
asg18
(lp1160
(lp1161
F1.0
aasg21
S'O'
p1162
sbag0
(g10
g2
Ntp1163
Rp1164
(dp1165
g14
S'D'
p1166
sg16
(lp1167
F0.87794614000000004
asg18
(lp1168
(lp1169
F1.0
aasg21
S'O'
p1170
sbag0
(g10
g2
Ntp1171
Rp1172
(dp1173
g14
S'D'
p1174
sg16
(lp1175
F0.35623647000000003
asg18
(lp1176
(lp1177
F1.0
aasg21
S'O'
p1178
sbag0
(g10
g2
Ntp1179
Rp1180
(dp1181
g14
S'F'
p1182
sg16
(lp1183
F2.4939147899999998
asg18
(lp1184
(lp1185
F1.0
aasg21
S'O'
p1186
sbag0
(g10
g2
Ntp1187
Rp1188
(dp1189
g14
S'F'
p1190
sg16
(lp1191
F0.82491479000000001
asg18
(lp1192
(lp1193
F1.0
aasg21
S'O'
p1194
sbag0
(g10
g2
Ntp1195
Rp1196
(dp1197
g14
S'G'
p1198
sg16
(lp1199
F1.6079147899999999
asg18
(lp1200
(lp1201
F1.0
aasg21
S'O'
p1202
sbasS'N'
p1203
(lp1204
g0
(g10
g2
Ntp1205
Rp1206
(dp1207
g14
S'S'
p1208
sg16
(lp1209
F1102.8622453
asg18
(lp1210
(lp1211
F1.0
aasg21
S'N'
p1212
sbag0
(g10
g2
Ntp1213
Rp1214
(dp1215
g14
S'S'
p1216
sg16
(lp1217
F370.98041153000003
asg18
(lp1218
(lp1219
F1.0
aasg21
S'N'
p1220
sbag0
(g10
g2
Ntp1221
Rp1222
(dp1223
g14
S'S'
p1224
sg16
(lp1225
F136.73555938000001
asg18
(lp1226
(lp1227
F1.0
aasg21
S'N'
p1228
sbag0
(g10
g2
Ntp1229
Rp1230
(dp1231
g14
S'S'
p1232
sg16
(lp1233
F50.755871919999997
asg18
(lp1234
(lp1235
F1.0
aasg21
S'N'
p1236
sbag0
(g10
g2
Ntp1237
Rp1238
(dp1239
g14
S'S'
p1240
sg16
(lp1241
F20.535656100000001
asg18
(lp1242
(lp1243
F1.0
aasg21
S'N'
p1244
sbag0
(g10
g2
Ntp1245
Rp1246
(dp1247
g14
S'S'
p1248
sg16
(lp1249
F7.8318737199999999
asg18
(lp1250
(lp1251
F1.0
aasg21
S'N'
p1252
sbag0
(g10
g2
Ntp1253
Rp1254
(dp1255
g14
S'S'
p1256
sg16
(lp1257
F3.47840639
asg18
(lp1258
(lp1259
F1.0
aasg21
S'N'
p1260
sbag0
(g10
g2
Ntp1261
Rp1262
(dp1263
g14
S'S'
p1264
sg16
(lp1265
F1.4552856599999999
asg18
(lp1266
(lp1267
F1.0
aasg21
S'N'
p1268
sbag0
(g10
g2
Ntp1269
Rp1270
(dp1271
g14
S'S'
p1272
sg16
(lp1273
F0.63068988999999998
asg18
(lp1274
(lp1275
F1.0
aasg21
S'N'
p1276
sbag0
(g10
g2
Ntp1277
Rp1278
(dp1279
g14
S'S'
p1280
sg16
(lp1281
F0.27276595999999997
asg18
(lp1282
(lp1283
F1.0
aasg21
S'N'
p1284
sbag0
(g10
g2
Ntp1285
Rp1286
(dp1287
g14
S'P'
p1288
sg16
(lp1289
F93.540954069999998
asg18
(lp1290
(lp1291
F1.0
aasg21
S'N'
p1292
sbag0
(g10
g2
Ntp1293
Rp1294
(dp1295
g14
S'P'
p1296
sg16
(lp1297
F29.52401953
asg18
(lp1298
(lp1299
F1.0
aasg21
S'N'
p1300
sbag0
(g10
g2
Ntp1301
Rp1302
(dp1303
g14
S'P'
p1304
sg16
(lp1305
F10.917502989999999
asg18
(lp1306
(lp1307
F1.0
aasg21
S'N'
p1308
sbag0
(g10
g2
Ntp1309
Rp1310
(dp1311
g14
S'P'
p1312
sg16
(lp1313
F4.3449289000000002
asg18
(lp1314
(lp1315
F1.0
aasg21
S'N'
p1316
sbag0
(g10
g2
Ntp1317
Rp1318
(dp1319
g14
S'P'
p1320
sg16
(lp1321
F1.8216912599999999
asg18
(lp1322
(lp1323
F1.0
aasg21
S'N'
p1324
sbag0
(g10
g2
Ntp1325
Rp1326
(dp1327
g14
S'P'
p1328
sg16
(lp1329
F0.75792424000000003
asg18
(lp1330
(lp1331
F1.0
aasg21
S'N'
p1332
sbag0
(g10
g2
Ntp1333
Rp1334
(dp1335
g14
S'P'
p1336
sg16
(lp1337
F0.28241469000000002
asg18
(lp1338
(lp1339
F1.0
aasg21
S'N'
p1340
sbag0
(g10
g2
Ntp1341
Rp1342
(dp1343
g14
S'D'
p1344
sg16
(lp1345
F16.419378930000001
asg18
(lp1346
(lp1347
F1.0
aasg21
S'N'
p1348
sbag0
(g10
g2
Ntp1349
Rp1350
(dp1351
g14
S'D'
p1352
sg16
(lp1353
F5.0104049399999999
asg18
(lp1354
(lp1355
F1.0
aasg21
S'N'
p1356
sbag0
(g10
g2
Ntp1357
Rp1358
(dp1359
g14
S'D'
p1360
sg16
(lp1361
F1.97939719
asg18
(lp1362
(lp1363
F1.0
aasg21
S'N'
p1364
sbag0
(g10
g2
Ntp1365
Rp1366
(dp1367
g14
S'D'
p1368
sg16
(lp1369
F0.78495771999999997
asg18
(lp1370
(lp1371
F1.0
aasg21
S'N'
p1372
sbag0
(g10
g2
Ntp1373
Rp1374
(dp1375
g14
S'D'
p1376
sg16
(lp1377
F0.28954066000000001
asg18
(lp1378
(lp1379
F1.0
aasg21
S'N'
p1380
sbag0
(g10
g2
Ntp1381
Rp1382
(dp1383
g14
S'F'
p1384
sg16
(lp1385
F1.7935424
asg18
(lp1386
(lp1387
F1.0
aasg21
S'N'
p1388
sbag0
(g10
g2
Ntp1389
Rp1390
(dp1391
g14
S'F'
p1392
sg16
(lp1393
F0.60854240000000004
asg18
(lp1394
(lp1395
F1.0
aasg21
S'N'
p1396
sbag0
(g10
g2
Ntp1397
Rp1398
(dp1399
g14
S'G'
p1400
sg16
(lp1401
F1.2325424
asg18
(lp1402
(lp1403
F1.0
aasg21
S'N'
p1404
sbasS'P'
p1405
(lp1406
g0
(g10
g2
Ntp1407
Rp1408
(dp1409
g14
S'S'
p1410
sg16
(lp1411
F5107.3657112999999
asg18
(lp1412
(lp1413
F1.0
aasg21
S'P'
p1414
sbag0
(g10
g2
Ntp1415
Rp1416
(dp1417
g14
S'S'
p1418
sg16
(lp1419
F1086.7632676000001
asg18
(lp1420
(lp1421
F1.0
aasg21
S'P'
p1422
sbag0
(g10
g2
Ntp1423
Rp1424
(dp1425
g14
S'S'
p1426
sg16
(lp1427
F350.63674042999997
asg18
(lp1428
(lp1429
F1.0
aasg21
S'P'
p1430
sbag0
(g10
g2
Ntp1431
Rp1432
(dp1433
g14
S'S'
p1434
sg16
(lp1435
F136.65708749999999
asg18
(lp1436
(lp1437
F1.0
aasg21
S'P'
p1438
sbag0
(g10
g2
Ntp1439
Rp1440
(dp1441
g14
S'S'
p1442
sg16
(lp1443
F58.99220854
asg18
(lp1444
(lp1445
F1.0
aasg21
S'P'
p1446
sbag0
(g10
g2
Ntp1447
Rp1448
(dp1449
g14
S'S'
p1450
sg16
(lp1451
F25.652124180000001
asg18
(lp1452
(lp1453
F1.0
aasg21
S'P'
p1454
sbag0
(g10
g2
Ntp1455
Rp1456
(dp1457
g14
S'S'
p1458
sg16
(lp1459
F9.8584341799999997
asg18
(lp1460
(lp1461
F1.0
aasg21
S'P'
p1462
sbag0
(g10
g2
Ntp1463
Rp1464
(dp1465
g14
S'S'
p1466
sg16
(lp1467
F4.6827641199999999
asg18
(lp1468
(lp1469
F1.0
aasg21
S'P'
p1470
sbag0
(g10
g2
Ntp1471
Rp1472
(dp1473
g14
S'S'
p1474
sg16
(lp1475
F1.9275606999999999
asg18
(lp1476
(lp1477
F1.0
aasg21
S'P'
p1478
sbag0
(g10
g2
Ntp1479
Rp1480
(dp1481
g14
S'S'
p1482
sg16
(lp1483
F1.0059954099999999
asg18
(lp1484
(lp1485
F1.0
aasg21
S'P'
p1486
sbag0
(g10
g2
Ntp1487
Rp1488
(dp1489
g14
S'S'
p1490
sg16
(lp1491
F0.58812472999999998
asg18
(lp1492
(lp1493
F1.0
aasg21
S'P'
p1494
sbag0
(g10
g2
Ntp1495
Rp1496
(dp1497
g14
S'S'
p1498
sg16
(lp1499
F0.34131983999999999
asg18
(lp1500
(lp1501
F1.0
aasg21
S'P'
p1502
sbag0
(g10
g2
Ntp1503
Rp1504
(dp1505
g14
S'S'
p1506
sg16
(lp1507
F0.18002999
asg18
(lp1508
(lp1509
F1.0
aasg21
S'P'
p1510
sbag0
(g10
g2
Ntp1511
Rp1512
(dp1513
g14
S'P'
p1514
sg16
(lp1515
F575.56255465000004
asg18
(lp1516
(lp1517
F1.0
aasg21
S'P'
p1518
sbag0
(g10
g2
Ntp1519
Rp1520
(dp1521
g14
S'P'
p1522
sg16
(lp1523
F162.6403613
asg18
(lp1524
(lp1525
F1.0
aasg21
S'P'
p1526
sbag0
(g10
g2
Ntp1527
Rp1528
(dp1529
g14
S'P'
p1530
sg16
(lp1531
F62.433891600000003
asg18
(lp1532
(lp1533
F1.0
aasg21
S'P'
p1534
sbag0
(g10
g2
Ntp1535
Rp1536
(dp1537
g14
S'P'
p1538
sg16
(lp1539
F26.387393490000001
asg18
(lp1540
(lp1541
F1.0
aasg21
S'P'
p1542
sbag0
(g10
g2
Ntp1543
Rp1544
(dp1545
g14
S'P'
p1546
sg16
(lp1547
F13.077885119999999
asg18
(lp1548
(lp1549
F1.0
aasg21
S'P'
p1550
sbag0
(g10
g2
Ntp1551
Rp1552
(dp1553
g14
S'P'
p1554
sg16
(lp1555
F6.2324334300000004
asg18
(lp1556
(lp1557
F1.0
aasg21
S'P'
p1558
sbag0
(g10
g2
Ntp1559
Rp1560
(dp1561
g14
S'P'
p1562
sg16
(lp1563
F2.6964172
asg18
(lp1564
(lp1565
F1.0
aasg21
S'P'
p1566
sbag0
(g10
g2
Ntp1567
Rp1568
(dp1569
g14
S'P'
p1570
sg16
(lp1571
F1.59422189
asg18
(lp1572
(lp1573
F1.0
aasg21
S'P'
p1574
sbag0
(g10
g2
Ntp1575
Rp1576
(dp1577
g14
S'P'
p1578
sg16
(lp1579
F0.88999472999999996
asg18
(lp1580
(lp1581
F1.0
aasg21
S'P'
p1582
sbag0
(g10
g2
Ntp1583
Rp1584
(dp1585
g14
S'P'
p1586
sg16
(lp1587
F0.48955079000000001
asg18
(lp1588
(lp1589
F1.0
aasg21
S'P'
p1590
sbag0
(g10
g2
Ntp1591
Rp1592
(dp1593
g14
S'P'
p1594
sg16
(lp1595
F0.23083290000000001
asg18
(lp1596
(lp1597
F1.0
aasg21
S'P'
p1598
sbag0
(g10
g2
Ntp1599
Rp1600
(dp1601
g14
S'D'
p1602
sg16
(lp1603
F202.19451071
asg18
(lp1604
(lp1605
F1.0
aasg21
S'P'
p1606
sbag0
(g10
g2
Ntp1607
Rp1608
(dp1609
g14
S'D'
p1610
sg16
(lp1611
F60.141584369999997
asg18
(lp1612
(lp1613
F1.0
aasg21
S'P'
p1614
sbag0
(g10
g2
Ntp1615
Rp1616
(dp1617
g14
S'D'
p1618
sg16
(lp1619
F24.116762869999999
asg18
(lp1620
(lp1621
F1.0
aasg21
S'P'
p1622
sbag0
(g10
g2
Ntp1623
Rp1624
(dp1625
g14
S'D'
p1626
sg16
(lp1627
F11.02958626
asg18
(lp1628
(lp1629
F1.0
aasg21
S'P'
p1630
sbag0
(g10
g2
Ntp1631
Rp1632
(dp1633
g14
S'D'
p1634
sg16
(lp1635
F5.3635229000000004
asg18
(lp1636
(lp1637
F1.0
aasg21
S'P'
p1638
sbag0
(g10
g2
Ntp1639
Rp1640
(dp1641
g14
S'D'
p1642
sg16
(lp1643
F2.6589552200000002
asg18
(lp1644
(lp1645
F1.0
aasg21
S'P'
p1646
sbag0
(g10
g2
Ntp1647
Rp1648
(dp1649
g14
S'D'
p1650
sg16
(lp1651
F1.1768422300000001
asg18
(lp1652
(lp1653
F1.0
aasg21
S'P'
p1654
sbag0
(g10
g2
Ntp1655
Rp1656
(dp1657
g14
S'D'
p1658
sg16
(lp1659
F0.49537300000000001
asg18
(lp1660
(lp1661
F1.0
aasg21
S'P'
p1662
sbag0
(g10
g2
Ntp1663
Rp1664
(dp1665
g14
S'D'
p1666
sg16
(lp1667
F0.21042978000000001
asg18
(lp1668
(lp1669
F1.0
aasg21
S'P'
p1670
sbag0
(g10
g2
Ntp1671
Rp1672
(dp1673
g14
S'F'
p1674
sg16
(lp1675
F2.6399317600000001
asg18
(lp1676
(lp1677
F1.0
aasg21
S'P'
p1678
sbag0
(g10
g2
Ntp1679
Rp1680
(dp1681
g14
S'F'
p1682
sg16
(lp1683
F0.31826621999999999
asg18
(lp1684
(lp1685
F1.0
aasg21
S'P'
p1686
sbag0
(g10
g2
Ntp1687
Rp1688
(dp1689
g14
S'F'
p1690
sg16
(lp1691
F0.75426621999999999
asg18
(lp1692
(lp1693
F1.0
aasg21
S'P'
p1694
sbag0
(g10
g2
Ntp1695
Rp1696
(dp1697
g14
S'G'
p1698
sg16
(lp1699
F0.55426622000000003
asg18
(lp1700
(lp1701
F1.0
aasg21
S'P'
p1702
sbasS'S'
p1703
(lp1704
g0
(g10
g2
Ntp1705
Rp1706
(dp1707
g14
S'S'
p1708
sg16
(lp1709
F6402.4580815999998
asg18
(lp1710
(lp1711
F1.0
aasg21
S'S'
p1712
sbag0
(g10
g2
Ntp1713
Rp1714
(dp1715
g14
S'S'
p1716
sg16
(lp1717
F1704.9249408000001
asg18
(lp1718
(lp1719
F1.0
aasg21
S'S'
p1720
sbag0
(g10
g2
Ntp1721
Rp1722
(dp1723
g14
S'S'
p1724
sg16
(lp1725
F598.09038903999999
asg18
(lp1726
(lp1727
F1.0
aasg21
S'S'
p1728
sbag0
(g10
g2
Ntp1729
Rp1730
(dp1731
g14
S'S'
p1732
sg16
(lp1733
F225.90920363999999
asg18
(lp1734
(lp1735
F1.0
aasg21
S'S'
p1736
sbag0
(g10
g2
Ntp1737
Rp1738
(dp1739
g14
S'S'
p1740
sg16
(lp1741
F94.426261909999994
asg18
(lp1742
(lp1743
F1.0
aasg21
S'S'
p1744
sbag0
(g10
g2
Ntp1745
Rp1746
(dp1747
g14
S'S'
p1748
sg16
(lp1749
F37.222420839999998
asg18
(lp1750
(lp1751
F1.0
aasg21
S'S'
p1752
sbag0
(g10
g2
Ntp1753
Rp1754
(dp1755
g14
S'S'
p1756
sg16
(lp1757
F18.25910653
asg18
(lp1758
(lp1759
F1.0
aasg21
S'S'
p1760
sbag0
(g10
g2
Ntp1761
Rp1762
(dp1763
g14
S'S'
p1764
sg16
(lp1765
F8.7937857299999997
asg18
(lp1766
(lp1767
F1.0
aasg21
S'S'
p1768
sbag0
(g10
g2
Ntp1769
Rp1770
(dp1771
g14
S'S'
p1772
sg16
(lp1773
F4.4619424700000003
asg18
(lp1774
(lp1775
F1.0
aasg21
S'S'
p1776
sbag0
(g10
g2
Ntp1777
Rp1778
(dp1779
g14
S'S'
p1780
sg16
(lp1781
F2.27359877
asg18
(lp1782
(lp1783
F1.0
aasg21
S'S'
p1784
sbag0
(g10
g2
Ntp1785
Rp1786
(dp1787
g14
S'S'
p1788
sg16
(lp1789
F0.78075395000000003
asg18
(lp1790
(lp1791
F1.0
aasg21
S'S'
p1792
sbag0
(g10
g2
Ntp1793
Rp1794
(dp1795
g14
S'S'
p1796
sg16
(lp1797
F0.48191154000000003
asg18
(lp1798
(lp1799
F1.0
aasg21
S'S'
p1800
sbag0
(g10
g2
Ntp1801
Rp1802
(dp1803
g14
S'S'
p1804
sg16
(lp1805
F0.21573555
asg18
(lp1806
(lp1807
F1.0
aasg21
S'S'
p1808
sbag0
(g10
g2
Ntp1809
Rp1810
(dp1811
g14
S'P'
p1812
sg16
(lp1813
F796.16481618
asg18
(lp1814
(lp1815
F1.0
aasg21
S'S'
p1816
sbag0
(g10
g2
Ntp1817
Rp1818
(dp1819
g14
S'P'
p1820
sg16
(lp1821
F226.17928266000001
asg18
(lp1822
(lp1823
F1.0
aasg21
S'S'
p1824
sbag0
(g10
g2
Ntp1825
Rp1826
(dp1827
g14
S'P'
p1828
sg16
(lp1829
F85.598645759999997
asg18
(lp1830
(lp1831
F1.0
aasg21
S'S'
p1832
sbag0
(g10
g2
Ntp1833
Rp1834
(dp1835
g14
S'P'
p1836
sg16
(lp1837
F36.26897838
asg18
(lp1838
(lp1839
F1.0
aasg21
S'S'
p1840
sbag0
(g10
g2
Ntp1841
Rp1842
(dp1843
g14
S'P'
p1844
sg16
(lp1845
F16.325206999999999
asg18
(lp1846
(lp1847
F1.0
aasg21
S'S'
p1848
sbag0
(g10
g2
Ntp1849
Rp1850
(dp1851
g14
S'P'
p1852
sg16
(lp1853
F7.6145421600000001
asg18
(lp1854
(lp1855
F1.0
aasg21
S'S'
p1856
sbag0
(g10
g2
Ntp1857
Rp1858
(dp1859
g14
S'P'
p1860
sg16
(lp1861
F3.338813
asg18
(lp1862
(lp1863
F1.0
aasg21
S'S'
p1864
sbag0
(g10
g2
Ntp1865
Rp1866
(dp1867
g14
S'P'
p1868
sg16
(lp1869
F1.86652215
asg18
(lp1870
(lp1871
F1.0
aasg21
S'S'
p1872
sbag0
(g10
g2
Ntp1873
Rp1874
(dp1875
g14
S'P'
p1876
sg16
(lp1877
F0.94025159999999997
asg18
(lp1878
(lp1879
F1.0
aasg21
S'S'
p1880
sbag0
(g10
g2
Ntp1881
Rp1882
(dp1883
g14
S'P'
p1884
sg16
(lp1885
F0.51521256000000004
asg18
(lp1886
(lp1887
F1.0
aasg21
S'S'
p1888
sbag0
(g10
g2
Ntp1889
Rp1890
(dp1891
g14
S'P'
p1892
sg16
(lp1893
F0.26318380000000002
asg18
(lp1894
(lp1895
F1.0
aasg21
S'S'
p1896
sbag0
(g10
g2
Ntp1897
Rp1898
(dp1899
g14
S'D'
p1900
sg16
(lp1901
F190.55658672000001
asg18
(lp1902
(lp1903
F1.0
aasg21
S'S'
p1904
sbag0
(g10
g2
Ntp1905
Rp1906
(dp1907
g14
S'D'
p1908
sg16
(lp1909
F60.346801429999999
asg18
(lp1910
(lp1911
F1.0
aasg21
S'S'
p1912
sbag0
(g10
g2
Ntp1913
Rp1914
(dp1915
g14
S'D'
p1916
sg16
(lp1917
F25.141967059999999
asg18
(lp1918
(lp1919
F1.0
aasg21
S'S'
p1920
sbag0
(g10
g2
Ntp1921
Rp1922
(dp1923
g14
S'D'
p1924
sg16
(lp1925
F12.1467682
asg18
(lp1926
(lp1927
F1.0
aasg21
S'S'
p1928
sbag0
(g10
g2
Ntp1929
Rp1930
(dp1931
g14
S'D'
p1932
sg16
(lp1933
F6.2993488099999997
asg18
(lp1934
(lp1935
F1.0
aasg21
S'S'
p1936
sbag0
(g10
g2
Ntp1937
Rp1938
(dp1939
g14
S'D'
p1940
sg16
(lp1941
F3.0706106700000002
asg18
(lp1942
(lp1943
F1.0
aasg21
S'S'
p1944
sbag0
(g10
g2
Ntp1945
Rp1946
(dp1947
g14
S'D'
p1948
sg16
(lp1949
F1.2911977800000001
asg18
(lp1950
(lp1951
F1.0
aasg21
S'S'
p1952
sbag0
(g10
g2
Ntp1953
Rp1954
(dp1955
g14
S'D'
p1956
sg16
(lp1957
F0.56678603000000005
asg18
(lp1958
(lp1959
F1.0
aasg21
S'S'
p1960
sbag0
(g10
g2
Ntp1961
Rp1962
(dp1963
g14
S'D'
p1964
sg16
(lp1965
F0.24192419000000001
asg18
(lp1966
(lp1967
F1.0
aasg21
S'S'
p1968
sbag0
(g10
g2
Ntp1969
Rp1970
(dp1971
g14
S'F'
p1972
sg16
(lp1973
F3.3096133000000001
asg18
(lp1974
(lp1975
F1.0
aasg21
S'S'
p1976
sbag0
(g10
g2
Ntp1977
Rp1978
(dp1979
g14
S'F'
p1980
sg16
(lp1981
F0.39560380000000001
asg18
(lp1982
(lp1983
F1.0
aasg21
S'S'
p1984
sbag0
(g10
g2
Ntp1985
Rp1986
(dp1987
g14
S'F'
p1988
sg16
(lp1989
F0.94560379999999999
asg18
(lp1990
(lp1991
F1.0
aasg21
S'S'
p1992
sbag0
(g10
g2
Ntp1993
Rp1994
(dp1995
g14
S'G'
p1996
sg16
(lp1997
F0.68360379999999998
asg18
(lp1998
(lp1999
F1.0
aasg21
S'S'
p2000
sbag0
(g10
g2
Ntp2001
Rp2002
(dp2003
g14
S'S'
p2004
sg16
(lp2005
F29056.449629999999
asg18
(lp2006
(lp2007
F1.0
aasg21
S'S'
p2008
sbag0
(g10
g2
Ntp2009
Rp2010
(dp2011
g14
S'S'
p2012
sg16
(lp2013
F7789.3929019999996
asg18
(lp2014
(lp2015
F1.0
aasg21
S'S'
p2016
sbag0
(g10
g2
Ntp2017
Rp2018
(dp2019
g14
S'S'
p2020
sg16
(lp2021
F3115.0226965000002
asg18
(lp2022
(lp2023
F1.0
aasg21
S'S'
p2024
sbag0
(g10
g2
Ntp2025
Rp2026
(dp2027
g14
S'S'
p2028
sg16
(lp2029
F1219.4815189999999
asg18
(lp2030
(lp2031
F1.0
aasg21
S'S'
p2032
sbag0
(g10
g2
Ntp2033
Rp2034
(dp2035
g14
S'S'
p2036
sg16
(lp2037
F499.45157938
asg18
(lp2038
(lp2039
F1.0
aasg21
S'S'
p2040
sbag0
(g10
g2
Ntp2041
Rp2042
(dp2043
g14
S'S'
p2044
sg16
(lp2045
F198.66199714000001
asg18
(lp2046
(lp2047
F1.0
aasg21
S'S'
p2048
sbag0
(g10
g2
Ntp2049
Rp2050
(dp2051
g14
S'S'
p2052
sg16
(lp2053
F91.470410450000003
asg18
(lp2054
(lp2055
F1.0
aasg21
S'S'
p2056
sbag0
(g10
g2
Ntp2057
Rp2058
(dp2059
g14
S'S'
p2060
sg16
(lp2061
F45.410963459999998
asg18
(lp2062
(lp2063
F1.0
aasg21
S'S'
p2064
sbag0
(g10
g2
Ntp2065
Rp2066
(dp2067
g14
S'S'
p2068
sg16
(lp2069
F21.655233890000002
asg18
(lp2070
(lp2071
F1.0
aasg21
S'S'
p2072
sbag0
(g10
g2
Ntp2073
Rp2074
(dp2075
g14
S'S'
p2076
sg16
(lp2077
F12.268480569999999
asg18
(lp2078
(lp2079
F1.0
aasg21
S'S'
p2080
sbag0
(g10
g2
Ntp2081
Rp2082
(dp2083
g14
S'S'
p2084
sg16
(lp2085
F5.3458507600000003
asg18
(lp2086
(lp2087
F1.0
aasg21
S'S'
p2088
sbag0
(g10
g2
Ntp2089
Rp2090
(dp2091
g14
S'S'
p2092
sg16
(lp2093
F2.5087512900000002
asg18
(lp2094
(lp2095
F1.0
aasg21
S'S'
p2096
sbag0
(g10
g2
Ntp2097
Rp2098
(dp2099
g14
S'S'
p2100
sg16
(lp2101
F1.2426796499999999
asg18
(lp2102
(lp2103
F1.0
aasg21
S'S'
p2104
sbag0
(g10
g2
Ntp2105
Rp2106
(dp2107
g14
S'S'
p2108
sg16
(lp2109
F0.69509887999999997
asg18
(lp2110
(lp2111
F1.0
aasg21
S'S'
p2112
sbag0
(g10
g2
Ntp2113
Rp2114
(dp2115
g14
S'S'
p2116
sg16
(lp2117
F0.33790126999999998
asg18
(lp2118
(lp2119
F1.0
aasg21
S'S'
p2120
sbag0
(g10
g2
Ntp2121
Rp2122
(dp2123
g14
S'S'
p2124
sg16
(lp2125
F0.15326174000000001
asg18
(lp2126
(lp2127
F1.0
aasg21
S'S'
p2128
sbag0
(g10
g2
Ntp2129
Rp2130
(dp2131
g14
S'P'
p2132
sg16
(lp2133
F4192.9053911000001
asg18
(lp2134
(lp2135
F1.0
aasg21
S'S'
p2136
sbag0
(g10
g2
Ntp2137
Rp2138
(dp2139
g14
S'P'
p2140
sg16
(lp2141
F1307.4981236000001
asg18
(lp2142
(lp2143
F1.0
aasg21
S'S'
p2144
sbag0
(g10
g2
Ntp2145
Rp2146
(dp2147
g14
S'P'
p2148
sg16
(lp2149
F530.51279605000002
asg18
(lp2150
(lp2151
F1.0
aasg21
S'S'
p2152
sbag0
(g10
g2
Ntp2153
Rp2154
(dp2155
g14
S'P'
p2156
sg16
(lp2157
F234.91478017
asg18
(lp2158
(lp2159
F1.0
aasg21
S'S'
p2160
sbag0
(g10
g2
Ntp2161
Rp2162
(dp2163
g14
S'P'
p2164
sg16
(lp2165
F102.88158977000001
asg18
(lp2166
(lp2167
F1.0
aasg21
S'S'
p2168
sbag0
(g10
g2
Ntp2169
Rp2170
(dp2171
g14
S'P'
p2172
sg16
(lp2173
F51.931837629999997
asg18
(lp2174
(lp2175
F1.0
aasg21
S'S'
p2176
sbag0
(g10
g2
Ntp2177
Rp2178
(dp2179
g14
S'P'
p2180
sg16
(lp2181
F27.089778549999998
asg18
(lp2182
(lp2183
F1.0
aasg21
S'S'
p2184
sbag0
(g10
g2
Ntp2185
Rp2186
(dp2187
g14
S'P'
p2188
sg16
(lp2189
F13.91551417
asg18
(lp2190
(lp2191
F1.0
aasg21
S'S'
p2192
sbag0
(g10
g2
Ntp2193
Rp2194
(dp2195
g14
S'P'
p2196
sg16
(lp2197
F7.0649308399999997
asg18
(lp2198
(lp2199
F1.0
aasg21
S'S'
p2200
sbag0
(g10
g2
Ntp2201
Rp2202
(dp2203
g14
S'P'
p2204
sg16
(lp2205
F3.6229296799999999
asg18
(lp2206
(lp2207
F1.0
aasg21
S'S'
p2208
sbag0
(g10
g2
Ntp2209
Rp2210
(dp2211
g14
S'P'
p2212
sg16
(lp2213
F1.8016657599999999
asg18
(lp2214
(lp2215
F1.0
aasg21
S'S'
p2216
sbag0
(g10
g2
Ntp2217
Rp2218
(dp2219
g14
S'P'
p2220
sg16
(lp2221
F0.71178911
asg18
(lp2222
(lp2223
F1.0
aasg21
S'S'
p2224
sbag0
(g10
g2
Ntp2225
Rp2226
(dp2227
g14
S'P'
p2228
sg16
(lp2229
F0.42241171
asg18
(lp2230
(lp2231
F1.0
aasg21
S'S'
p2232
sbag0
(g10
g2
Ntp2233
Rp2234
(dp2235
g14
S'P'
p2236
sg16
(lp2237
F0.21074577999999999
asg18
(lp2238
(lp2239
F1.0
aasg21
S'S'
p2240
sbag0
(g10
g2
Ntp2241
Rp2242
(dp2243
g14
S'D'
p2244
sg16
(lp2245
F1031.134648
asg18
(lp2246
(lp2247
F1.0
aasg21
S'S'
p2248
sbag0
(g10
g2
Ntp2249
Rp2250
(dp2251
g14
S'D'
p2252
sg16
(lp2253
F329.70319071
asg18
(lp2254
(lp2255
F1.0
aasg21
S'S'
p2256
sbag0
(g10
g2
Ntp2257
Rp2258
(dp2259
g14
S'D'
p2260
sg16
(lp2261
F136.47043977000001
asg18
(lp2262
(lp2263
F1.0
aasg21
S'S'
p2264
sbag0
(g10
g2
Ntp2265
Rp2266
(dp2267
g14
S'D'
p2268
sg16
(lp2269
F64.107044290000005
asg18
(lp2270
(lp2271
F1.0
aasg21
S'S'
p2272
sbag0
(g10
g2
Ntp2273
Rp2274
(dp2275
g14
S'D'
p2276
sg16
(lp2277
F31.93907102
asg18
(lp2278
(lp2279
F1.0
aasg21
S'S'
p2280
sbag0
(g10
g2
Ntp2281
Rp2282
(dp2283
g14
S'D'
p2284
sg16
(lp2285
F15.92694666
asg18
(lp2286
(lp2287
F1.0
aasg21
S'S'
p2288
sbag0
(g10
g2
Ntp2289
Rp2290
(dp2291
g14
S'D'
p2292
sg16
(lp2293
F8.1339314999999992
asg18
(lp2294
(lp2295
F1.0
aasg21
S'S'
p2296
sbag0
(g10
g2
Ntp2297
Rp2298
(dp2299
g14
S'D'
p2300
sg16
(lp2301
F4.1572662300000003
asg18
(lp2302
(lp2303
F1.0
aasg21
S'S'
p2304
sbag0
(g10
g2
Ntp2305
Rp2306
(dp2307
g14
S'D'
p2308
sg16
(lp2309
F2.0135122999999999
asg18
(lp2310
(lp2311
F1.0
aasg21
S'S'
p2312
sbag0
(g10
g2
Ntp2313
Rp2314
(dp2315
g14
S'D'
p2316
sg16
(lp2317
F0.87861210000000001
asg18
(lp2318
(lp2319
F1.0
aasg21
S'S'
p2320
sbag0
(g10
g2
Ntp2321
Rp2322
(dp2323
g14
S'D'
p2324
sg16
(lp2325
F0.45642618000000001
asg18
(lp2326
(lp2327
F1.0
aasg21
S'S'
p2328
sbag0
(g10
g2
Ntp2329
Rp2330
(dp2331
g14
S'D'
p2332
sg16
(lp2333
F0.20057396999999999
asg18
(lp2334
(lp2335
F1.0
aasg21
S'S'
p2336
sbag0
(g10
g2
Ntp2337
Rp2338
(dp2339
g14
S'F'
p2340
sg16
(lp2341
F225.95276115999999
asg18
(lp2342
(lp2343
F1.0
aasg21
S'S'
p2344
sbag0
(g10
g2
Ntp2345
Rp2346
(dp2347
g14
S'F'
p2348
sg16
(lp2349
F86.124450879999998
asg18
(lp2350
(lp2351
F1.0
aasg21
S'S'
p2352
sbag0
(g10
g2
Ntp2353
Rp2354
(dp2355
g14
S'F'
p2356
sg16
(lp2357
F39.08459551
asg18
(lp2358
(lp2359
F1.0
aasg21
S'S'
p2360
sbag0
(g10
g2
Ntp2361
Rp2362
(dp2363
g14
S'F'
p2364
sg16
(lp2365
F18.270584150000001
asg18
(lp2366
(lp2367
F1.0
aasg21
S'S'
p2368
sbag0
(g10
g2
Ntp2369
Rp2370
(dp2371
g14
S'F'
p2372
sg16
(lp2373
F9.2240269099999992
asg18
(lp2374
(lp2375
F1.0
aasg21
S'S'
p2376
sbag0
(g10
g2
Ntp2377
Rp2378
(dp2379
g14
S'F'
p2380
sg16
(lp2381
F4.6658028800000002
asg18
(lp2382
(lp2383
F1.0
aasg21
S'S'
p2384
sbag0
(g10
g2
Ntp2385
Rp2386
(dp2387
g14
S'F'
p2388
sg16
(lp2389
F2.3111212999999999
asg18
(lp2390
(lp2391
F1.0
aasg21
S'S'
p2392
sbag0
(g10
g2
Ntp2393
Rp2394
(dp2395
g14
S'F'
p2396
sg16
(lp2397
F0.99548225000000001
asg18
(lp2398
(lp2399
F1.0
aasg21
S'S'
p2400
sbag0
(g10
g2
Ntp2401
Rp2402
(dp2403
g14
S'G'
p2404
sg16
(lp2405
F63.150620250000003
asg18
(lp2406
(lp2407
F1.0
aasg21
S'S'
p2408
sbag0
(g10
g2
Ntp2409
Rp2410
(dp2411
g14
S'G'
p2412
sg16
(lp2413
F23.823207969999999
asg18
(lp2414
(lp2415
F1.0
aasg21
S'S'
p2416
sbag0
(g10
g2
Ntp2417
Rp2418
(dp2419
g14
S'G'
p2420
sg16
(lp2421
F10.54349285
asg18
(lp2422
(lp2423
F1.0
aasg21
S'S'
p2424
sbag0
(g10
g2
Ntp2425
Rp2426
(dp2427
g14
S'G'
p2428
sg16
(lp2429
F4.9122517700000001
asg18
(lp2430
(lp2431
F1.0
aasg21
S'S'
p2432
sbag0
(g10
g2
Ntp2433
Rp2434
(dp2435
g14
S'G'
p2436
sg16
(lp2437
F2.2938738399999998
asg18
(lp2438
(lp2439
F1.0
aasg21
S'S'
p2440
sbag0
(g10
g2
Ntp2441
Rp2442
(dp2443
g14
S'G'
p2444
sg16
(lp2445
F0.88962182999999995
asg18
(lp2446
(lp2447
F1.0
aasg21
S'S'
p2448
sbag0
(g10
g2
Ntp2449
Rp2450
(dp2451
g14
S'F'
p2452
sg16
(lp2453
F0.47341288999999998
asg18
(lp2454
(lp2455
F1.0
aasg21
S'S'
p2456
sbag0
(g10
g2
Ntp2457
Rp2458
(dp2459
g14
S'F'
p2460
sg16
(lp2461
F0.21238162999999999
asg18
(lp2462
(lp2463
F1.0
aasg21
S'S'
p2464
sbag0
(g10
g2
Ntp2465
Rp2466
(dp2467
g14
S'G'
p2468
sg16
(lp2469
F0.68360379999999998
asg18
(lp2470
(lp2471
F1.0
aasg21
S'S'
p2472
sbassb.
