ccopy_reg
_reconstructor
p0
(cbasisset
BasisSet
p1
c__builtin__
object
p2
Ntp3
Rp4
(dp5
S'basisDictionary'
p6
(dp7
S'H'
p8
(lp9
g0
(cbasisset
Shell
p10
g2
Ntp11
Rp12
(dp13
S'angularMomentum'
p14
S'S'
p15
sS'exponents'
p16
(lp17
F33.869999999999997
aF5.0949999999999998
aF1.159
asS'coefficients'
p18
(lp19
(lp20
F0.0060679999999999996
aF0.045308000000000001
aF0.202822
aasS'atom'
p21
S' H'
p22
sbag0
(g10
g2
Ntp23
Rp24
(dp25
g14
S'S'
p26
sg16
(lp27
F0.32579999999999998
asg18
(lp28
(lp29
F1.0
aasg21
S' H'
p30
sbag0
(g10
g2
Ntp31
Rp32
(dp33
g14
S'S'
p34
sg16
(lp35
F0.1027
asg18
(lp36
(lp37
F1.0
aasg21
S' H'
p38
sbag0
(g10
g2
Ntp39
Rp40
(dp41
g14
S'P'
p42
sg16
(lp43
F1.407
asg18
(lp44
(lp45
F1.0
aasg21
S' H'
p46
sbag0
(g10
g2
Ntp47
Rp48
(dp49
g14
S'P'
p50
sg16
(lp51
F0.38800000000000001
asg18
(lp52
(lp53
F1.0
aasg21
S' H'
p54
sbag0
(g10
g2
Ntp55
Rp56
(dp57
g14
S'D'
p58
sg16
(lp59
F1.0569999999999999
asg18
(lp60
(lp61
F1.0
aasg21
S' H'
p62
sbasS'C'
p63
(lp64
g0
(g10
g2
Ntp65
Rp66
(dp67
g14
S'S'
p68
sg16
(lp69
F8236.0
aF1235.0
aF280.80000000000001
aF79.269999999999996
aF25.59
aF8.9969999999999999
aF3.319
aF0.36430000000000001
asg18
(lp70
(lp71
F0.000531
aF0.0041079999999999997
aF0.021087000000000002
aF0.081852999999999995
aF0.234817
aF0.43440099999999998
aF0.34612900000000002
aF-0.0089829999999999997
aa(lp72
F-0.000113
aF-0.00087799999999999998
aF-0.0045399999999999998
aF-0.018133
aF-0.055759999999999997
aF-0.12689500000000001
aF-0.170352
aF0.59868399999999999
aasg21
S' C'
p73
sbag0
(g10
g2
Ntp74
Rp75
(dp76
g14
S'S'
p77
sg16
(lp78
F0.90590000000000004
asg18
(lp79
(lp80
F1.0
aasg21
S' C'
p81
sbag0
(g10
g2
Ntp82
Rp83
(dp84
g14
S'S'
p85
sg16
(lp86
F0.1285
asg18
(lp87
(lp88
F1.0
aasg21
S' C'
p89
sbag0
(g10
g2
Ntp90
Rp91
(dp92
g14
S'P'
p93
sg16
(lp94
F18.710000000000001
aF4.133
aF1.2
asg18
(lp95
(lp96
F0.014031
aF0.086865999999999999
aF0.29021599999999997
aasg21
S' C'
p97
sbag0
(g10
g2
Ntp98
Rp99
(dp100
g14
S'P'
p101
sg16
(lp102
F0.38269999999999998
asg18
(lp103
(lp104
F1.0
aasg21
S' C'
p105
sbag0
(g10
g2
Ntp106
Rp107
(dp108
g14
S'P'
p109
sg16
(lp110
F0.12089999999999999
asg18
(lp111
(lp112
F1.0
aasg21
S' C'
p113
sbag0
(g10
g2
Ntp114
Rp115
(dp116
g14
S'D'
p117
sg16
(lp118
F1.097
asg18
(lp119
(lp120
F1.0
aasg21
S' C'
p121
sbag0
(g10
g2
Ntp122
Rp123
(dp124
g14
S'D'
p125
sg16
(lp126
F0.318
asg18
(lp127
(lp128
F1.0
aasg21
S' C'
p129
sbag0
(g10
g2
Ntp130
Rp131
(dp132
g14
S'F'
p133
sg16
(lp134
F0.76100000000000001
asg18
(lp135
(lp136
F1.0
aasg21
S' C'
p137
sbag0
(g10
g2
Ntp138
Rp139
(dp140
g14
S'S'
p141
sg16
(lp142
F3.4740000000000002
asg18
(lp143
(lp144
F1.0
aasg21
S' C'
p145
sbag0
(g10
g2
Ntp146
Rp147
(dp148
g14
S'S'
p149
sg16
(lp150
F8.8279999999999994
asg18
(lp151
(lp152
F1.0
aasg21
S' C'
p153
sbag0
(g10
g2
Ntp154
Rp155
(dp156
g14
S'P'
p157
sg16
(lp158
F5.4420000000000002
asg18
(lp159
(lp160
F1.0
aasg21
S' C'
p161
sbag0
(g10
g2
Ntp162
Rp163
(dp164
g14
S'P'
p165
sg16
(lp166
F21.552
asg18
(lp167
(lp168
F1.0
aasg21
S' C'
p169
sbag0
(g10
g2
Ntp170
Rp171
(dp172
g14
S'D'
p173
sg16
(lp174
F4.9500000000000002
asg18
(lp175
(lp176
F1.0
aasg21
S' C'
p177
sbasS'S'
p178
(lp179
g0
(g10
g2
Ntp180
Rp181
(dp182
g14
S'S'
p183
sg16
(lp184
F374100.0
aF56050.0
aF12760.0
aF3615.0
aF1183.0
aF428.80000000000001
aF167.80000000000001
aF69.469999999999999
aF29.84
aF12.720000000000001
aF5.2439999999999998
aF2.2189999999999999
aF0.34899999999999998
asg18
(lp185
(lp186
F5.4214e-05
aF0.00042085499999999998
aF0.0022069799999999999
aF0.0091925800000000005
aF0.032112300000000003
aF0.094668299999999997
aF0.22363
aF0.37439299999999998
aF0.32910800000000001
aF0.084703799999999996
aF0.00044085100000000002
aF0.0016482700000000001
aF0.00030130599999999999
aa(lp187
F-1.49837e-05
aF-0.000116198
aF-0.00061158299999999996
aF-0.0025536999999999999
aF-0.0090870800000000009
aF-0.0277045
aF-0.072001999999999997
aF-0.14643900000000001
aF-0.19514999999999999
aF0.00819193
aF0.51660099999999998
aF0.54217800000000005
aF-0.0091807199999999999
aa(lp188
F4.3506600000000003e-06
aF3.3714000000000003e-05
aF0.00017767400000000001
aF0.000741116
aF0.00264591
aF0.0080748699999999996
aF0.021227599999999999
aF0.043832299999999998
aF0.061271600000000002
aF-0.0036151
aF-0.20451
aF-0.38187100000000002
aF0.71414699999999998
aasg21
S' S'
p189
sbag0
(g10
g2
Ntp190
Rp191
(dp192
g14
S'S'
p193
sg16
(lp194
F0.77669999999999995
asg18
(lp195
(lp196
F1.0
aasg21
S' S'
p197
sbag0
(g10
g2
Ntp198
Rp199
(dp200
g14
S'S'
p201
sg16
(lp202
F0.13220000000000001
asg18
(lp203
(lp204
F1.0
aasg21
S' S'
p205
sbag0
(g10
g2
Ntp206
Rp207
(dp208
g14
S'P'
p209
sg16
(lp210
F574.39999999999998
aF135.80000000000001
aF43.189999999999998
aF15.869999999999999
aF6.2080000000000002
aF2.4830000000000001
aF0.32290000000000002
asg18
(lp211
(lp212
F0.0024226400000000002
aF0.019279600000000001
aF0.088540099999999997
aF0.25465399999999999
aF0.43398399999999998
aF0.35495300000000002
aF-0.0050297700000000002
aa(lp213
F-0.00062010199999999998
aF-0.00493882
aF-0.023264699999999999
aF-0.068519499999999997
aF-0.12389600000000001
aF-0.096949900000000006
aF0.56939399999999996
aasg21
S' S'
p214
sbag0
(g10
g2
Ntp215
Rp216
(dp217
g14
S'P'
p218
sg16
(lp219
F0.86880000000000002
asg18
(lp220
(lp221
F1.0
aasg21
S' S'
p222
sbag0
(g10
g2
Ntp223
Rp224
(dp225
g14
S'P'
p226
sg16
(lp227
F0.10979999999999999
asg18
(lp228
(lp229
F1.0
aasg21
S' S'
p230
sbag0
(g10
g2
Ntp231
Rp232
(dp233
g14
S'D'
p234
sg16
(lp235
F0.26900000000000002
asg18
(lp236
(lp237
F1.0
aasg21
S' S'
p238
sbag0
(g10
g2
Ntp239
Rp240
(dp241
g14
S'D'
p242
sg16
(lp243
F0.81899999999999995
asg18
(lp244
(lp245
F1.0
aasg21
S' S'
p246
sbag0
(g10
g2
Ntp247
Rp248
(dp249
g14
S'F'
p250
sg16
(lp251
F0.55700000000000005
asg18
(lp252
(lp253
F1.0
aasg21
S' S'
p254
sbag0
(g10
g2
Ntp255
Rp256
(dp257
g14
S'S'
p258
sg16
(lp259
F2.1200000000000001
asg18
(lp260
(lp261
F1.0
aasg21
S' S'
p262
sbag0
(g10
g2
Ntp263
Rp264
(dp265
g14
S'S'
p266
sg16
(lp267
F11.92
asg18
(lp268
(lp269
F1.0
aasg21
S' S'
p270
sbag0
(g10
g2
Ntp271
Rp272
(dp273
g14
S'P'
p274
sg16
(lp275
F2.6589999999999998
asg18
(lp276
(lp277
F1.0
aasg21
S' S'
p278
sbag0
(g10
g2
Ntp279
Rp280
(dp281
g14
S'P'
p282
sg16
(lp283
F6.6470000000000002
asg18
(lp284
(lp285
F1.0
aasg21
S' S'
p286
sbag0
(g10
g2
Ntp287
Rp288
(dp289
g14
S'D'
p290
sg16
(lp291
F2.8639999999999999
asg18
(lp292
(lp293
F1.0
aasg21
S' S'
p294
sbag0
(g10
g2
Ntp295
Rp296
(dp297
g14
S'D'
p298
sg16
(lp299
F11.079000000000001
asg18
(lp300
(lp301
F1.0
aasg21
S' S'
p302
sbag0
(g10
g2
Ntp303
Rp304
(dp305
g14
S'F'
p306
sg16
(lp307
F2.528
asg18
(lp308
(lp309
F1.0
aasg21
S' S'
p310
sbassb.