(ibasisset
BasisSet
p0
(dp1
S'basisDictionary'
p2
(dp3
S'C'
p4
(iBasisSets
AtomBasis
p5
(dp6
S'basisDictionary'
p7
(dp8
S'P'
p9
(lp10
(iBasisSets
BasisFunction
p11
(dp12
S'coefficientList'
p13
(lp14
F0.038108999999999997
aF0.20948
aF0.50855700000000004
aF0.46884199999999998
asS'primitiveList'
p15
(lp16
(iBasisSets
PrimitiveFunction
p17
(dp18
S'exponent'
p19
F9.4390000000000001
sS'angularMomentum'
p20
S'P'
p21
sba(iBasisSets
PrimitiveFunction
p22
(dp23
g19
F2.0019999999999998
sg20
S'P'
p24
sba(iBasisSets
PrimitiveFunction
p25
(dp26
g19
F0.54559999999999997
sg20
S'P'
p27
sba(iBasisSets
PrimitiveFunction
p28
(dp29
g19
F0.1517
sg20
S'P'
p30
sbasg20
S'P'
p31
sba(iBasisSets
BasisFunction
p32
(dp33
g13
(lp34
F1.0
asg15
(lp35
(iBasisSets
PrimitiveFunction
p36
(dp37
g19
F0.1517
sg20
S'P'
p38
sbasg20
S'P'
p39
sba(iBasisSets
BasisFunction
p40
(dp41
g13
(lp42
F1.0
asg15
(lp43
(iBasisSets
PrimitiveFunction
p44
(dp45
g19
F7.2350000000000003
sg20
S'P'
p46
sbasg20
S'P'
p47
sbasS'S'
p48
(lp49
(iBasisSets
BasisFunction
p50
(dp51
g13
(lp52
F0.00069200000000000002
aF0.0053290000000000004
aF0.027077
aF0.101718
aF0.27473999999999998
aF0.44856400000000002
aF0.28507399999999999
aF0.015204000000000001
aF-0.0031909999999999998
asg15
(lp53
(iBasisSets
PrimitiveFunction
p54
(dp55
g19
F6665.0
sg20
S'S'
p56
sba(iBasisSets
PrimitiveFunction
p57
(dp58
g19
F1000.0
sg20
S'S'
p59
sba(iBasisSets
PrimitiveFunction
p60
(dp61
g19
F228.0
sg20
S'S'
p62
sba(iBasisSets
PrimitiveFunction
p63
(dp64
g19
F64.709999999999994
sg20
S'S'
p65
sba(iBasisSets
PrimitiveFunction
p66
(dp67
g19
F21.059999999999999
sg20
S'S'
p68
sba(iBasisSets
PrimitiveFunction
p69
(dp70
g19
F7.4950000000000001
sg20
S'S'
p71
sba(iBasisSets
PrimitiveFunction
p72
(dp73
g19
F2.7970000000000002
sg20
S'S'
p74
sba(iBasisSets
PrimitiveFunction
p75
(dp76
g19
F0.52149999999999996
sg20
S'S'
p77
sba(iBasisSets
PrimitiveFunction
p78
(dp79
g19
F0.15959999999999999
sg20
S'S'
p80
sbasg20
S'S'
p81
sba(iBasisSets
BasisFunction
p82
(dp83
g13
(lp84
F-0.000146
aF-0.0011540000000000001
aF-0.0057250000000000001
aF-0.023311999999999999
aF-0.063954999999999998
aF-0.149981
aF-0.12726199999999999
aF0.54452900000000004
aF0.58049600000000001
asg15
(lp85
(iBasisSets
PrimitiveFunction
p86
(dp87
g19
F6665.0
sg20
S'S'
p88
sba(iBasisSets
PrimitiveFunction
p89
(dp90
g19
F1000.0
sg20
S'S'
p91
sba(iBasisSets
PrimitiveFunction
p92
(dp93
g19
F228.0
sg20
S'S'
p94
sba(iBasisSets
PrimitiveFunction
p95
(dp96
g19
F64.709999999999994
sg20
S'S'
p97
sba(iBasisSets
PrimitiveFunction
p98
(dp99
g19
F21.059999999999999
sg20
S'S'
p100
sba(iBasisSets
PrimitiveFunction
p101
(dp102
g19
F7.4950000000000001
sg20
S'S'
p103
sba(iBasisSets
PrimitiveFunction
p104
(dp105
g19
F2.7970000000000002
sg20
S'S'
p106
sba(iBasisSets
PrimitiveFunction
p107
(dp108
g19
F0.52149999999999996
sg20
S'S'
p109
sba(iBasisSets
PrimitiveFunction
p110
(dp111
g19
F0.15959999999999999
sg20
S'S'
p112
sbasg20
S'S'
p113
sba(iBasisSets
BasisFunction
p114
(dp115
g13
(lp116
F1.0
asg15
(lp117
(iBasisSets
PrimitiveFunction
p118
(dp119
g19
F0.15959999999999999
sg20
S'S'
p120
sbasg20
S'S'
p121
sba(iBasisSets
BasisFunction
p122
(dp123
g13
(lp124
F1.0
asg15
(lp125
(iBasisSets
PrimitiveFunction
p126
(dp127
g19
F3.339
sg20
S'S'
p128
sbasg20
S'S'
p129
sbasS'D'
p130
(lp131
(iBasisSets
BasisFunction
p132
(dp133
g13
(lp134
F1.0
asg15
(lp135
(iBasisSets
PrimitiveFunction
p136
(dp137
g19
F0.55000000000000004
sg20
S'D'
p138
sbasg20
S'D'
p139
sbassbsS'F'
p140
(iBasisSets
AtomBasis
p141
(dp142
g7
(dp143
g9
(lp144
(iBasisSets
BasisFunction
p145
(dp146
g13
(lp147
F0.044878000000000001
aF0.23571800000000001
aF0.508521
aF0.45812000000000003
asg15
(lp148
(iBasisSets
PrimitiveFunction
p149
(dp150
g19
F22.670000000000002
sg20
S'P'
p151
sba(iBasisSets
PrimitiveFunction
p152
(dp153
g19
F4.9770000000000003
sg20
S'P'
p154
sba(iBasisSets
PrimitiveFunction
p155
(dp156
g19
F1.347
sg20
S'P'
p157
sba(iBasisSets
PrimitiveFunction
p158
(dp159
g19
F0.34710000000000002
sg20
S'P'
p160
sbasg20
S'P'
p161
sba(iBasisSets
BasisFunction
p162
(dp163
g13
(lp164
F1.0
asg15
(lp165
(iBasisSets
PrimitiveFunction
p166
(dp167
g19
F0.34710000000000002
sg20
S'P'
p168
sbasg20
S'P'
p169
sba(iBasisSets
BasisFunction
p170
(dp171
g13
(lp172
F1.0
asg15
(lp173
(iBasisSets
PrimitiveFunction
p174
(dp175
g19
F16.803000000000001
sg20
S'P'
p176
sbasg20
S'P'
p177
sbasg48
(lp178
(iBasisSets
BasisFunction
p179
(dp180
g13
(lp181
F0.00072099999999999996
aF0.0055529999999999998
aF0.028267
aF0.106444
aF0.28681400000000001
aF0.44864100000000001
aF0.26476100000000002
aF0.015332999999999999
aF-0.0023319999999999999
asg15
(lp182
(iBasisSets
PrimitiveFunction
p183
(dp184
g19
F14710.0
sg20
S'S'
p185
sba(iBasisSets
PrimitiveFunction
p186
(dp187
g19
F2207.0
sg20
S'S'
p188
sba(iBasisSets
PrimitiveFunction
p189
(dp190
g19
F502.80000000000001
sg20
S'S'
p191
sba(iBasisSets
PrimitiveFunction
p192
(dp193
g19
F142.59999999999999
sg20
S'S'
p194
sba(iBasisSets
PrimitiveFunction
p195
(dp196
g19
F46.469999999999999
sg20
S'S'
p197
sba(iBasisSets
PrimitiveFunction
p198
(dp199
g19
F16.699999999999999
sg20
S'S'
p200
sba(iBasisSets
PrimitiveFunction
p201
(dp202
g19
F6.3559999999999999
sg20
S'S'
p203
sba(iBasisSets
PrimitiveFunction
p204
(dp205
g19
F1.3160000000000001
sg20
S'S'
p206
sba(iBasisSets
PrimitiveFunction
p207
(dp208
g19
F0.38969999999999999
sg20
S'S'
p209
sbasg20
S'S'
p210
sba(iBasisSets
BasisFunction
p211
(dp212
g13
(lp213
F-0.000165
aF-0.0013079999999999999
aF-0.0064949999999999999
aF-0.026690999999999999
aF-0.073690000000000005
aF-0.17077600000000001
aF-0.112327
aF0.56281400000000004
aF0.56877800000000001
asg15
(lp214
(iBasisSets
PrimitiveFunction
p215
(dp216
g19
F14710.0
sg20
S'S'
p217
sba(iBasisSets
PrimitiveFunction
p218
(dp219
g19
F2207.0
sg20
S'S'
p220
sba(iBasisSets
PrimitiveFunction
p221
(dp222
g19
F502.80000000000001
sg20
S'S'
p223
sba(iBasisSets
PrimitiveFunction
p224
(dp225
g19
F142.59999999999999
sg20
S'S'
p226
sba(iBasisSets
PrimitiveFunction
p227
(dp228
g19
F46.469999999999999
sg20
S'S'
p229
sba(iBasisSets
PrimitiveFunction
p230
(dp231
g19
F16.699999999999999
sg20
S'S'
p232
sba(iBasisSets
PrimitiveFunction
p233
(dp234
g19
F6.3559999999999999
sg20
S'S'
p235
sba(iBasisSets
PrimitiveFunction
p236
(dp237
g19
F1.3160000000000001
sg20
S'S'
p238
sba(iBasisSets
PrimitiveFunction
p239
(dp240
g19
F0.38969999999999999
sg20
S'S'
p241
sbasg20
S'S'
p242
sba(iBasisSets
BasisFunction
p243
(dp244
g13
(lp245
F1.0
asg15
(lp246
(iBasisSets
PrimitiveFunction
p247
(dp248
g19
F0.38969999999999999
sg20
S'S'
p249
sbasg20
S'S'
p250
sba(iBasisSets
BasisFunction
p251
(dp252
g13
(lp253
F1.0
asg15
(lp254
(iBasisSets
PrimitiveFunction
p255
(dp256
g19
F6.7240000000000002
sg20
S'S'
p257
sbasg20
S'S'
p258
sbasg130
(lp259
(iBasisSets
BasisFunction
p260
(dp261
g13
(lp262
F1.0
asg15
(lp263
(iBasisSets
PrimitiveFunction
p264
(dp265
g19
F1.6399999999999999
sg20
S'D'
p266
sbasg20
S'D'
p267
sbassbsS'H'
p268
(iBasisSets
AtomBasis
p269
(dp270
g7
(dp271
g9
(lp272
(iBasisSets
BasisFunction
p273
(dp274
g13
(lp275
F1.0
asg15
(lp276
(iBasisSets
PrimitiveFunction
p277
(dp278
g19
F0.72699999999999998
sg20
S'P'
p279
sbasg20
S'P'
p280
sbasg48
(lp281
(iBasisSets
BasisFunction
p282
(dp283
g13
(lp284
F0.019685000000000001
aF0.13797699999999999
aF0.47814800000000002
aF0.50124000000000002
asg15
(lp285
(iBasisSets
PrimitiveFunction
p286
(dp287
g19
F13.01
sg20
S'S'
p288
sba(iBasisSets
PrimitiveFunction
p289
(dp290
g19
F1.962
sg20
S'S'
p291
sba(iBasisSets
PrimitiveFunction
p292
(dp293
g19
F0.4446
sg20
S'S'
p294
sba(iBasisSets
PrimitiveFunction
p295
(dp296
g19
F0.122
sg20
S'S'
p297
sbasg20
S'S'
p298
sba(iBasisSets
BasisFunction
p299
(dp300
g13
(lp301
F1.0
asg15
(lp302
(iBasisSets
PrimitiveFunction
p303
(dp304
g19
F0.122
sg20
S'S'
p305
sbasg20
S'S'
p306
sbassbsS'O'
p307
(iBasisSets
AtomBasis
p308
(dp309
g7
(dp310
g9
(lp311
(iBasisSets
BasisFunction
p312
(dp313
g13
(lp314
F0.043018000000000001
aF0.22891300000000001
aF0.50872799999999996
aF0.46053100000000002
asg15
(lp315
(iBasisSets
PrimitiveFunction
p316
(dp317
g19
F17.699999999999999
sg20
S'P'
p318
sba(iBasisSets
PrimitiveFunction
p319
(dp320
g19
F3.8540000000000001
sg20
S'P'
p321
sba(iBasisSets
PrimitiveFunction
p322
(dp323
g19
F1.046
sg20
S'P'
p324
sba(iBasisSets
PrimitiveFunction
p325
(dp326
g19
F0.27529999999999999
sg20
S'P'
p327
sbasg20
S'P'
p328
sba(iBasisSets
BasisFunction
p329
(dp330
g13
(lp331
F1.0
asg15
(lp332
(iBasisSets
PrimitiveFunction
p333
(dp334
g19
F0.27529999999999999
sg20
S'P'
p335
sbasg20
S'P'
p336
sba(iBasisSets
BasisFunction
p337
(dp338
g13
(lp339
F1.0
asg15
(lp340
(iBasisSets
PrimitiveFunction
p341
(dp342
g19
F13.32
sg20
S'P'
p343
sbasg20
S'P'
p344
sbasg48
(lp345
(iBasisSets
BasisFunction
p346
(dp347
g13
(lp348
F0.00071000000000000002
aF0.00547
aF0.027837000000000001
aF0.1048
aF0.28306199999999998
aF0.44871899999999998
aF0.27095200000000003
aF0.015458
aF-0.0025850000000000001
asg15
(lp349
(iBasisSets
PrimitiveFunction
p350
(dp351
g19
F11720.0
sg20
S'S'
p352
sba(iBasisSets
PrimitiveFunction
p353
(dp354
g19
F1759.0
sg20
S'S'
p355
sba(iBasisSets
PrimitiveFunction
p356
(dp357
g19
F400.80000000000001
sg20
S'S'
p358
sba(iBasisSets
PrimitiveFunction
p359
(dp360
g19
F113.7
sg20
S'S'
p361
sba(iBasisSets
PrimitiveFunction
p362
(dp363
g19
F37.030000000000001
sg20
S'S'
p364
sba(iBasisSets
PrimitiveFunction
p365
(dp366
g19
F13.27
sg20
S'S'
p367
sba(iBasisSets
PrimitiveFunction
p368
(dp369
g19
F5.0250000000000004
sg20
S'S'
p370
sba(iBasisSets
PrimitiveFunction
p371
(dp372
g19
F1.0129999999999999
sg20
S'S'
p373
sba(iBasisSets
PrimitiveFunction
p374
(dp375
g19
F0.30230000000000001
sg20
S'S'
p376
sbasg20
S'S'
p377
sba(iBasisSets
BasisFunction
p378
(dp379
g13
(lp380
F-0.00016000000000000001
aF-0.001263
aF-0.006267
aF-0.025715999999999999
aF-0.070924000000000001
aF-0.165411
aF-0.116955
aF0.55736799999999997
aF0.57275900000000002
asg15
(lp381
(iBasisSets
PrimitiveFunction
p382
(dp383
g19
F11720.0
sg20
S'S'
p384
sba(iBasisSets
PrimitiveFunction
p385
(dp386
g19
F1759.0
sg20
S'S'
p387
sba(iBasisSets
PrimitiveFunction
p388
(dp389
g19
F400.80000000000001
sg20
S'S'
p390
sba(iBasisSets
PrimitiveFunction
p391
(dp392
g19
F113.7
sg20
S'S'
p393
sba(iBasisSets
PrimitiveFunction
p394
(dp395
g19
F37.030000000000001
sg20
S'S'
p396
sba(iBasisSets
PrimitiveFunction
p397
(dp398
g19
F13.27
sg20
S'S'
p399
sba(iBasisSets
PrimitiveFunction
p400
(dp401
g19
F5.0250000000000004
sg20
S'S'
p402
sba(iBasisSets
PrimitiveFunction
p403
(dp404
g19
F1.0129999999999999
sg20
S'S'
p405
sba(iBasisSets
PrimitiveFunction
p406
(dp407
g19
F0.30230000000000001
sg20
S'S'
p408
sbasg20
S'S'
p409
sba(iBasisSets
BasisFunction
p410
(dp411
g13
(lp412
F1.0
asg15
(lp413
(iBasisSets
PrimitiveFunction
p414
(dp415
g19
F0.30230000000000001
sg20
S'S'
p416
sbasg20
S'S'
p417
sba(iBasisSets
BasisFunction
p418
(dp419
g13
(lp420
F1.0
asg15
(lp421
(iBasisSets
PrimitiveFunction
p422
(dp423
g19
F5.4589999999999996
sg20
S'S'
p424
sbasg20
S'S'
p425
sbasg130
(lp426
(iBasisSets
BasisFunction
p427
(dp428
g13
(lp429
F1.0
asg15
(lp430
(iBasisSets
PrimitiveFunction
p431
(dp432
g19
F1.1850000000000001
sg20
S'D'
p433
sbasg20
S'D'
p434
sbassbsS'N'
p435
(iBasisSets
AtomBasis
p436
(dp437
g7
(dp438
g9
(lp439
(iBasisSets
BasisFunction
p440
(dp441
g13
(lp442
F0.039919000000000003
aF0.217169
aF0.51031899999999997
aF0.46221400000000001
asg15
(lp443
(iBasisSets
PrimitiveFunction
p444
(dp445
g19
F13.550000000000001
sg20
S'P'
p446
sba(iBasisSets
PrimitiveFunction
p447
(dp448
g19
F2.9169999999999998
sg20
S'P'
p449
sba(iBasisSets
PrimitiveFunction
p450
(dp451
g19
F0.79730000000000001
sg20
S'P'
p452
sba(iBasisSets
PrimitiveFunction
p453
(dp454
g19
F0.2185
sg20
S'P'
p455
sbasg20
S'P'
p456
sba(iBasisSets
BasisFunction
p457
(dp458
g13
(lp459
F1.0
asg15
(lp460
(iBasisSets
PrimitiveFunction
p461
(dp462
g19
F0.2185
sg20
S'P'
p463
sbasg20
S'P'
p464
sba(iBasisSets
BasisFunction
p465
(dp466
g13
(lp467
F1.0
asg15
(lp468
(iBasisSets
PrimitiveFunction
p469
(dp470
g19
F10.239000000000001
sg20
S'P'
p471
sbasg20
S'P'
p472
sbasg48
(lp473
(iBasisSets
BasisFunction
p474
(dp475
g13
(lp476
F0.00069999999999999999
aF0.0053889999999999997
aF0.027406
aF0.10320699999999999
aF0.278723
aF0.44853999999999999
aF0.27823799999999999
aF0.015440000000000001
aF-0.0028639999999999998
asg15
(lp477
(iBasisSets
PrimitiveFunction
p478
(dp479
g19
F9046.0
sg20
S'S'
p480
sba(iBasisSets
PrimitiveFunction
p481
(dp482
g19
F1357.0
sg20
S'S'
p483
sba(iBasisSets
PrimitiveFunction
p484
(dp485
g19
F309.30000000000001
sg20
S'S'
p486
sba(iBasisSets
PrimitiveFunction
p487
(dp488
g19
F87.730000000000004
sg20
S'S'
p489
sba(iBasisSets
PrimitiveFunction
p490
(dp491
g19
F28.559999999999999
sg20
S'S'
p492
sba(iBasisSets
PrimitiveFunction
p493
(dp494
g19
F10.210000000000001
sg20
S'S'
p495
sba(iBasisSets
PrimitiveFunction
p496
(dp497
g19
F3.8380000000000001
sg20
S'S'
p498
sba(iBasisSets
PrimitiveFunction
p499
(dp500
g19
F0.74660000000000004
sg20
S'S'
p501
sba(iBasisSets
PrimitiveFunction
p502
(dp503
g19
F0.2248
sg20
S'S'
p504
sbasg20
S'S'
p505
sba(iBasisSets
BasisFunction
p506
(dp507
g13
(lp508
F-0.00015300000000000001
aF-0.0012080000000000001
aF-0.0059919999999999999
aF-0.024544
aF-0.067459000000000005
aF-0.158078
aF-0.12183099999999999
aF0.54900300000000002
aF0.57881499999999997
asg15
(lp509
(iBasisSets
PrimitiveFunction
p510
(dp511
g19
F9046.0
sg20
S'S'
p512
sba(iBasisSets
PrimitiveFunction
p513
(dp514
g19
F1357.0
sg20
S'S'
p515
sba(iBasisSets
PrimitiveFunction
p516
(dp517
g19
F309.30000000000001
sg20
S'S'
p518
sba(iBasisSets
PrimitiveFunction
p519
(dp520
g19
F87.730000000000004
sg20
S'S'
p521
sba(iBasisSets
PrimitiveFunction
p522
(dp523
g19
F28.559999999999999
sg20
S'S'
p524
sba(iBasisSets
PrimitiveFunction
p525
(dp526
g19
F10.210000000000001
sg20
S'S'
p527
sba(iBasisSets
PrimitiveFunction
p528
(dp529
g19
F3.8380000000000001
sg20
S'S'
p530
sba(iBasisSets
PrimitiveFunction
p531
(dp532
g19
F0.74660000000000004
sg20
S'S'
p533
sba(iBasisSets
PrimitiveFunction
p534
(dp535
g19
F0.2248
sg20
S'S'
p536
sbasg20
S'S'
p537
sba(iBasisSets
BasisFunction
p538
(dp539
g13
(lp540
F1.0
asg15
(lp541
(iBasisSets
PrimitiveFunction
p542
(dp543
g19
F0.2248
sg20
S'S'
p544
sbasg20
S'S'
p545
sba(iBasisSets
BasisFunction
p546
(dp547
g13
(lp548
F1.0
asg15
(lp549
(iBasisSets
PrimitiveFunction
p550
(dp551
g19
F4.3200000000000003
sg20
S'S'
p552
sbasg20
S'S'
p553
sbasg130
(lp554
(iBasisSets
BasisFunction
p555
(dp556
g13
(lp557
F1.0
asg15
(lp558
(iBasisSets
PrimitiveFunction
p559
(dp560
g19
F0.81699999999999995
sg20
S'D'
p561
sbasg20
S'D'
p562
sbassbsS'S'
p563
(iBasisSets
AtomBasis
p564
(dp565
g7
(dp566
g9
(lp567
(iBasisSets
BasisFunction
p568
(dp569
g13
(lp570
F0.00447541
aF0.034170800000000001
aF0.14424999999999999
aF0.35392800000000002
aF0.45908500000000002
aF0.20638300000000001
aF0.0102141
aF-6.0312200000000002e-05
asg15
(lp571
(iBasisSets
PrimitiveFunction
p572
(dp573
g19
F399.69999999999999
sg20
S'P'
p574
sba(iBasisSets
PrimitiveFunction
p575
(dp576
g19
F94.189999999999998
sg20
S'P'
p577
sba(iBasisSets
PrimitiveFunction
p578
(dp579
g19
F29.75
sg20
S'P'
p580
sba(iBasisSets
PrimitiveFunction
p581
(dp582
g19
F10.77
sg20
S'P'
p583
sba(iBasisSets
PrimitiveFunction
p584
(dp585
g19
F4.1189999999999998
sg20
S'P'
p586
sba(iBasisSets
PrimitiveFunction
p587
(dp588
g19
F1.625
sg20
S'P'
p589
sba(iBasisSets
PrimitiveFunction
p590
(dp591
g19
F0.47260000000000002
sg20
S'P'
p592
sba(iBasisSets
PrimitiveFunction
p593
(dp594
g19
F0.14069999999999999
sg20
S'P'
p595
sbasg20
S'P'
p596
sba(iBasisSets
BasisFunction
p597
(dp598
g13
(lp599
F-0.0011625100000000001
aF-0.0086566400000000002
aF-0.039088600000000001
aF-0.093462500000000004
aF-0.14799399999999999
aF0.030190399999999999
aF0.56157299999999999
aF0.53477600000000003
asg15
(lp600
(iBasisSets
PrimitiveFunction
p601
(dp602
g19
F399.69999999999999
sg20
S'P'
p603
sba(iBasisSets
PrimitiveFunction
p604
(dp605
g19
F94.189999999999998
sg20
S'P'
p606
sba(iBasisSets
PrimitiveFunction
p607
(dp608
g19
F29.75
sg20
S'P'
p609
sba(iBasisSets
PrimitiveFunction
p610
(dp611
g19
F10.77
sg20
S'P'
p612
sba(iBasisSets
PrimitiveFunction
p613
(dp614
g19
F4.1189999999999998
sg20
S'P'
p615
sba(iBasisSets
PrimitiveFunction
p616
(dp617
g19
F1.625
sg20
S'P'
p618
sba(iBasisSets
PrimitiveFunction
p619
(dp620
g19
F0.47260000000000002
sg20
S'P'
p621
sba(iBasisSets
PrimitiveFunction
p622
(dp623
g19
F0.14069999999999999
sg20
S'P'
p624
sbasg20
S'P'
p625
sba(iBasisSets
BasisFunction
p626
(dp627
g13
(lp628
F1.0
asg15
(lp629
(iBasisSets
PrimitiveFunction
p630
(dp631
g19
F0.14069999999999999
sg20
S'P'
p632
sbasg20
S'P'
p633
sba(iBasisSets
BasisFunction
p634
(dp635
g13
(lp636
F1.0
asg15
(lp637
(iBasisSets
PrimitiveFunction
p638
(dp639
g19
F2.5030000000000001
sg20
S'P'
p640
sbasg20
S'P'
p641
sbasg48
(lp642
(iBasisSets
BasisFunction
p643
(dp644
g13
(lp645
F0.00024763500000000001
aF0.00192026
aF0.0099619200000000008
aF0.0402975
aF0.128604
aF0.30348000000000003
aF0.42143199999999997
aF0.23078099999999999
aF0.017897099999999999
aF-0.0029751600000000001
aF0.00084952200000000002
aF-0.00036793600000000002
asg15
(lp646
(iBasisSets
PrimitiveFunction
p647
(dp648
g19
F110800.0
sg20
S'S'
p649
sba(iBasisSets
PrimitiveFunction
p650
(dp651
g19
F16610.0
sg20
S'S'
p652
sba(iBasisSets
PrimitiveFunction
p653
(dp654
g19
F3781.0
sg20
S'S'
p655
sba(iBasisSets
PrimitiveFunction
p656
(dp657
g19
F1071.0
sg20
S'S'
p658
sba(iBasisSets
PrimitiveFunction
p659
(dp660
g19
F349.80000000000001
sg20
S'S'
p661
sba(iBasisSets
PrimitiveFunction
p662
(dp663
g19
F126.3
sg20
S'S'
p664
sba(iBasisSets
PrimitiveFunction
p665
(dp666
g19
F49.259999999999998
sg20
S'S'
p667
sba(iBasisSets
PrimitiveFunction
p668
(dp669
g19
F20.16
sg20
S'S'
p670
sba(iBasisSets
PrimitiveFunction
p671
(dp672
g19
F5.7199999999999998
sg20
S'S'
p673
sba(iBasisSets
PrimitiveFunction
p674
(dp675
g19
F2.1819999999999999
sg20
S'S'
p676
sba(iBasisSets
PrimitiveFunction
p677
(dp678
g19
F0.43269999999999997
sg20
S'S'
p679
sba(iBasisSets
PrimitiveFunction
p680
(dp681
g19
F0.157
sg20
S'S'
p682
sbasg20
S'S'
p683
sba(iBasisSets
BasisFunction
p684
(dp685
g13
(lp686
F-6.8703900000000005e-05
aF-0.00052768100000000001
aF-0.00279671
aF-0.0112651
aF-0.038883399999999999
aF-0.099502499999999994
aF-0.19974
aF-0.12336
aF0.51319400000000004
aF0.60711999999999999
aF0.039675299999999997
aF-0.0094686400000000004
asg15
(lp687
(iBasisSets
PrimitiveFunction
p688
(dp689
g19
F110800.0
sg20
S'S'
p690
sba(iBasisSets
PrimitiveFunction
p691
(dp692
g19
F16610.0
sg20
S'S'
p693
sba(iBasisSets
PrimitiveFunction
p694
(dp695
g19
F3781.0
sg20
S'S'
p696
sba(iBasisSets
PrimitiveFunction
p697
(dp698
g19
F1071.0
sg20
S'S'
p699
sba(iBasisSets
PrimitiveFunction
p700
(dp701
g19
F349.80000000000001
sg20
S'S'
p702
sba(iBasisSets
PrimitiveFunction
p703
(dp704
g19
F126.3
sg20
S'S'
p705
sba(iBasisSets
PrimitiveFunction
p706
(dp707
g19
F49.259999999999998
sg20
S'S'
p708
sba(iBasisSets
PrimitiveFunction
p709
(dp710
g19
F20.16
sg20
S'S'
p711
sba(iBasisSets
PrimitiveFunction
p712
(dp713
g19
F5.7199999999999998
sg20
S'S'
p714
sba(iBasisSets
PrimitiveFunction
p715
(dp716
g19
F2.1819999999999999
sg20
S'S'
p717
sba(iBasisSets
PrimitiveFunction
p718
(dp719
g19
F0.43269999999999997
sg20
S'S'
p720
sba(iBasisSets
PrimitiveFunction
p721
(dp722
g19
F0.157
sg20
S'S'
p723
sbasg20
S'S'
p724
sba(iBasisSets
BasisFunction
p725
(dp726
g13
(lp727
F1.9907699999999999e-05
aF0.00015348299999999999
aF0.00080950300000000005
aF0.0032897400000000002
aF0.0112967
aF0.029638500000000002
aF0.0599851
aF0.041324800000000002
aF-0.20747399999999999
aF-0.39288899999999999
aF0.63283999999999996
aF0.55692399999999997
asg15
(lp728
(iBasisSets
PrimitiveFunction
p729
(dp730
g19
F110800.0
sg20
S'S'
p731
sba(iBasisSets
PrimitiveFunction
p732
(dp733
g19
F16610.0
sg20
S'S'
p734
sba(iBasisSets
PrimitiveFunction
p735
(dp736
g19
F3781.0
sg20
S'S'
p737
sba(iBasisSets
PrimitiveFunction
p738
(dp739
g19
F1071.0
sg20
S'S'
p740
sba(iBasisSets
PrimitiveFunction
p741
(dp742
g19
F349.80000000000001
sg20
S'S'
p743
sba(iBasisSets
PrimitiveFunction
p744
(dp745
g19
F126.3
sg20
S'S'
p746
sba(iBasisSets
PrimitiveFunction
p747
(dp748
g19
F49.259999999999998
sg20
S'S'
p749
sba(iBasisSets
PrimitiveFunction
p750
(dp751
g19
F20.16
sg20
S'S'
p752
sba(iBasisSets
PrimitiveFunction
p753
(dp754
g19
F5.7199999999999998
sg20
S'S'
p755
sba(iBasisSets
PrimitiveFunction
p756
(dp757
g19
F2.1819999999999999
sg20
S'S'
p758
sba(iBasisSets
PrimitiveFunction
p759
(dp760
g19
F0.43269999999999997
sg20
S'S'
p761
sba(iBasisSets
PrimitiveFunction
p762
(dp763
g19
F0.157
sg20
S'S'
p764
sbasg20
S'S'
p765
sba(iBasisSets
BasisFunction
p766
(dp767
g13
(lp768
F1.0
asg15
(lp769
(iBasisSets
PrimitiveFunction
p770
(dp771
g19
F0.157
sg20
S'S'
p772
sbasg20
S'S'
p773
sba(iBasisSets
BasisFunction
p774
(dp775
g13
(lp776
F1.0
asg15
(lp777
(iBasisSets
PrimitiveFunction
p778
(dp779
g19
F6.5010000000000003
sg20
S'S'
p780
sbasg20
S'S'
p781
sbasg130
(lp782
(iBasisSets
BasisFunction
p783
(dp784
g13
(lp785
F1.0
asg15
(lp786
(iBasisSets
PrimitiveFunction
p787
(dp788
g19
F0.47899999999999998
sg20
S'D'
p789
sbasg20
S'D'
p790
sba(iBasisSets
BasisFunction
p791
(dp792
g13
(lp793
F1.0
asg15
(lp794
(iBasisSets
PrimitiveFunction
p795
(dp796
g19
F3.2109999999999999
sg20
S'D'
p797
sbasg20
S'D'
p798
sbassbssb.