ccopy_reg
_reconstructor
p0
(cbasisset
BasisSet
p1
c__builtin__
object
p2
Ntp3
Rp4
(dp5
S'basisDictionary'
p6
(dp7
VC
p8
(lp9
g0
(cbasisset
Shell
p10
g2
Ntp11
Rp12
(dp13
S'angularMomentum'
p14
VS
p15
sS'exponents'
p16
(lp17
F5.2227300000000003
asS'coefficients'
p18
(lp19
(lp20
F1.0
aasS'atom'
p21
V C
p22
sbag0
(g10
g2
Ntp23
Rp24
(dp25
g14
g15
sg16
(lp26
F2.1604429999999999
asg18
(lp27
(lp28
F1.0
aasg21
g22
sbag0
(g10
g2
Ntp29
Rp30
(dp31
g14
g15
sg16
(lp32
F0.48707329999999999
asg18
(lp33
(lp34
F1.0
aasg21
g22
sbag0
(g10
g2
Ntp35
Rp36
(dp37
g14
g15
sg16
(lp38
F0.074325379999999996
asg18
(lp39
(lp40
F1.0
aasg21
g22
sbag0
(g10
g2
Ntp41
Rp42
(dp43
g14
VP
p44
sg16
(lp45
F2.0822919999999998
asg18
(lp46
(lp47
F1.0
aasg21
g22
sbag0
(g10
g2
Ntp48
Rp49
(dp50
g14
g44
sg16
(lp51
F0.57428789999999996
asg18
(lp52
(lp53
F1.0
aasg21
g22
sbag0
(g10
g2
Ntp54
Rp55
(dp56
g14
g44
sg16
(lp57
F0.25588889999999997
asg18
(lp58
(lp59
F1.0
aasg21
g22
sbag0
(g10
g2
Ntp60
Rp61
(dp62
g14
g44
sg16
(lp63
F0.080946190000000001
asg18
(lp64
(lp65
F1.0
aasg21
g22
sbag0
(g10
g2
Ntp66
Rp67
(dp68
g14
VD
p69
sg16
(lp70
F4.731509
asg18
(lp71
(lp72
F1.0
aasg21
g22
sbag0
(g10
g2
Ntp73
Rp74
(dp75
g14
g69
sg16
(lp76
F1.753517
asg18
(lp77
(lp78
F1.0
aasg21
g22
sbag0
(g10
g2
Ntp79
Rp80
(dp81
g14
g69
sg16
(lp82
F0.66659959999999996
asg18
(lp83
(lp84
F1.0
aasg21
g22
sbag0
(g10
g2
Ntp85
Rp86
(dp87
g14
g69
sg16
(lp88
F0.15548319999999999
asg18
(lp89
(lp90
F1.0
aasg21
g22
sbag0
(g10
g2
Ntp91
Rp92
(dp93
g14
VF
p94
sg16
(lp95
F3.0823399999999999
asg18
(lp96
(lp97
F1.0
aasg21
g22
sbag0
(g10
g2
Ntp98
Rp99
(dp100
g14
g94
sg16
(lp101
F1.0780909999999999
asg18
(lp102
(lp103
F1.0
aasg21
g22
sbag0
(g10
g2
Ntp104
Rp105
(dp106
g14
g94
sg16
(lp107
F0.4004624
asg18
(lp108
(lp109
F1.0
aasg21
g22
sbag0
(g10
g2
Ntp110
Rp111
(dp112
g14
VG
p113
sg16
(lp114
F1.042378
asg18
(lp115
(lp116
F1.0
aasg21
g22
sbasVB
p117
(lp118
g0
(g10
g2
Ntp119
Rp120
(dp121
g14
g15
sg16
(lp122
F3.8353109999999999
asg18
(lp123
(lp124
F1.0
aasg21
V B
p125
sbag0
(g10
g2
Ntp126
Rp127
(dp128
g14
g15
sg16
(lp129
F1.4183190000000001
asg18
(lp130
(lp131
F1.0
aasg21
g125
sbag0
(g10
g2
Ntp132
Rp133
(dp134
g14
g15
sg16
(lp135
F0.23227449999999999
asg18
(lp136
(lp137
F1.0
aasg21
g125
sbag0
(g10
g2
Ntp138
Rp139
(dp140
g14
g15
sg16
(lp141
F0.051302149999999998
asg18
(lp142
(lp143
F1.0
aasg21
g125
sbag0
(g10
g2
Ntp144
Rp145
(dp146
g14
g44
sg16
(lp147
F2.1069019999999998
asg18
(lp148
(lp149
F1.0
aasg21
g125
sbag0
(g10
g2
Ntp150
Rp151
(dp152
g14
g44
sg16
(lp153
F0.44531530000000003
asg18
(lp154
(lp155
F1.0
aasg21
g125
sbag0
(g10
g2
Ntp156
Rp157
(dp158
g14
g44
sg16
(lp159
F0.1375555
asg18
(lp160
(lp161
F1.0
aasg21
g125
sbag0
(g10
g2
Ntp162
Rp163
(dp164
g14
g44
sg16
(lp165
F0.039558530000000001
asg18
(lp166
(lp167
F1.0
aasg21
g125
sbag0
(g10
g2
Ntp168
Rp169
(dp170
g14
g69
sg16
(lp171
F2.4102969999999999
asg18
(lp172
(lp173
F1.0
aasg21
g125
sbag0
(g10
g2
Ntp174
Rp175
(dp176
g14
g69
sg16
(lp177
F1.2621789999999999
asg18
(lp178
(lp179
F1.0
aasg21
g125
sbag0
(g10
g2
Ntp180
Rp181
(dp182
g14
g69
sg16
(lp183
F0.44815270000000001
asg18
(lp184
(lp185
F1.0
aasg21
g125
sbag0
(g10
g2
Ntp186
Rp187
(dp188
g14
g69
sg16
(lp189
F0.1545639
asg18
(lp190
(lp191
F1.0
aasg21
g125
sbag0
(g10
g2
Ntp192
Rp193
(dp194
g14
g94
sg16
(lp195
F1.8285
asg18
(lp196
(lp197
F1.0
aasg21
g125
sbag0
(g10
g2
Ntp198
Rp199
(dp200
g14
g94
sg16
(lp201
F0.74310129999999996
asg18
(lp202
(lp203
F1.0
aasg21
g125
sbag0
(g10
g2
Ntp204
Rp205
(dp206
g14
g94
sg16
(lp207
F0.30226199999999998
asg18
(lp208
(lp209
F1.0
aasg21
g125
sbag0
(g10
g2
Ntp210
Rp211
(dp212
g14
g113
sg16
(lp213
F0.69402039999999998
asg18
(lp214
(lp215
F1.0
aasg21
g125
sbasg94
(lp216
g0
(g10
g2
Ntp217
Rp218
(dp219
g14
g15
sg16
(lp220
F14.72057
asg18
(lp221
(lp222
F1.0
aasg21
V F
p223
sbag0
(g10
g2
Ntp224
Rp225
(dp226
g14
g15
sg16
(lp227
F4.831321
asg18
(lp228
(lp229
F1.0
aasg21
g223
sbag0
(g10
g2
Ntp230
Rp231
(dp232
g14
g15
sg16
(lp233
F0.87970979999999999
asg18
(lp234
(lp235
F1.0
aasg21
g223
sbag0
(g10
g2
Ntp236
Rp237
(dp238
g14
g15
sg16
(lp239
F0.13644310000000001
asg18
(lp240
(lp241
F1.0
aasg21
g223
sbag0
(g10
g2
Ntp242
Rp243
(dp244
g14
g44
sg16
(lp245
F5.1686680000000003
asg18
(lp246
(lp247
F1.0
aasg21
g223
sbag0
(g10
g2
Ntp248
Rp249
(dp250
g14
g44
sg16
(lp251
F1.3548020000000001
asg18
(lp252
(lp253
F1.0
aasg21
g223
sbag0
(g10
g2
Ntp254
Rp255
(dp256
g14
g44
sg16
(lp257
F0.50233830000000002
asg18
(lp258
(lp259
F1.0
aasg21
g223
sbag0
(g10
g2
Ntp260
Rp261
(dp262
g14
g44
sg16
(lp263
F0.10948579999999999
asg18
(lp264
(lp265
F1.0
aasg21
g223
sbag0
(g10
g2
Ntp266
Rp267
(dp268
g14
g69
sg16
(lp269
F8.8138190000000005
asg18
(lp270
(lp271
F1.0
aasg21
g223
sbag0
(g10
g2
Ntp272
Rp273
(dp274
g14
g69
sg16
(lp275
F3.8697159999999999
asg18
(lp276
(lp277
F1.0
aasg21
g223
sbag0
(g10
g2
Ntp278
Rp279
(dp280
g14
g69
sg16
(lp281
F0.86712489999999998
asg18
(lp282
(lp283
F1.0
aasg21
g223
sbag0
(g10
g2
Ntp284
Rp285
(dp286
g14
g69
sg16
(lp287
F0.38277090000000003
asg18
(lp288
(lp289
F1.0
aasg21
g223
sbag0
(g10
g2
Ntp290
Rp291
(dp292
g14
g94
sg16
(lp293
F6.7988970000000002
asg18
(lp294
(lp295
F1.0
aasg21
g223
sbag0
(g10
g2
Ntp296
Rp297
(dp298
g14
g94
sg16
(lp299
F2.225527
asg18
(lp300
(lp301
F1.0
aasg21
g223
sbag0
(g10
g2
Ntp302
Rp303
(dp304
g14
g94
sg16
(lp305
F0.76440249999999998
asg18
(lp306
(lp307
F1.0
aasg21
g223
sbag0
(g10
g2
Ntp308
Rp309
(dp310
g14
g113
sg16
(lp311
F2.3745340000000001
asg18
(lp312
(lp313
F1.0
aasg21
g223
sbasVH
p314
(lp315
g0
(g10
g2
Ntp316
Rp317
(dp318
g14
g15
sg16
(lp319
F2.2968060000000001
asg18
(lp320
(lp321
F1.0
aasg21
V H
p322
sbag0
(g10
g2
Ntp323
Rp324
(dp325
g14
g15
sg16
(lp326
F0.78668539999999998
asg18
(lp327
(lp328
F1.0
aasg21
g322
sbag0
(g10
g2
Ntp329
Rp330
(dp331
g14
g15
sg16
(lp332
F0.1569516
asg18
(lp333
(lp334
F1.0
aasg21
g322
sbag0
(g10
g2
Ntp335
Rp336
(dp337
g14
g44
sg16
(lp338
F5.3139519999999996
asg18
(lp339
(lp340
F1.0
aasg21
g322
sbag0
(g10
g2
Ntp341
Rp342
(dp343
g14
g44
sg16
(lp344
F1.6549419999999999
asg18
(lp345
(lp346
F1.0
aasg21
g322
sbag0
(g10
g2
Ntp347
Rp348
(dp349
g14
g44
sg16
(lp350
F0.73627200000000004
asg18
(lp351
(lp352
F1.0
aasg21
g322
sbag0
(g10
g2
Ntp353
Rp354
(dp355
g14
g69
sg16
(lp356
F1.6617710000000001
asg18
(lp357
(lp358
F1.0
aasg21
g322
sbag0
(g10
g2
Ntp359
Rp360
(dp361
g14
g69
sg16
(lp362
F0.45850069999999998
asg18
(lp363
(lp364
F1.0
aasg21
g322
sbasVCL
p365
(lp366
g0
(g10
g2
Ntp367
Rp368
(dp369
g14
g15
sg16
(lp370
F9.4600059999999999
asg18
(lp371
(lp372
F1.0
aasg21
VCL
p373
sbag0
(g10
g2
Ntp374
Rp375
(dp376
g14
g15
sg16
(lp377
F2.0100349999999998
asg18
(lp378
(lp379
F1.0
aasg21
VCL
p380
sbag0
(g10
g2
Ntp381
Rp382
(dp383
g14
g15
sg16
(lp384
F0.4406755
asg18
(lp385
(lp386
F1.0
aasg21
VCL
p387
sbag0
(g10
g2
Ntp388
Rp389
(dp390
g14
g15
sg16
(lp391
F0.10540339999999999
asg18
(lp392
(lp393
F1.0
aasg21
VCL
p394
sbag0
(g10
g2
Ntp395
Rp396
(dp397
g14
g44
sg16
(lp398
F15.10317
asg18
(lp399
(lp400
F1.0
aasg21
VCL
p401
sbag0
(g10
g2
Ntp402
Rp403
(dp404
g14
g44
sg16
(lp405
F2.114878
asg18
(lp406
(lp407
F1.0
aasg21
VCL
p408
sbag0
(g10
g2
Ntp409
Rp410
(dp411
g14
g44
sg16
(lp412
F0.35974159999999999
asg18
(lp413
(lp414
F1.0
aasg21
VCL
p415
sbag0
(g10
g2
Ntp416
Rp417
(dp418
g14
g44
sg16
(lp419
F0.073130940000000005
asg18
(lp420
(lp421
F1.0
aasg21
VCL
p422
sbag0
(g10
g2
Ntp423
Rp424
(dp425
g14
g69
sg16
(lp426
F35.006459999999997
asg18
(lp427
(lp428
F1.0
aasg21
VCL
p429
sbag0
(g10
g2
Ntp430
Rp431
(dp432
g14
g69
sg16
(lp433
F10.352040000000001
asg18
(lp434
(lp435
F1.0
aasg21
VCL
p436
sbag0
(g10
g2
Ntp437
Rp438
(dp439
g14
g69
sg16
(lp440
F4.147621
asg18
(lp441
(lp442
F1.0
aasg21
VCL
p443
sbag0
(g10
g2
Ntp444
Rp445
(dp446
g14
g69
sg16
(lp447
F0.56123089999999998
asg18
(lp448
(lp449
F1.0
aasg21
VCL
p450
sbag0
(g10
g2
Ntp451
Rp452
(dp453
g14
g94
sg16
(lp454
F6.0226350000000002
asg18
(lp455
(lp456
F1.0
aasg21
VCL
p457
sbag0
(g10
g2
Ntp458
Rp459
(dp460
g14
g94
sg16
(lp461
F1.069364
asg18
(lp462
(lp463
F1.0
aasg21
VCL
p464
sbag0
(g10
g2
Ntp465
Rp466
(dp467
g14
g94
sg16
(lp468
F0.4213247
asg18
(lp469
(lp470
F1.0
aasg21
VCL
p471
sbag0
(g10
g2
Ntp472
Rp473
(dp474
g14
g113
sg16
(lp475
F0.91243719999999995
asg18
(lp476
(lp477
F1.0
aasg21
VCL
p478
sbasVAL
p479
(lp480
g0
(g10
g2
Ntp481
Rp482
(dp483
g14
g15
sg16
(lp484
F4.6195510000000004
asg18
(lp485
(lp486
F1.0
aasg21
VAL
p487
sbag0
(g10
g2
Ntp488
Rp489
(dp490
g14
g15
sg16
(lp491
F0.65822309999999995
asg18
(lp492
(lp493
F1.0
aasg21
VAL
p494
sbag0
(g10
g2
Ntp495
Rp496
(dp497
g14
g15
sg16
(lp498
F0.17501649999999999
asg18
(lp499
(lp500
F1.0
aasg21
VAL
p501
sbag0
(g10
g2
Ntp502
Rp503
(dp504
g14
g15
sg16
(lp505
F0.036828949999999999
asg18
(lp506
(lp507
F1.0
aasg21
VAL
p508
sbag0
(g10
g2
Ntp509
Rp510
(dp511
g14
g44
sg16
(lp512
F6.499987
asg18
(lp513
(lp514
F1.0
aasg21
VAL
p515
sbag0
(g10
g2
Ntp516
Rp517
(dp518
g14
g44
sg16
(lp519
F1.3871929999999999
asg18
(lp520
(lp521
F1.0
aasg21
VAL
p522
sbag0
(g10
g2
Ntp523
Rp524
(dp525
g14
g44
sg16
(lp526
F0.2287209
asg18
(lp527
(lp528
F1.0
aasg21
VAL
p529
sbag0
(g10
g2
Ntp530
Rp531
(dp532
g14
g44
sg16
(lp533
F0.029486950000000001
asg18
(lp534
(lp535
F1.0
aasg21
VAL
p536
sbag0
(g10
g2
Ntp537
Rp538
(dp539
g14
g69
sg16
(lp540
F5.9939439999999999
asg18
(lp541
(lp542
F1.0
aasg21
VAL
p543
sbag0
(g10
g2
Ntp544
Rp545
(dp546
g14
g69
sg16
(lp547
F3.0462769999999999
asg18
(lp548
(lp549
F1.0
aasg21
VAL
p550
sbag0
(g10
g2
Ntp551
Rp552
(dp553
g14
g69
sg16
(lp554
F0.70563589999999998
asg18
(lp555
(lp556
F1.0
aasg21
VAL
p557
sbag0
(g10
g2
Ntp558
Rp559
(dp560
g14
g69
sg16
(lp561
F0.20421110000000001
asg18
(lp562
(lp563
F1.0
aasg21
VAL
p564
sbag0
(g10
g2
Ntp565
Rp566
(dp567
g14
g94
sg16
(lp568
F1.1099680000000001
asg18
(lp569
(lp570
F1.0
aasg21
VAL
p571
sbag0
(g10
g2
Ntp572
Rp573
(dp574
g14
g94
sg16
(lp575
F0.43768580000000001
asg18
(lp576
(lp577
F1.0
aasg21
VAL
p578
sbag0
(g10
g2
Ntp579
Rp580
(dp581
g14
g94
sg16
(lp582
F0.18142040000000001
asg18
(lp583
(lp584
F1.0
aasg21
VAL
p585
sbag0
(g10
g2
Ntp586
Rp587
(dp588
g14
g113
sg16
(lp589
F0.32550760000000001
asg18
(lp590
(lp591
F1.0
aasg21
VAL
p592
sbasVO
p593
(lp594
g0
(g10
g2
Ntp595
Rp596
(dp597
g14
g15
sg16
(lp598
F13.756819999999999
asg18
(lp599
(lp600
F1.0
aasg21
V O
p601
sbag0
(g10
g2
Ntp602
Rp603
(dp604
g14
g15
sg16
(lp605
F2.646458
asg18
(lp606
(lp607
F1.0
aasg21
g601
sbag0
(g10
g2
Ntp608
Rp609
(dp610
g14
g15
sg16
(lp611
F1.024923
asg18
(lp612
(lp613
F1.0
aasg21
g601
sbag0
(g10
g2
Ntp614
Rp615
(dp616
g14
g15
sg16
(lp617
F0.12613920000000001
asg18
(lp618
(lp619
F1.0
aasg21
g601
sbag0
(g10
g2
Ntp620
Rp621
(dp622
g14
g44
sg16
(lp623
F5.8694740000000003
asg18
(lp624
(lp625
F1.0
aasg21
g601
sbag0
(g10
g2
Ntp626
Rp627
(dp628
g14
g44
sg16
(lp629
F1.07057
asg18
(lp630
(lp631
F1.0
aasg21
g601
sbag0
(g10
g2
Ntp632
Rp633
(dp634
g14
g44
sg16
(lp635
F0.32791700000000001
asg18
(lp636
(lp637
F1.0
aasg21
g601
sbag0
(g10
g2
Ntp638
Rp639
(dp640
g14
g44
sg16
(lp641
F0.1054653
asg18
(lp642
(lp643
F1.0
aasg21
g601
sbag0
(g10
g2
Ntp644
Rp645
(dp646
g14
g69
sg16
(lp647
F10.338979999999999
asg18
(lp648
(lp649
F1.0
aasg21
g601
sbag0
(g10
g2
Ntp650
Rp651
(dp652
g14
g69
sg16
(lp653
F3.4868049999999999
asg18
(lp654
(lp655
F1.0
aasg21
g601
sbag0
(g10
g2
Ntp656
Rp657
(dp658
g14
g69
sg16
(lp659
F0.83770579999999994
asg18
(lp660
(lp661
F1.0
aasg21
g601
sbag0
(g10
g2
Ntp662
Rp663
(dp664
g14
g69
sg16
(lp665
F0.23539979999999999
asg18
(lp666
(lp667
F1.0
aasg21
g601
sbag0
(g10
g2
Ntp668
Rp669
(dp670
g14
g94
sg16
(lp671
F5.3860760000000001
asg18
(lp672
(lp673
F1.0
aasg21
g601
sbag0
(g10
g2
Ntp674
Rp675
(dp676
g14
g94
sg16
(lp677
F1.7902359999999999
asg18
(lp678
(lp679
F1.0
aasg21
g601
sbag0
(g10
g2
Ntp680
Rp681
(dp682
g14
g94
sg16
(lp683
F0.62828189999999995
asg18
(lp684
(lp685
F1.0
aasg21
g601
sbag0
(g10
g2
Ntp686
Rp687
(dp688
g14
g113
sg16
(lp689
F1.8374740000000001
asg18
(lp690
(lp691
F1.0
aasg21
g601
sbasVNE
p692
(lp693
g0
(g10
g2
Ntp694
Rp695
(dp696
g14
g15
sg16
(lp697
F22.314440000000001
asg18
(lp698
(lp699
F1.0
aasg21
VNE
p700
sbag0
(g10
g2
Ntp701
Rp702
(dp703
g14
g15
sg16
(lp704
F9.0164000000000009
asg18
(lp705
(lp706
F1.0
aasg21
VNE
p707
sbag0
(g10
g2
Ntp708
Rp709
(dp710
g14
g15
sg16
(lp711
F1.154658
asg18
(lp712
(lp713
F1.0
aasg21
VNE
p714
sbag0
(g10
g2
Ntp715
Rp716
(dp717
g14
g15
sg16
(lp718
F0.24638070000000001
asg18
(lp719
(lp720
F1.0
aasg21
VNE
p721
sbag0
(g10
g2
Ntp722
Rp723
(dp724
g14
g44
sg16
(lp725
F6.9987979999999999
asg18
(lp726
(lp727
F1.0
aasg21
VNE
p728
sbag0
(g10
g2
Ntp729
Rp730
(dp731
g14
g44
sg16
(lp732
F1.710804
asg18
(lp733
(lp734
F1.0
aasg21
VNE
p735
sbag0
(g10
g2
Ntp736
Rp737
(dp738
g14
g44
sg16
(lp739
F0.70851909999999996
asg18
(lp740
(lp741
F1.0
aasg21
VNE
p742
sbag0
(g10
g2
Ntp743
Rp744
(dp745
g14
g44
sg16
(lp746
F0.17792250000000001
asg18
(lp747
(lp748
F1.0
aasg21
VNE
p749
sbag0
(g10
g2
Ntp750
Rp751
(dp752
g14
g69
sg16
(lp753
F11.093159999999999
asg18
(lp754
(lp755
F1.0
aasg21
VNE
p756
sbag0
(g10
g2
Ntp757
Rp758
(dp759
g14
g69
sg16
(lp760
F4.3792439999999999
asg18
(lp761
(lp762
F1.0
aasg21
VNE
p763
sbag0
(g10
g2
Ntp764
Rp765
(dp766
g14
g69
sg16
(lp767
F1.559531
asg18
(lp768
(lp769
F1.0
aasg21
VNE
p770
sbag0
(g10
g2
Ntp771
Rp772
(dp773
g14
g69
sg16
(lp774
F0.4773386
asg18
(lp775
(lp776
F1.0
aasg21
VNE
p777
sbag0
(g10
g2
Ntp778
Rp779
(dp780
g14
g94
sg16
(lp781
F8.4302390000000003
asg18
(lp782
(lp783
F1.0
aasg21
VNE
p784
sbag0
(g10
g2
Ntp785
Rp786
(dp787
g14
g94
sg16
(lp788
F2.7517740000000002
asg18
(lp789
(lp790
F1.0
aasg21
VNE
p791
sbag0
(g10
g2
Ntp792
Rp793
(dp794
g14
g94
sg16
(lp795
F0.92995930000000004
asg18
(lp796
(lp797
F1.0
aasg21
VNE
p798
sbag0
(g10
g2
Ntp799
Rp800
(dp801
g14
g113
sg16
(lp802
F2.8677250000000001
asg18
(lp803
(lp804
F1.0
aasg21
VNE
p805
sbasg44
(lp806
g0
(g10
g2
Ntp807
Rp808
(dp809
g14
g15
sg16
(lp810
F6.0884850000000004
asg18
(lp811
(lp812
F1.0
aasg21
V P
p813
sbag0
(g10
g2
Ntp814
Rp815
(dp816
g14
g15
sg16
(lp817
F1.0982719999999999
asg18
(lp818
(lp819
F1.0
aasg21
g813
sbag0
(g10
g2
Ntp820
Rp821
(dp822
g14
g15
sg16
(lp823
F0.25691649999999999
asg18
(lp824
(lp825
F1.0
aasg21
g813
sbag0
(g10
g2
Ntp826
Rp827
(dp828
g14
g15
sg16
(lp829
F0.062109900000000003
asg18
(lp830
(lp831
F1.0
aasg21
g813
sbag0
(g10
g2
Ntp832
Rp833
(dp834
g14
g44
sg16
(lp835
F12.083
asg18
(lp836
(lp837
F1.0
aasg21
g813
sbag0
(g10
g2
Ntp838
Rp839
(dp840
g14
g44
sg16
(lp841
F1.2019850000000001
asg18
(lp842
(lp843
F1.0
aasg21
g813
sbag0
(g10
g2
Ntp844
Rp845
(dp846
g14
g44
sg16
(lp847
F0.3012609
asg18
(lp848
(lp849
F1.0
aasg21
g813
sbag0
(g10
g2
Ntp850
Rp851
(dp852
g14
g44
sg16
(lp853
F0.063567899999999997
asg18
(lp854
(lp855
F1.0
aasg21
g813
sbag0
(g10
g2
Ntp856
Rp857
(dp858
g14
g69
sg16
(lp859
F11.910439999999999
asg18
(lp860
(lp861
F1.0
aasg21
g813
sbag0
(g10
g2
Ntp862
Rp863
(dp864
g14
g69
sg16
(lp865
F5.4138310000000001
asg18
(lp866
(lp867
F1.0
aasg21
g813
sbag0
(g10
g2
Ntp868
Rp869
(dp870
g14
g69
sg16
(lp871
F1.4110739999999999
asg18
(lp872
(lp873
F1.0
aasg21
g813
sbag0
(g10
g2
Ntp874
Rp875
(dp876
g14
g69
sg16
(lp877
F0.44005280000000002
asg18
(lp878
(lp879
F1.0
aasg21
g813
sbag0
(g10
g2
Ntp880
Rp881
(dp882
g14
g94
sg16
(lp883
F4.2592249999999998
asg18
(lp884
(lp885
F1.0
aasg21
g813
sbag0
(g10
g2
Ntp886
Rp887
(dp888
g14
g94
sg16
(lp889
F0.69834929999999995
asg18
(lp890
(lp891
F1.0
aasg21
g813
sbag0
(g10
g2
Ntp892
Rp893
(dp894
g14
g94
sg16
(lp895
F0.28817100000000001
asg18
(lp896
(lp897
F1.0
aasg21
g813
sbag0
(g10
g2
Ntp898
Rp899
(dp900
g14
g113
sg16
(lp901
F0.59618459999999995
asg18
(lp902
(lp903
F1.0
aasg21
g813
sbasg15
(lp904
g0
(g10
g2
Ntp905
Rp906
(dp907
g14
g15
sg16
(lp908
F7.5028509999999997
asg18
(lp909
(lp910
F1.0
aasg21
V S
p911
sbag0
(g10
g2
Ntp912
Rp913
(dp914
g14
g15
sg16
(lp915
F1.5487109999999999
asg18
(lp916
(lp917
F1.0
aasg21
g911
sbag0
(g10
g2
Ntp918
Rp919
(dp920
g14
g15
sg16
(lp921
F0.36949700000000002
asg18
(lp922
(lp923
F1.0
aasg21
g911
sbag0
(g10
g2
Ntp924
Rp925
(dp926
g14
g15
sg16
(lp927
F0.076768600000000006
asg18
(lp928
(lp929
F1.0
aasg21
g911
sbag0
(g10
g2
Ntp930
Rp931
(dp932
g14
g44
sg16
(lp933
F12.75399
asg18
(lp934
(lp935
F1.0
aasg21
g911
sbag0
(g10
g2
Ntp936
Rp937
(dp938
g14
g44
sg16
(lp939
F1.788232
asg18
(lp940
(lp941
F1.0
aasg21
g911
sbag0
(g10
g2
Ntp942
Rp943
(dp944
g14
g44
sg16
(lp945
F0.29698289999999999
asg18
(lp946
(lp947
F1.0
aasg21
g911
sbag0
(g10
g2
Ntp948
Rp949
(dp950
g14
g44
sg16
(lp951
F0.073206099999999996
asg18
(lp952
(lp953
F1.0
aasg21
g911
sbag0
(g10
g2
Ntp954
Rp955
(dp956
g14
g69
sg16
(lp957
F17.256270000000001
asg18
(lp958
(lp959
F1.0
aasg21
g911
sbag0
(g10
g2
Ntp960
Rp961
(dp962
g14
g69
sg16
(lp963
F6.7239500000000003
asg18
(lp964
(lp965
F1.0
aasg21
g911
sbag0
(g10
g2
Ntp966
Rp967
(dp968
g14
g69
sg16
(lp969
F1.5600430000000001
asg18
(lp970
(lp971
F1.0
aasg21
g911
sbag0
(g10
g2
Ntp972
Rp973
(dp974
g14
g69
sg16
(lp975
F0.49780219999999997
asg18
(lp976
(lp977
F1.0
aasg21
g911
sbag0
(g10
g2
Ntp978
Rp979
(dp980
g14
g94
sg16
(lp981
F4.846171
asg18
(lp982
(lp983
F1.0
aasg21
g911
sbag0
(g10
g2
Ntp984
Rp985
(dp986
g14
g94
sg16
(lp987
F0.89834789999999998
asg18
(lp988
(lp989
F1.0
aasg21
g911
sbag0
(g10
g2
Ntp990
Rp991
(dp992
g14
g94
sg16
(lp993
F0.36128670000000002
asg18
(lp994
(lp995
F1.0
aasg21
g911
sbag0
(g10
g2
Ntp996
Rp997
(dp998
g14
g113
sg16
(lp999
F0.74786900000000001
asg18
(lp1000
(lp1001
F1.0
aasg21
g911
sbasVAR
p1002
(lp1003
g0
(g10
g2
Ntp1004
Rp1005
(dp1006
g14
g15
sg16
(lp1007
F10.1447
asg18
(lp1008
(lp1009
F1.0
aasg21
VAR
p1010
sbag0
(g10
g2
Ntp1011
Rp1012
(dp1013
g14
g15
sg16
(lp1014
F1.9880679999999999
asg18
(lp1015
(lp1016
F1.0
aasg21
VAR
p1017
sbag0
(g10
g2
Ntp1018
Rp1019
(dp1020
g14
g15
sg16
(lp1021
F0.49342760000000002
asg18
(lp1022
(lp1023
F1.0
aasg21
VAR
p1024
sbag0
(g10
g2
Ntp1025
Rp1026
(dp1027
g14
g15
sg16
(lp1028
F0.111911
asg18
(lp1029
(lp1030
F1.0
aasg21
VAR
p1031
sbag0
(g10
g2
Ntp1032
Rp1033
(dp1034
g14
g44
sg16
(lp1035
F16.59122
asg18
(lp1036
(lp1037
F1.0
aasg21
VAR
p1038
sbag0
(g10
g2
Ntp1039
Rp1040
(dp1041
g14
g44
sg16
(lp1042
F2.205314
asg18
(lp1043
(lp1044
F1.0
aasg21
VAR
p1045
sbag0
(g10
g2
Ntp1046
Rp1047
(dp1048
g14
g44
sg16
(lp1049
F0.4765143
asg18
(lp1050
(lp1051
F1.0
aasg21
VAR
p1052
sbag0
(g10
g2
Ntp1053
Rp1054
(dp1055
g14
g44
sg16
(lp1056
F0.095148730000000001
asg18
(lp1057
(lp1058
F1.0
aasg21
VAR
p1059
sbag0
(g10
g2
Ntp1060
Rp1061
(dp1062
g14
g69
sg16
(lp1063
F38.062469999999998
asg18
(lp1064
(lp1065
F1.0
aasg21
VAR
p1066
sbag0
(g10
g2
Ntp1067
Rp1068
(dp1069
g14
g69
sg16
(lp1070
F13.408770000000001
asg18
(lp1071
(lp1072
F1.0
aasg21
VAR
p1073
sbag0
(g10
g2
Ntp1074
Rp1075
(dp1076
g14
g69
sg16
(lp1077
F5.246785
asg18
(lp1078
(lp1079
F1.0
aasg21
VAR
p1080
sbag0
(g10
g2
Ntp1081
Rp1082
(dp1083
g14
g69
sg16
(lp1084
F0.64385530000000002
asg18
(lp1085
(lp1086
F1.0
aasg21
VAR
p1087
sbag0
(g10
g2
Ntp1088
Rp1089
(dp1090
g14
g94
sg16
(lp1091
F7.1799229999999996
asg18
(lp1092
(lp1093
F1.0
aasg21
VAR
p1094
sbag0
(g10
g2
Ntp1095
Rp1096
(dp1097
g14
g94
sg16
(lp1098
F1.2607889999999999
asg18
(lp1099
(lp1100
F1.0
aasg21
VAR
p1101
sbag0
(g10
g2
Ntp1102
Rp1103
(dp1104
g14
g94
sg16
(lp1105
F0.49171809999999999
asg18
(lp1106
(lp1107
F1.0
aasg21
VAR
p1108
sbag0
(g10
g2
Ntp1109
Rp1110
(dp1111
g14
g113
sg16
(lp1112
F1.08392
asg18
(lp1113
(lp1114
F1.0
aasg21
VAR
p1115
sbasVN
p1116
(lp1117
g0
(g10
g2
Ntp1118
Rp1119
(dp1120
g14
g15
sg16
(lp1121
F8.2376459999999998
asg18
(lp1122
(lp1123
F1.0
aasg21
V N
p1124
sbag0
(g10
g2
Ntp1125
Rp1126
(dp1127
g14
g15
sg16
(lp1128
F1.9352750000000001
asg18
(lp1129
(lp1130
F1.0
aasg21
g1124
sbag0
(g10
g2
Ntp1131
Rp1132
(dp1133
g14
g15
sg16
(lp1134
F0.59176850000000003
asg18
(lp1135
(lp1136
F1.0
aasg21
g1124
sbag0
(g10
g2
Ntp1137
Rp1138
(dp1139
g14
g15
sg16
(lp1140
F0.1194033
asg18
(lp1141
(lp1142
F1.0
aasg21
g1124
sbag0
(g10
g2
Ntp1143
Rp1144
(dp1145
g14
g44
sg16
(lp1146
F3.1698080000000002
asg18
(lp1147
(lp1148
F1.0
aasg21
g1124
sbag0
(g10
g2
Ntp1149
Rp1150
(dp1151
g14
g44
sg16
(lp1152
F0.83129430000000004
asg18
(lp1153
(lp1154
F1.0
aasg21
g1124
sbag0
(g10
g2
Ntp1155
Rp1156
(dp1157
g14
g44
sg16
(lp1158
F0.25812259999999998
asg18
(lp1159
(lp1160
F1.0
aasg21
g1124
sbag0
(g10
g2
Ntp1161
Rp1162
(dp1163
g14
g44
sg16
(lp1164
F0.10594779999999999
asg18
(lp1165
(lp1166
F1.0
aasg21
g1124
sbag0
(g10
g2
Ntp1167
Rp1168
(dp1169
g14
g69
sg16
(lp1170
F7.5816679999999996
asg18
(lp1171
(lp1172
F1.0
aasg21
g1124
sbag0
(g10
g2
Ntp1173
Rp1174
(dp1175
g14
g69
sg16
(lp1176
F2.6919460000000002
asg18
(lp1177
(lp1178
F1.0
aasg21
g1124
sbag0
(g10
g2
Ntp1179
Rp1180
(dp1181
g14
g69
sg16
(lp1182
F0.89318319999999995
asg18
(lp1183
(lp1184
F1.0
aasg21
g1124
sbag0
(g10
g2
Ntp1185
Rp1186
(dp1187
g14
g69
sg16
(lp1188
F0.24231240000000001
asg18
(lp1189
(lp1190
F1.0
aasg21
g1124
sbag0
(g10
g2
Ntp1191
Rp1192
(dp1193
g14
g94
sg16
(lp1194
F3.9596360000000002
asg18
(lp1195
(lp1196
F1.0
aasg21
g1124
sbag0
(g10
g2
Ntp1197
Rp1198
(dp1199
g14
g94
sg16
(lp1200
F1.3253520000000001
asg18
(lp1201
(lp1202
F1.0
aasg21
g1124
sbag0
(g10
g2
Ntp1203
Rp1204
(dp1205
g14
g94
sg16
(lp1206
F0.46931489999999998
asg18
(lp1207
(lp1208
F1.0
aasg21
g1124
sbag0
(g10
g2
Ntp1209
Rp1210
(dp1211
g14
g113
sg16
(lp1212
F1.4040600000000001
asg18
(lp1213
(lp1214
F1.0
aasg21
g1124
sbasVSI
p1215
(lp1216
g0
(g10
g2
Ntp1217
Rp1218
(dp1219
g14
g15
sg16
(lp1220
F6.6811889999999998
asg18
(lp1221
(lp1222
F1.0
aasg21
VSI
p1223
sbag0
(g10
g2
Ntp1224
Rp1225
(dp1226
g14
g15
sg16
(lp1227
F0.66003330000000004
asg18
(lp1228
(lp1229
F1.0
aasg21
VSI
p1230
sbag0
(g10
g2
Ntp1231
Rp1232
(dp1233
g14
g15
sg16
(lp1234
F0.16095590000000001
asg18
(lp1235
(lp1236
F1.0
aasg21
VSI
p1237
sbag0
(g10
g2
Ntp1238
Rp1239
(dp1240
g14
g15
sg16
(lp1241
F0.050042410000000002
asg18
(lp1242
(lp1243
F1.0
aasg21
VSI
p1244
sbag0
(g10
g2
Ntp1245
Rp1246
(dp1247
g14
g44
sg16
(lp1248
F6.9064699999999997
asg18
(lp1249
(lp1250
F1.0
aasg21
VSI
p1251
sbag0
(g10
g2
Ntp1252
Rp1253
(dp1254
g14
g44
sg16
(lp1255
F1.0218240000000001
asg18
(lp1256
(lp1257
F1.0
aasg21
VSI
p1258
sbag0
(g10
g2
Ntp1259
Rp1260
(dp1261
g14
g44
sg16
(lp1262
F0.142711
asg18
(lp1263
(lp1264
F1.0
aasg21
VSI
p1265
sbag0
(g10
g2
Ntp1266
Rp1267
(dp1268
g14
g44
sg16
(lp1269
F0.040723620000000002
asg18
(lp1270
(lp1271
F1.0
aasg21
VSI
p1272
sbag0
(g10
g2
Ntp1273
Rp1274
(dp1275
g14
g69
sg16
(lp1276
F7.5055050000000003
asg18
(lp1277
(lp1278
F1.0
aasg21
VSI
p1279
sbag0
(g10
g2
Ntp1280
Rp1281
(dp1282
g14
g69
sg16
(lp1283
F4.9210229999999999
asg18
(lp1284
(lp1285
F1.0
aasg21
VSI
p1286
sbag0
(g10
g2
Ntp1287
Rp1288
(dp1289
g14
g69
sg16
(lp1290
F1.1546700000000001
asg18
(lp1291
(lp1292
F1.0
aasg21
VSI
p1293
sbag0
(g10
g2
Ntp1294
Rp1295
(dp1296
g14
g69
sg16
(lp1297
F0.36937310000000001
asg18
(lp1298
(lp1299
F1.0
aasg21
VSI
p1300
sbag0
(g10
g2
Ntp1301
Rp1302
(dp1303
g14
g94
sg16
(lp1304
F3.380074
asg18
(lp1305
(lp1306
F1.0
aasg21
VSI
p1307
sbag0
(g10
g2
Ntp1308
Rp1309
(dp1310
g14
g94
sg16
(lp1311
F0.56716370000000005
asg18
(lp1312
(lp1313
F1.0
aasg21
VSI
p1314
sbag0
(g10
g2
Ntp1315
Rp1316
(dp1317
g14
g94
sg16
(lp1318
F0.24187520000000001
asg18
(lp1319
(lp1320
F1.0
aasg21
VSI
p1321
sbag0
(g10
g2
Ntp1322
Rp1323
(dp1324
g14
g113
sg16
(lp1325
F0.45645140000000001
asg18
(lp1326
(lp1327
F1.0
aasg21
VSI
p1328
sbassb.