ccopy_reg
_reconstructor
p0
(cbasisset
BasisSet
p1
c__builtin__
object
p2
Ntp3
Rp4
(dp5
S'basisDictionary'
p6
(dp7
S'H'
p8
(lp9
g0
(cbasisset
Shell
p10
g2
Ntp11
Rp12
(dp13
S'angularMomentum'
p14
S'S'
p15
sS'exponents'
p16
(lp17
F82.640000000000001
aF12.41
aF2.8239999999999998
asS'coefficients'
p18
(lp19
(lp20
F0.002006
aF0.015343000000000001
aF0.075578999999999993
aasS'atom'
p21
S' H'
p22
sbag0
(g10
g2
Ntp23
Rp24
(dp25
g14
S'S'
p26
sg16
(lp27
F0.79769999999999996
asg18
(lp28
(lp29
F1.0
aasg21
S' H'
p30
sbag0
(g10
g2
Ntp31
Rp32
(dp33
g14
S'S'
p34
sg16
(lp35
F0.2581
asg18
(lp36
(lp37
F1.0
aasg21
S' H'
p38
sbag0
(g10
g2
Ntp39
Rp40
(dp41
g14
S'S'
p42
sg16
(lp43
F0.089889999999999998
asg18
(lp44
(lp45
F1.0
aasg21
S' H'
p46
sbag0
(g10
g2
Ntp47
Rp48
(dp49
g14
S'P'
p50
sg16
(lp51
F2.2919999999999998
asg18
(lp52
(lp53
F1.0
aasg21
S' H'
p54
sbag0
(g10
g2
Ntp55
Rp56
(dp57
g14
S'P'
p58
sg16
(lp59
F0.83799999999999997
asg18
(lp60
(lp61
F1.0
aasg21
S' H'
p62
sbag0
(g10
g2
Ntp63
Rp64
(dp65
g14
S'P'
p66
sg16
(lp67
F0.29199999999999998
asg18
(lp68
(lp69
F1.0
aasg21
S' H'
p70
sbag0
(g10
g2
Ntp71
Rp72
(dp73
g14
S'D'
p74
sg16
(lp75
F2.0619999999999998
asg18
(lp76
(lp77
F1.0
aasg21
S' H'
p78
sbag0
(g10
g2
Ntp79
Rp80
(dp81
g14
S'D'
p82
sg16
(lp83
F0.66200000000000003
asg18
(lp84
(lp85
F1.0
aasg21
S' H'
p86
sbag0
(g10
g2
Ntp87
Rp88
(dp89
g14
S'F'
p90
sg16
(lp91
F1.397
asg18
(lp92
(lp93
F1.0
aasg21
S' H'
p94
sbasS'C'
p95
(lp96
g0
(g10
g2
Ntp97
Rp98
(dp99
g14
S'S'
p100
sg16
(lp101
F33980.0
aF5089.0
aF1157.0
aF326.60000000000002
aF106.09999999999999
aF38.109999999999999
aF14.75
aF6.0350000000000001
aF2.5299999999999998
asg18
(lp102
(lp103
F9.1000000000000003e-05
aF0.00070399999999999998
aF0.0036930000000000001
aF0.01536
aF0.052928999999999997
aF0.14704300000000001
aF0.30563099999999999
aF0.39934500000000001
aF0.21705099999999999
aa(lp104
F-1.9000000000000001e-05
aF-0.00015100000000000001
aF-0.000785
aF-0.0033240000000000001
aF-0.011512
aF-0.034160000000000003
aF-0.077173000000000005
aF-0.14149300000000001
aF-0.118019
aasg21
S' C'
p105
sbag0
(g10
g2
Ntp106
Rp107
(dp108
g14
S'S'
p109
sg16
(lp110
F0.73550000000000004
asg18
(lp111
(lp112
F1.0
aasg21
S' C'
p113
sbag0
(g10
g2
Ntp114
Rp115
(dp116
g14
S'S'
p117
sg16
(lp118
F0.29049999999999998
asg18
(lp119
(lp120
F1.0
aasg21
S' C'
p121
sbag0
(g10
g2
Ntp122
Rp123
(dp124
g14
S'S'
p125
sg16
(lp126
F0.1111
asg18
(lp127
(lp128
F1.0
aasg21
S' C'
p129
sbag0
(g10
g2
Ntp130
Rp131
(dp132
g14
S'P'
p133
sg16
(lp134
F34.509999999999998
aF7.915
aF2.3679999999999999
asg18
(lp135
(lp136
F0.005378
aF0.036131999999999997
aF0.14249300000000001
aasg21
S' C'
p137
sbag0
(g10
g2
Ntp138
Rp139
(dp140
g14
S'P'
p141
sg16
(lp142
F0.81320000000000003
asg18
(lp143
(lp144
F1.0
aasg21
S' C'
p145
sbag0
(g10
g2
Ntp146
Rp147
(dp148
g14
S'P'
p149
sg16
(lp150
F0.28899999999999998
asg18
(lp151
(lp152
F1.0
aasg21
S' C'
p153
sbag0
(g10
g2
Ntp154
Rp155
(dp156
g14
S'P'
p157
sg16
(lp158
F0.1007
asg18
(lp159
(lp160
F1.0
aasg21
S' C'
p161
sbag0
(g10
g2
Ntp162
Rp163
(dp164
g14
S'D'
p165
sg16
(lp166
F1.8480000000000001
asg18
(lp167
(lp168
F1.0
aasg21
S' C'
p169
sbag0
(g10
g2
Ntp170
Rp171
(dp172
g14
S'D'
p173
sg16
(lp174
F0.64900000000000002
asg18
(lp175
(lp176
F1.0
aasg21
S' C'
p177
sbag0
(g10
g2
Ntp178
Rp179
(dp180
g14
S'D'
p181
sg16
(lp182
F0.22800000000000001
asg18
(lp183
(lp184
F1.0
aasg21
S' C'
p185
sbag0
(g10
g2
Ntp186
Rp187
(dp188
g14
S'F'
p189
sg16
(lp190
F1.419
asg18
(lp191
(lp192
F1.0
aasg21
S' C'
p193
sbag0
(g10
g2
Ntp194
Rp195
(dp196
g14
S'F'
p197
sg16
(lp198
F0.48499999999999999
asg18
(lp199
(lp200
F1.0
aasg21
S' C'
p201
sbag0
(g10
g2
Ntp202
Rp203
(dp204
g14
S'G'
p205
sg16
(lp206
F1.0109999999999999
asg18
(lp207
(lp208
F1.0
aasg21
S' C'
p209
sbag0
(g10
g2
Ntp210
Rp211
(dp212
g14
S'S'
p213
sg16
(lp214
F5.5839999999999996
asg18
(lp215
(lp216
F1.0
aasg21
S' C'
p217
sbag0
(g10
g2
Ntp218
Rp219
(dp220
g14
S'S'
p221
sg16
(lp222
F15.109
asg18
(lp223
(lp224
F1.0
aasg21
S' C'
p225
sbag0
(g10
g2
Ntp226
Rp227
(dp228
g14
S'S'
p229
sg16
(lp230
F40.881
asg18
(lp231
(lp232
F1.0
aasg21
S' C'
p233
sbag0
(g10
g2
Ntp234
Rp235
(dp236
g14
S'P'
p237
sg16
(lp238
F5.9960000000000004
asg18
(lp239
(lp240
F1.0
aasg21
S' C'
p241
sbag0
(g10
g2
Ntp242
Rp243
(dp244
g14
S'P'
p245
sg16
(lp246
F18.056999999999999
asg18
(lp247
(lp248
F1.0
aasg21
S' C'
p249
sbag0
(g10
g2
Ntp250
Rp251
(dp252
g14
S'P'
p253
sg16
(lp254
F54.381999999999998
asg18
(lp255
(lp256
F1.0
aasg21
S' C'
p257
sbag0
(g10
g2
Ntp258
Rp259
(dp260
g14
S'D'
p261
sg16
(lp262
F5.8879999999999999
asg18
(lp263
(lp264
F1.0
aasg21
S' C'
p265
sbag0
(g10
g2
Ntp266
Rp267
(dp268
g14
S'D'
p269
sg16
(lp270
F22.803999999999998
asg18
(lp271
(lp272
F1.0
aasg21
S' C'
p273
sbag0
(g10
g2
Ntp274
Rp275
(dp276
g14
S'F'
p277
sg16
(lp278
F6.1159999999999997
asg18
(lp279
(lp280
F1.0
aasg21
S' C'
p281
sbasS'S'
p282
(lp283
g0
(g10
g2
Ntp284
Rp285
(dp286
g14
S'S'
p287
sg16
(lp288
F727800.0
aF109000.0
aF24800.0
aF7014.0
aF2278.0
aF814.70000000000005
aF313.39999999999998
aF127.7
aF54.479999999999997
aF23.850000000000001
aF9.4280000000000008
aF4.29
aF1.909
asg18
(lp289
(lp290
F2.36025e-05
aF0.000183482
aF0.00096427800000000005
aF0.0040653699999999996
aF0.0146973
aF0.046508099999999997
aF0.12550800000000001
aF0.26843299999999998
aF0.38480900000000001
aF0.265372
aF0.043732600000000003
aF-0.0037880700000000002
aF0.0021808299999999999
aa(lp291
F-6.5217900000000001e-06
aF-5.0663099999999999e-05
aF-0.00026683300000000001
aF-0.00112601
aF-0.0041118600000000002
aF-0.013245399999999999
aF-0.037700400000000002
aF-0.089855400000000002
aF-0.167098
aF-0.169354
aF0.12782399999999999
aF0.56486199999999998
aF0.43176700000000001
aa(lp292
F1.89406e-06
aF1.46948e-05
aF7.7546000000000006e-05
aF0.000326509
aF0.0011968599999999999
aF0.0038479899999999999
aF0.0110539
aF0.026464499999999998
aF0.050877100000000001
aF0.053003000000000002
aF-0.042551800000000001
aF-0.25085299999999999
aF-0.333152
aasg21
S' S'
p293
sbag0
(g10
g2
Ntp294
Rp295
(dp296
g14
S'S'
p297
sg16
(lp298
F0.627
asg18
(lp299
(lp300
F1.0
aasg21
S' S'
p301
sbag0
(g10
g2
Ntp302
Rp303
(dp304
g14
S'S'
p305
sg16
(lp306
F0.2873
asg18
(lp307
(lp308
F1.0
aasg21
S' S'
p309
sbag0
(g10
g2
Ntp310
Rp311
(dp312
g14
S'S'
p313
sg16
(lp314
F0.1172
asg18
(lp315
(lp316
F1.0
aasg21
S' S'
p317
sbag0
(g10
g2
Ntp318
Rp319
(dp320
g14
S'P'
p321
sg16
(lp322
F1546.0
aF366.39999999999998
aF118.40000000000001
aF44.530000000000001
aF18.379999999999999
aF7.9649999999999999
aF3.5409999999999999
aF1.591
asg18
(lp323
(lp324
F0.00044118299999999999
aF0.0037757099999999998
aF0.019835999999999999
aF0.074206300000000003
aF0.197327
aF0.35185100000000002
aF0.378687
aF0.170931
aa(lp325
F-0.00011311000000000001
aF-0.00095858100000000002
aF-0.0051347099999999998
aF-0.019264099999999999
aF-0.053598
aF-0.096033300000000002
aF-0.118183
aF0.0092319399999999992
aasg21
S' S'
p326
sbag0
(g10
g2
Ntp327
Rp328
(dp329
g14
S'P'
p330
sg16
(lp331
F0.62050000000000005
asg18
(lp332
(lp333
F1.0
aasg21
S' S'
p334
sbag0
(g10
g2
Ntp335
Rp336
(dp337
g14
S'P'
p338
sg16
(lp339
F0.24199999999999999
asg18
(lp340
(lp341
F1.0
aasg21
S' S'
p342
sbag0
(g10
g2
Ntp343
Rp344
(dp345
g14
S'P'
p346
sg16
(lp347
F0.090139999999999998
asg18
(lp348
(lp349
F1.0
aasg21
S' S'
p350
sbag0
(g10
g2
Ntp351
Rp352
(dp353
g14
S'D'
p354
sg16
(lp355
F0.20300000000000001
asg18
(lp356
(lp357
F1.0
aasg21
S' S'
p358
sbag0
(g10
g2
Ntp359
Rp360
(dp361
g14
S'D'
p362
sg16
(lp363
F0.504
asg18
(lp364
(lp365
F1.0
aasg21
S' S'
p366
sbag0
(g10
g2
Ntp367
Rp368
(dp369
g14
S'D'
p370
sg16
(lp371
F1.25
asg18
(lp372
(lp373
F1.0
aasg21
S' S'
p374
sbag0
(g10
g2
Ntp375
Rp376
(dp377
g14
S'F'
p378
sg16
(lp379
F0.33500000000000002
asg18
(lp380
(lp381
F1.0
aasg21
S' S'
p382
sbag0
(g10
g2
Ntp383
Rp384
(dp385
g14
S'F'
p386
sg16
(lp387
F0.86899999999999999
asg18
(lp388
(lp389
F1.0
aasg21
S' S'
p390
sbag0
(g10
g2
Ntp391
Rp392
(dp393
g14
S'G'
p394
sg16
(lp395
F0.68300000000000005
asg18
(lp396
(lp397
F1.0
aasg21
S' S'
p398
sbag0
(g10
g2
Ntp399
Rp400
(dp401
g14
S'S'
p402
sg16
(lp403
F3.8069999999999999
asg18
(lp404
(lp405
F1.0
aasg21
S' S'
p406
sbag0
(g10
g2
Ntp407
Rp408
(dp409
g14
S'S'
p410
sg16
(lp411
F7.7800000000000002
asg18
(lp412
(lp413
F1.0
aasg21
S' S'
p414
sbag0
(g10
g2
Ntp415
Rp416
(dp417
g14
S'S'
p418
sg16
(lp419
F15.901
asg18
(lp420
(lp421
F1.0
aasg21
S' S'
p422
sbag0
(g10
g2
Ntp423
Rp424
(dp425
g14
S'P'
p426
sg16
(lp427
F3.5219999999999998
asg18
(lp428
(lp429
F1.0
aasg21
S' S'
p430
sbag0
(g10
g2
Ntp431
Rp432
(dp433
g14
S'P'
p434
sg16
(lp435
F7.5389999999999997
asg18
(lp436
(lp437
F1.0
aasg21
S' S'
p438
sbag0
(g10
g2
Ntp439
Rp440
(dp441
g14
S'P'
p442
sg16
(lp443
F16.138999999999999
asg18
(lp444
(lp445
F1.0
aasg21
S' S'
p446
sbag0
(g10
g2
Ntp447
Rp448
(dp449
g14
S'D'
p450
sg16
(lp451
F3.1160000000000001
asg18
(lp452
(lp453
F1.0
aasg21
S' S'
p454
sbag0
(g10
g2
Ntp455
Rp456
(dp457
g14
S'D'
p458
sg16
(lp459
F8.5239999999999991
asg18
(lp460
(lp461
F1.0
aasg21
S' S'
p462
sbag0
(g10
g2
Ntp463
Rp464
(dp465
g14
S'D'
p466
sg16
(lp467
F23.323
asg18
(lp468
(lp469
F1.0
aasg21
S' S'
p470
sbag0
(g10
g2
Ntp471
Rp472
(dp473
g14
S'F'
p474
sg16
(lp475
F2.8010000000000002
asg18
(lp476
(lp477
F1.0
aasg21
S' S'
p478
sbag0
(g10
g2
Ntp479
Rp480
(dp481
g14
S'F'
p482
sg16
(lp483
F12.702999999999999
asg18
(lp484
(lp485
F1.0
aasg21
S' S'
p486
sbag0
(g10
g2
Ntp487
Rp488
(dp489
g14
S'G'
p490
sg16
(lp491
F2.7389999999999999
asg18
(lp492
(lp493
F1.0
aasg21
S' S'
p494
sbasS'O'
p495
(lp496
g0
(g10
g2
Ntp497
Rp498
(dp499
g14
S'S'
p500
sg16
(lp501
F61420.0
aF9199.0
aF2091.0
aF590.89999999999998
aF192.30000000000001
aF69.319999999999993
aF26.969999999999999
aF11.1
aF4.6820000000000004
asg18
(lp502
(lp503
F9.0000000000000006e-05
aF0.00069800000000000005
aF0.0036640000000000002
aF0.015218000000000001
aF0.052422999999999997
aF0.145921
aF0.30525799999999997
aF0.39850799999999997
aF0.21698000000000001
aa(lp504
F-2.0000000000000002e-05
aF-0.00015899999999999999
aF-0.00082899999999999998
aF-0.0035079999999999998
aF-0.012156
aF-0.036261000000000002
aF-0.082991999999999996
aF-0.15209
aF-0.115331
aasg21
S' O'
p505
sbag0
(g10
g2
Ntp506
Rp507
(dp508
g14
S'S'
p509
sg16
(lp510
F1.4279999999999999
asg18
(lp511
(lp512
F1.0
aasg21
S' O'
p513
sbag0
(g10
g2
Ntp514
Rp515
(dp516
g14
S'S'
p517
sg16
(lp518
F0.55469999999999997
asg18
(lp519
(lp520
F1.0
aasg21
S' O'
p521
sbag0
(g10
g2
Ntp522
Rp523
(dp524
g14
S'S'
p525
sg16
(lp526
F0.20669999999999999
asg18
(lp527
(lp528
F1.0
aasg21
S' O'
p529
sbag0
(g10
g2
Ntp530
Rp531
(dp532
g14
S'P'
p533
sg16
(lp534
F63.420000000000002
aF14.66
aF4.4589999999999996
asg18
(lp535
(lp536
F0.0060439999999999999
aF0.041799000000000003
aF0.16114300000000001
aasg21
S' O'
p537
sbag0
(g10
g2
Ntp538
Rp539
(dp540
g14
S'P'
p541
sg16
(lp542
F1.5309999999999999
asg18
(lp543
(lp544
F1.0
aasg21
S' O'
p545
sbag0
(g10
g2
Ntp546
Rp547
(dp548
g14
S'P'
p549
sg16
(lp550
F0.5302
asg18
(lp551
(lp552
F1.0
aasg21
S' O'
p553
sbag0
(g10
g2
Ntp554
Rp555
(dp556
g14
S'P'
p557
sg16
(lp558
F0.17499999999999999
asg18
(lp559
(lp560
F1.0
aasg21
S' O'
p561
sbag0
(g10
g2
Ntp562
Rp563
(dp564
g14
S'D'
p565
sg16
(lp566
F3.7749999999999999
asg18
(lp567
(lp568
F1.0
aasg21
S' O'
p569
sbag0
(g10
g2
Ntp570
Rp571
(dp572
g14
S'D'
p573
sg16
(lp574
F1.3
asg18
(lp575
(lp576
F1.0
aasg21
S' O'
p577
sbag0
(g10
g2
Ntp578
Rp579
(dp580
g14
S'D'
p581
sg16
(lp582
F0.44400000000000001
asg18
(lp583
(lp584
F1.0
aasg21
S' O'
p585
sbag0
(g10
g2
Ntp586
Rp587
(dp588
g14
S'F'
p589
sg16
(lp590
F2.6659999999999999
asg18
(lp591
(lp592
F1.0
aasg21
S' O'
p593
sbag0
(g10
g2
Ntp594
Rp595
(dp596
g14
S'F'
p597
sg16
(lp598
F0.85899999999999999
asg18
(lp599
(lp600
F1.0
aasg21
S' O'
p601
sbag0
(g10
g2
Ntp602
Rp603
(dp604
g14
S'G'
p605
sg16
(lp606
F1.8460000000000001
asg18
(lp607
(lp608
F1.0
aasg21
S' O'
p609
sbag0
(g10
g2
Ntp610
Rp611
(dp612
g14
S'S'
p613
sg16
(lp614
F10.478
asg18
(lp615
(lp616
F1.0
aasg21
S' O'
p617
sbag0
(g10
g2
Ntp618
Rp619
(dp620
g14
S'S'
p621
sg16
(lp622
F27.314
asg18
(lp623
(lp624
F1.0
aasg21
S' O'
p625
sbag0
(g10
g2
Ntp626
Rp627
(dp628
g14
S'S'
p629
sg16
(lp630
F71.206000000000003
asg18
(lp631
(lp632
F1.0
aasg21
S' O'
p633
sbag0
(g10
g2
Ntp634
Rp635
(dp636
g14
S'P'
p637
sg16
(lp638
F11.161
asg18
(lp639
(lp640
F1.0
aasg21
S' O'
p641
sbag0
(g10
g2
Ntp642
Rp643
(dp644
g14
S'P'
p645
sg16
(lp646
F32.459000000000003
asg18
(lp647
(lp648
F1.0
aasg21
S' O'
p649
sbag0
(g10
g2
Ntp650
Rp651
(dp652
g14
S'P'
p653
sg16
(lp654
F94.397999999999996
asg18
(lp655
(lp656
F1.0
aasg21
S' O'
p657
sbag0
(g10
g2
Ntp658
Rp659
(dp660
g14
S'D'
p661
sg16
(lp662
F11.468999999999999
asg18
(lp663
(lp664
F1.0
aasg21
S' O'
p665
sbag0
(g10
g2
Ntp666
Rp667
(dp668
g14
S'D'
p669
sg16
(lp670
F39.238999999999997
asg18
(lp671
(lp672
F1.0
aasg21
S' O'
p673
sbag0
(g10
g2
Ntp674
Rp675
(dp676
g14
S'F'
p677
sg16
(lp678
F12.163
asg18
(lp679
(lp680
F1.0
aasg21
S' O'
p681
sbasS'N'
p682
(lp683
g0
(g10
g2
Ntp684
Rp685
(dp686
g14
S'S'
p687
sg16
(lp688
F45840.0
aF6868.0
aF1563.0
aF442.39999999999998
aF144.30000000000001
aF52.18
aF20.34
aF8.3810000000000002
aF3.5289999999999999
asg18
(lp689
(lp690
F9.2e-05
aF0.00071699999999999997
aF0.0037490000000000002
aF0.015532000000000001
aF0.053145999999999999
aF0.146787
aF0.30466300000000002
aF0.39768399999999998
aF0.217641
aa(lp691
F-2.0000000000000002e-05
aF-0.00015899999999999999
aF-0.00082399999999999997
aF-0.0034780000000000002
aF-0.011965999999999999
aF-0.035388000000000003
aF-0.080076999999999995
aF-0.14672199999999999
aF-0.11636000000000001
aasg21
S' N'
p692
sbag0
(g10
g2
Ntp693
Rp694
(dp695
g14
S'S'
p696
sg16
(lp697
F1.054
asg18
(lp698
(lp699
F1.0
aasg21
S' N'
p700
sbag0
(g10
g2
Ntp701
Rp702
(dp703
g14
S'S'
p704
sg16
(lp705
F0.4118
asg18
(lp706
(lp707
F1.0
aasg21
S' N'
p708
sbag0
(g10
g2
Ntp709
Rp710
(dp711
g14
S'S'
p712
sg16
(lp713
F0.1552
asg18
(lp714
(lp715
F1.0
aasg21
S' N'
p716
sbag0
(g10
g2
Ntp717
Rp718
(dp719
g14
S'P'
p720
sg16
(lp721
F49.329999999999998
aF11.369999999999999
aF3.4350000000000001
asg18
(lp722
(lp723
F0.0055329999999999997
aF0.037962000000000003
aF0.14902799999999999
aasg21
S' N'
p724
sbag0
(g10
g2
Ntp725
Rp726
(dp727
g14
S'P'
p728
sg16
(lp729
F1.1819999999999999
asg18
(lp730
(lp731
F1.0
aasg21
S' N'
p732
sbag0
(g10
g2
Ntp733
Rp734
(dp735
g14
S'P'
p736
sg16
(lp737
F0.4173
asg18
(lp738
(lp739
F1.0
aasg21
S' N'
p740
sbag0
(g10
g2
Ntp741
Rp742
(dp743
g14
S'P'
p744
sg16
(lp745
F0.14280000000000001
asg18
(lp746
(lp747
F1.0
aasg21
S' N'
p748
sbag0
(g10
g2
Ntp749
Rp750
(dp751
g14
S'D'
p752
sg16
(lp753
F2.8370000000000002
asg18
(lp754
(lp755
F1.0
aasg21
S' N'
p756
sbag0
(g10
g2
Ntp757
Rp758
(dp759
g14
S'D'
p760
sg16
(lp761
F0.96799999999999997
asg18
(lp762
(lp763
F1.0
aasg21
S' N'
p764
sbag0
(g10
g2
Ntp765
Rp766
(dp767
g14
S'D'
p768
sg16
(lp769
F0.33500000000000002
asg18
(lp770
(lp771
F1.0
aasg21
S' N'
p772
sbag0
(g10
g2
Ntp773
Rp774
(dp775
g14
S'F'
p776
sg16
(lp777
F2.0270000000000001
asg18
(lp778
(lp779
F1.0
aasg21
S' N'
p780
sbag0
(g10
g2
Ntp781
Rp782
(dp783
g14
S'F'
p784
sg16
(lp785
F0.68500000000000005
asg18
(lp786
(lp787
F1.0
aasg21
S' N'
p788
sbag0
(g10
g2
Ntp789
Rp790
(dp791
g14
S'G'
p792
sg16
(lp793
F1.427
asg18
(lp794
(lp795
F1.0
aasg21
S' N'
p796
sbag0
(g10
g2
Ntp797
Rp798
(dp799
g14
S'S'
p800
sg16
(lp801
F7.8289999999999997
asg18
(lp802
(lp803
F1.0
aasg21
S' N'
p804
sbag0
(g10
g2
Ntp805
Rp806
(dp807
g14
S'S'
p808
sg16
(lp809
F20.734999999999999
asg18
(lp810
(lp811
F1.0
aasg21
S' N'
p812
sbag0
(g10
g2
Ntp813
Rp814
(dp815
g14
S'S'
p816
sg16
(lp817
F54.917000000000002
asg18
(lp818
(lp819
F1.0
aasg21
S' N'
p820
sbag0
(g10
g2
Ntp821
Rp822
(dp823
g14
S'P'
p824
sg16
(lp825
F8.5540000000000003
asg18
(lp826
(lp827
F1.0
aasg21
S' N'
p828
sbag0
(g10
g2
Ntp829
Rp830
(dp831
g14
S'P'
p832
sg16
(lp833
F25.190000000000001
asg18
(lp834
(lp835
F1.0
aasg21
S' N'
p836
sbag0
(g10
g2
Ntp837
Rp838
(dp839
g14
S'P'
p840
sg16
(lp841
F74.185000000000002
asg18
(lp842
(lp843
F1.0
aasg21
S' N'
p844
sbag0
(g10
g2
Ntp845
Rp846
(dp847
g14
S'D'
p848
sg16
(lp849
F8.6929999999999996
asg18
(lp850
(lp851
F1.0
aasg21
S' N'
p852
sbag0
(g10
g2
Ntp853
Rp854
(dp855
g14
S'D'
p856
sg16
(lp857
F31.167000000000002
asg18
(lp858
(lp859
F1.0
aasg21
S' N'
p860
sbag0
(g10
g2
Ntp861
Rp862
(dp863
g14
S'F'
p864
sg16
(lp865
F8.9719999999999995
asg18
(lp866
(lp867
F1.0
aasg21
S' N'
p868
sbassb.