ccopy_reg
_reconstructor
p0
(cbasisset
BasisSet
p1
c__builtin__
object
p2
Ntp3
Rp4
(dp5
S'basisDictionary'
p6
(dp7
S'H'
p8
(lp9
g0
(cbasisset
Shell
p10
g2
Ntp11
Rp12
(dp13
S'angularMomentum'
p14
S'S'
p15
sS'exponents'
p16
(lp17
F13.01
aF1.962
aF0.4446
asS'coefficients'
p18
(lp19
(lp20
F0.019685000000000001
aF0.13797699999999999
aF0.47814800000000002
aasS'atom'
p21
S' H'
p22
sbag0
(g10
g2
Ntp23
Rp24
(dp25
g14
S'S'
p26
sg16
(lp27
F0.122
asg18
(lp28
(lp29
F1.0
aasg21
S' H'
p30
sbag0
(g10
g2
Ntp31
Rp32
(dp33
g14
S'P'
p34
sg16
(lp35
F0.72699999999999998
asg18
(lp36
(lp37
F1.0
aasg21
S' H'
p38
sbasS'C'
p39
(lp40
g0
(g10
g2
Ntp41
Rp42
(dp43
g14
S'S'
p44
sg16
(lp45
F6665.0
aF1000.0
aF228.0
aF64.709999999999994
aF21.059999999999999
aF7.4950000000000001
aF2.7970000000000002
aF0.52149999999999996
asg18
(lp46
(lp47
F0.00069200000000000002
aF0.0053290000000000004
aF0.027077
aF0.101718
aF0.27473999999999998
aF0.44856400000000002
aF0.28507399999999999
aF0.015204000000000001
aa(lp48
F-0.000146
aF-0.0011540000000000001
aF-0.0057250000000000001
aF-0.023311999999999999
aF-0.063954999999999998
aF-0.149981
aF-0.12726199999999999
aF0.54452900000000004
aasg21
S' C'
p49
sbag0
(g10
g2
Ntp50
Rp51
(dp52
g14
S'S'
p53
sg16
(lp54
F0.15959999999999999
asg18
(lp55
(lp56
F1.0
aasg21
S' C'
p57
sbag0
(g10
g2
Ntp58
Rp59
(dp60
g14
S'P'
p61
sg16
(lp62
F9.4390000000000001
aF2.0019999999999998
aF0.54559999999999997
asg18
(lp63
(lp64
F0.038108999999999997
aF0.20948
aF0.50855700000000004
aasg21
S' C'
p65
sbag0
(g10
g2
Ntp66
Rp67
(dp68
g14
S'P'
p69
sg16
(lp70
F0.1517
asg18
(lp71
(lp72
F1.0
aasg21
S' C'
p73
sbag0
(g10
g2
Ntp74
Rp75
(dp76
g14
S'D'
p77
sg16
(lp78
F0.55000000000000004
asg18
(lp79
(lp80
F1.0
aasg21
S' C'
p81
sbasS'S'
p82
(lp83
g0
(g10
g2
Ntp84
Rp85
(dp86
g14
S'S'
p87
sg16
(lp88
F110800.0
aF16610.0
aF3781.0
aF1071.0
aF349.80000000000001
aF126.3
aF49.259999999999998
aF20.16
aF5.7199999999999998
aF2.1819999999999999
aF0.43269999999999997
asg18
(lp89
(lp90
F0.00024763500000000001
aF0.00192026
aF0.0099619200000000008
aF0.0402975
aF0.128604
aF0.30348000000000003
aF0.42143199999999997
aF0.23078099999999999
aF0.017897099999999999
aF-0.0029751600000000001
aF0.00084952200000000002
aa(lp91
F-6.8703900000000005e-05
aF-0.00052768100000000001
aF-0.00279671
aF-0.0112651
aF-0.038883399999999999
aF-0.099502499999999994
aF-0.19974
aF-0.12336
aF0.51319400000000004
aF0.60711999999999999
aF0.039675299999999997
aa(lp92
F1.9907699999999999e-05
aF0.00015348299999999999
aF0.00080950300000000005
aF0.0032897400000000002
aF0.0112967
aF0.029638500000000002
aF0.0599851
aF0.041324800000000002
aF-0.20747399999999999
aF-0.39288899999999999
aF0.63283999999999996
aasg21
S' S'
p93
sbag0
(g10
g2
Ntp94
Rp95
(dp96
g14
S'S'
p97
sg16
(lp98
F0.157
asg18
(lp99
(lp100
F1.0
aasg21
S' S'
p101
sbag0
(g10
g2
Ntp102
Rp103
(dp104
g14
S'P'
p105
sg16
(lp106
F399.69999999999999
aF94.189999999999998
aF29.75
aF10.77
aF4.1189999999999998
aF1.625
aF0.47260000000000002
asg18
(lp107
(lp108
F0.00447541
aF0.034170800000000001
aF0.14424999999999999
aF0.35392800000000002
aF0.45908500000000002
aF0.20638300000000001
aF0.0102141
aa(lp109
F-0.0011625100000000001
aF-0.0086566400000000002
aF-0.039088600000000001
aF-0.093462500000000004
aF-0.14799399999999999
aF0.030190399999999999
aF0.56157299999999999
aasg21
S' S'
p110
sbag0
(g10
g2
Ntp111
Rp112
(dp113
g14
S'P'
p114
sg16
(lp115
F0.14069999999999999
asg18
(lp116
(lp117
F1.0
aasg21
S' S'
p118
sbag0
(g10
g2
Ntp119
Rp120
(dp121
g14
S'D'
p122
sg16
(lp123
F0.47899999999999998
asg18
(lp124
(lp125
F1.0
aasg21
S' S'
p126
sbasS'O'
p127
(lp128
g0
(g10
g2
Ntp129
Rp130
(dp131
g14
S'S'
p132
sg16
(lp133
F11720.0
aF1759.0
aF400.80000000000001
aF113.7
aF37.030000000000001
aF13.27
aF5.0250000000000004
aF1.0129999999999999
asg18
(lp134
(lp135
F0.00071000000000000002
aF0.00547
aF0.027837000000000001
aF0.1048
aF0.28306199999999998
aF0.44871899999999998
aF0.27095200000000003
aF0.015458
aa(lp136
F-0.00016000000000000001
aF-0.001263
aF-0.006267
aF-0.025715999999999999
aF-0.070924000000000001
aF-0.165411
aF-0.116955
aF0.55736799999999997
aasg21
S' O'
p137
sbag0
(g10
g2
Ntp138
Rp139
(dp140
g14
S'S'
p141
sg16
(lp142
F0.30230000000000001
asg18
(lp143
(lp144
F1.0
aasg21
S' O'
p145
sbag0
(g10
g2
Ntp146
Rp147
(dp148
g14
S'P'
p149
sg16
(lp150
F17.699999999999999
aF3.8540000000000001
aF1.046
asg18
(lp151
(lp152
F0.043018000000000001
aF0.22891300000000001
aF0.50872799999999996
aasg21
S' O'
p153
sbag0
(g10
g2
Ntp154
Rp155
(dp156
g14
S'P'
p157
sg16
(lp158
F0.27529999999999999
asg18
(lp159
(lp160
F1.0
aasg21
S' O'
p161
sbag0
(g10
g2
Ntp162
Rp163
(dp164
g14
S'D'
p165
sg16
(lp166
F1.1850000000000001
asg18
(lp167
(lp168
F1.0
aasg21
S' O'
p169
sbasS'N'
p170
(lp171
g0
(g10
g2
Ntp172
Rp173
(dp174
S'angularMomentum'
p175
S'S'
p176
sS'exponents'
p177
(lp178
F9046.0
asS'coefficients'
p179
(lp180
(lp181
F1.0
aasS'atom'
p182
S' N'
p183
sbag0
(g10
g2
Ntp184
Rp185
(dp186
g175
S'S'
p187
sg177
(lp188
F1357.0
asg179
(lp189
(lp190
F1.0
aasg182
S' N'
p191
sbag0
(g10
g2
Ntp192
Rp193
(dp194
g175
S'S'
p195
sg177
(lp196
F309.30000000000001
asg179
(lp197
(lp198
F1.0
aasg182
S' N'
p199
sbag0
(g10
g2
Ntp200
Rp201
(dp202
g175
S'S'
p203
sg177
(lp204
F87.730000000000004
asg179
(lp205
(lp206
F1.0
aasg182
S' N'
p207
sbag0
(g10
g2
Ntp208
Rp209
(dp210
g175
S'S'
p211
sg177
(lp212
F28.559999999999999
asg179
(lp213
(lp214
F1.0
aasg182
S' N'
p215
sbag0
(g10
g2
Ntp216
Rp217
(dp218
g175
S'S'
p219
sg177
(lp220
F10.210000000000001
asg179
(lp221
(lp222
F1.0
aasg182
S' N'
p223
sbag0
(g10
g2
Ntp224
Rp225
(dp226
g175
S'S'
p227
sg177
(lp228
F3.8380000000000001
asg179
(lp229
(lp230
F1.0
aasg182
S' N'
p231
sbag0
(g10
g2
Ntp232
Rp233
(dp234
g175
S'S'
p235
sg177
(lp236
F0.74660000000000004
asg179
(lp237
(lp238
F1.0
aasg182
S' N'
p239
sbag0
(g10
g2
Ntp240
Rp241
(dp242
g175
S'S'
p243
sg177
(lp244
F0.2248
asg179
(lp245
(lp246
F1.0
aasg182
S' N'
p247
sbag0
(g10
g2
Ntp248
Rp249
(dp250
g175
S'P'
p251
sg177
(lp252
F13.550000000000001
asg179
(lp253
(lp254
F1.0
aasg182
S' N'
p255
sbag0
(g10
g2
Ntp256
Rp257
(dp258
g175
S'P'
p259
sg177
(lp260
F2.9169999999999998
asg179
(lp261
(lp262
F1.0
aasg182
S' N'
p263
sbag0
(g10
g2
Ntp264
Rp265
(dp266
g175
S'P'
p267
sg177
(lp268
F0.79730000000000001
asg179
(lp269
(lp270
F1.0
aasg182
S' N'
p271
sbag0
(g10
g2
Ntp272
Rp273
(dp274
g175
S'P'
p275
sg177
(lp276
F0.2185
asg179
(lp277
(lp278
F1.0
aasg182
S' N'
p279
sbag0
(g10
g2
Ntp280
Rp281
(dp282
g175
S'D'
p283
sg177
(lp284
F0.81699999999999995
asg179
(lp285
(lp286
F1.0
aasg182
S' N'
p287
sbag0
(g10
g2
Ntp288
Rp289
(dp290
g175
S'S'
p291
sg177
(lp292
F99506.0
asg179
(lp293
(lp294
F1.0
aasg182
S'N'
p295
sbag0
(g10
g2
Ntp296
Rp297
(dp298
g175
S'S'
p299
sg177
(lp300
F235196.0
asg179
(lp301
(lp302
F1.0
aasg182
S'N'
p303
sbag0
(g10
g2
Ntp304
Rp305
(dp306
g175
S'P'
p307
sg177
(lp308
F81.300000000000011
asg179
(lp309
(lp310
F1.0
aasg182
S'N'
p311
sbag0
(g10
g2
Ntp312
Rp313
(dp314
g175
S'D'
p315
sg177
(lp316
F3.2679999999999998
asg179
(lp317
(lp318
F1.0
aasg182
S'N'
p319
sbassb.