(ibasisset
BasisSet
p0
(dp1
S'basisDictionary'
p2
(dp3
S'C'
p4
(iBasisSets
AtomBasis
p5
(dp6
S'basisDictionary'
p7
(dp8
S'D'
p9
(lp10
(iBasisSets
BasisFunction
p11
(dp12
S'coefficientList'
p13
(lp14
F1.0
asS'primitiveList'
p15
(lp16
(iBasisSets
PrimitiveFunction
p17
(dp18
S'exponent'
p19
F3.1339999999999999
sS'angularMomentum'
p20
S'D'
p21
sbasg20
S'D'
p22
sba(iBasisSets
BasisFunction
p23
(dp24
g13
(lp25
F1.0
asg15
(lp26
(iBasisSets
PrimitiveFunction
p27
(dp28
g19
F1.2330000000000001
sg20
S'D'
p29
sbasg20
S'D'
p30
sba(iBasisSets
BasisFunction
p31
(dp32
g13
(lp33
F1.0
asg15
(lp34
(iBasisSets
PrimitiveFunction
p35
(dp36
g19
F0.48499999999999999
sg20
S'D'
p37
sbasg20
S'D'
p38
sba(iBasisSets
BasisFunction
p39
(dp40
g13
(lp41
F1.0
asg15
(lp42
(iBasisSets
PrimitiveFunction
p43
(dp44
g19
F0.191
sg20
S'D'
p45
sbasg20
S'D'
p46
sba(iBasisSets
BasisFunction
p47
(dp48
g13
(lp49
F1.0
asg15
(lp50
(iBasisSets
PrimitiveFunction
p51
(dp52
g19
F7.5910000000000002
sg20
S'D'
p53
sbasg20
S'D'
p54
sba(iBasisSets
BasisFunction
p55
(dp56
g13
(lp57
F1.0
asg15
(lp58
(iBasisSets
PrimitiveFunction
p59
(dp60
g19
F21.419
sg20
S'D'
p61
sbasg20
S'D'
p62
sba(iBasisSets
BasisFunction
p63
(dp64
g13
(lp65
F1.0
asg15
(lp66
(iBasisSets
PrimitiveFunction
p67
(dp68
g19
F60.439
sg20
S'D'
p69
sbasg20
S'D'
p70
sbasS'G'
p71
(lp72
(iBasisSets
BasisFunction
p73
(dp74
g13
(lp75
F1.0
asg15
(lp76
(iBasisSets
PrimitiveFunction
p77
(dp78
g19
F1.7529999999999999
sg20
S'G'
p79
sbasg20
S'G'
p80
sba(iBasisSets
BasisFunction
p81
(dp82
g13
(lp83
F1.0
asg15
(lp84
(iBasisSets
PrimitiveFunction
p85
(dp86
g19
F0.67800000000000005
sg20
S'G'
p87
sbasg20
S'G'
p88
sba(iBasisSets
BasisFunction
p89
(dp90
g13
(lp91
F1.0
asg15
(lp92
(iBasisSets
PrimitiveFunction
p93
(dp94
g19
F7.3109999999999999
sg20
S'G'
p95
sbasg20
S'G'
p96
sbasS'F'
p97
(lp98
(iBasisSets
BasisFunction
p99
(dp100
g13
(lp101
F1.0
asg15
(lp102
(iBasisSets
PrimitiveFunction
p103
(dp104
g19
F2.0059999999999998
sg20
S'F'
p105
sbasg20
S'F'
p106
sba(iBasisSets
BasisFunction
p107
(dp108
g13
(lp109
F1.0
asg15
(lp110
(iBasisSets
PrimitiveFunction
p111
(dp112
g19
F0.83799999999999997
sg20
S'F'
p113
sbasg20
S'F'
p114
sba(iBasisSets
BasisFunction
p115
(dp116
g13
(lp117
F1.0
asg15
(lp118
(iBasisSets
PrimitiveFunction
p119
(dp120
g19
F0.34999999999999998
sg20
S'F'
p121
sbasg20
S'F'
p122
sba(iBasisSets
BasisFunction
p123
(dp124
g13
(lp125
F1.0
asg15
(lp126
(iBasisSets
PrimitiveFunction
p127
(dp128
g19
F6.6980000000000004
sg20
S'F'
p129
sbasg20
S'F'
p130
sba(iBasisSets
BasisFunction
p131
(dp132
g13
(lp133
F1.0
asg15
(lp134
(iBasisSets
PrimitiveFunction
p135
(dp136
g19
F24.398
sg20
S'F'
p137
sbasg20
S'F'
p138
sbasS'H'
p139
(lp140
(iBasisSets
BasisFunction
p141
(dp142
g13
(lp143
F1.0
asg15
(lp144
(iBasisSets
PrimitiveFunction
p145
(dp146
g19
F1.2589999999999999
sg20
S'H'
p147
sbasg20
S'H'
p148
sbasS'P'
p149
(lp150
(iBasisSets
BasisFunction
p151
(dp152
g13
(lp153
F0.00089099999999999997
aF0.0069760000000000004
aF0.031669000000000003
aF0.104006
aF0.24163299999999999
aF0.371946
aF0.35420000000000001
aF0.13156799999999999
asg15
(lp154
(iBasisSets
PrimitiveFunction
p155
(dp156
g19
F101.8
sg20
S'P'
p157
sba(iBasisSets
PrimitiveFunction
p158
(dp159
g19
F24.039999999999999
sg20
S'P'
p160
sba(iBasisSets
PrimitiveFunction
p161
(dp162
g19
F7.5709999999999997
sg20
S'P'
p163
sba(iBasisSets
PrimitiveFunction
p164
(dp165
g19
F2.7320000000000002
sg20
S'P'
p166
sba(iBasisSets
PrimitiveFunction
p167
(dp168
g19
F1.085
sg20
S'P'
p169
sba(iBasisSets
PrimitiveFunction
p170
(dp171
g19
F0.4496
sg20
S'P'
p172
sba(iBasisSets
PrimitiveFunction
p173
(dp174
g19
F0.18759999999999999
sg20
S'P'
p175
sba(iBasisSets
PrimitiveFunction
p176
(dp177
g19
F0.076060000000000003
sg20
S'P'
p178
sbasg20
S'P'
p179
sba(iBasisSets
BasisFunction
p180
(dp181
g13
(lp182
F1.0
asg15
(lp183
(iBasisSets
PrimitiveFunction
p184
(dp185
g19
F1.085
sg20
S'P'
p186
sbasg20
S'P'
p187
sba(iBasisSets
BasisFunction
p188
(dp189
g13
(lp190
F1.0
asg15
(lp191
(iBasisSets
PrimitiveFunction
p192
(dp193
g19
F0.4496
sg20
S'P'
p194
sbasg20
S'P'
p195
sba(iBasisSets
BasisFunction
p196
(dp197
g13
(lp198
F1.0
asg15
(lp199
(iBasisSets
PrimitiveFunction
p200
(dp201
g19
F0.18759999999999999
sg20
S'P'
p202
sbasg20
S'P'
p203
sba(iBasisSets
BasisFunction
p204
(dp205
g13
(lp206
F1.0
asg15
(lp207
(iBasisSets
PrimitiveFunction
p208
(dp209
g19
F0.076060000000000003
sg20
S'P'
p210
sbasg20
S'P'
p211
sba(iBasisSets
BasisFunction
p212
(dp213
g13
(lp214
F1.0
asg15
(lp215
(iBasisSets
PrimitiveFunction
p216
(dp217
g19
F6.0800000000000001
sg20
S'P'
p218
sbasg20
S'P'
p219
sba(iBasisSets
BasisFunction
p220
(dp221
g13
(lp222
F1.0
asg15
(lp223
(iBasisSets
PrimitiveFunction
p224
(dp225
g19
F15.358000000000001
sg20
S'P'
p226
sbasg20
S'P'
p227
sba(iBasisSets
BasisFunction
p228
(dp229
g13
(lp230
F1.0
asg15
(lp231
(iBasisSets
PrimitiveFunction
p232
(dp233
g19
F38.798999999999999
sg20
S'P'
p234
sbasg20
S'P'
p235
sba(iBasisSets
BasisFunction
p236
(dp237
g13
(lp238
F1.0
asg15
(lp239
(iBasisSets
PrimitiveFunction
p240
(dp241
g19
F98.016999999999996
sg20
S'P'
p242
sbasg20
S'P'
p243
sbasS'S'
p244
(lp245
(iBasisSets
BasisFunction
p246
(dp247
g13
(lp248
F2.5000000000000001e-05
aF0.00019000000000000001
aF0.001
aF0.0041830000000000001
aF0.014859000000000001
aF0.045301000000000001
aF0.116504
aF0.24024899999999999
aF0.35879899999999998
aF0.29394100000000001
aF0.077664999999999998
aF0.002333
aF0.00050500000000000002
aF3.0000000000000001e-05
asg15
(lp249
(iBasisSets
PrimitiveFunction
p250
(dp251
g19
F96770.0
sg20
S'S'
p252
sba(iBasisSets
PrimitiveFunction
p253
(dp254
g19
F14500.0
sg20
S'S'
p255
sba(iBasisSets
PrimitiveFunction
p256
(dp257
g19
F3300.0
sg20
S'S'
p258
sba(iBasisSets
PrimitiveFunction
p259
(dp260
g19
F935.79999999999995
sg20
S'S'
p261
sba(iBasisSets
PrimitiveFunction
p262
(dp263
g19
F306.19999999999999
sg20
S'S'
p264
sba(iBasisSets
PrimitiveFunction
p265
(dp266
g19
F111.3
sg20
S'S'
p267
sba(iBasisSets
PrimitiveFunction
p268
(dp269
g19
F43.899999999999999
sg20
S'S'
p270
sba(iBasisSets
PrimitiveFunction
p271
(dp272
g19
F18.399999999999999
sg20
S'S'
p273
sba(iBasisSets
PrimitiveFunction
p274
(dp275
g19
F8.0540000000000003
sg20
S'S'
p276
sba(iBasisSets
PrimitiveFunction
p277
(dp278
g19
F3.637
sg20
S'S'
p279
sba(iBasisSets
PrimitiveFunction
p280
(dp281
g19
F1.6559999999999999
sg20
S'S'
p282
sba(iBasisSets
PrimitiveFunction
p283
(dp284
g19
F0.63329999999999997
sg20
S'S'
p285
sba(iBasisSets
PrimitiveFunction
p286
(dp287
g19
F0.2545
sg20
S'S'
p288
sba(iBasisSets
PrimitiveFunction
p289
(dp290
g19
F0.1019
sg20
S'S'
p291
sbasg20
S'S'
p292
sba(iBasisSets
BasisFunction
p293
(dp294
g13
(lp295
F-5.0000000000000004e-06
aF-4.1e-05
aF-0.000213
aF-0.00089700000000000001
aF-0.0031870000000000002
aF-0.0099609999999999994
aF-0.026374999999999999
aF-0.060000999999999999
aF-0.106825
aF-0.14416599999999999
aF-0.024644200000000002
aF0.34900900000000001
aF0.55873700000000004
aF0.228102
asg15
(lp296
(iBasisSets
PrimitiveFunction
p297
(dp298
g19
F96770.0
sg20
S'S'
p299
sba(iBasisSets
PrimitiveFunction
p300
(dp301
g19
F14500.0
sg20
S'S'
p302
sba(iBasisSets
PrimitiveFunction
p303
(dp304
g19
F3300.0
sg20
S'S'
p305
sba(iBasisSets
PrimitiveFunction
p306
(dp307
g19
F935.79999999999995
sg20
S'S'
p308
sba(iBasisSets
PrimitiveFunction
p309
(dp310
g19
F306.19999999999999
sg20
S'S'
p311
sba(iBasisSets
PrimitiveFunction
p312
(dp313
g19
F111.3
sg20
S'S'
p314
sba(iBasisSets
PrimitiveFunction
p315
(dp316
g19
F43.899999999999999
sg20
S'S'
p317
sba(iBasisSets
PrimitiveFunction
p318
(dp319
g19
F18.399999999999999
sg20
S'S'
p320
sba(iBasisSets
PrimitiveFunction
p321
(dp322
g19
F8.0540000000000003
sg20
S'S'
p323
sba(iBasisSets
PrimitiveFunction
p324
(dp325
g19
F3.637
sg20
S'S'
p326
sba(iBasisSets
PrimitiveFunction
p327
(dp328
g19
F1.6559999999999999
sg20
S'S'
p329
sba(iBasisSets
PrimitiveFunction
p330
(dp331
g19
F0.63329999999999997
sg20
S'S'
p332
sba(iBasisSets
PrimitiveFunction
p333
(dp334
g19
F0.2545
sg20
S'S'
p335
sba(iBasisSets
PrimitiveFunction
p336
(dp337
g19
F0.1019
sg20
S'S'
p338
sbasg20
S'S'
p339
sba(iBasisSets
BasisFunction
p340
(dp341
g13
(lp342
F1.0
asg15
(lp343
(iBasisSets
PrimitiveFunction
p344
(dp345
g19
F1.6559999999999999
sg20
S'S'
p346
sbasg20
S'S'
p347
sba(iBasisSets
BasisFunction
p348
(dp349
g13
(lp350
F1.0
asg15
(lp351
(iBasisSets
PrimitiveFunction
p352
(dp353
g19
F0.63329999999999997
sg20
S'S'
p354
sbasg20
S'S'
p355
sba(iBasisSets
BasisFunction
p356
(dp357
g13
(lp358
F1.0
asg15
(lp359
(iBasisSets
PrimitiveFunction
p360
(dp361
g19
F0.2545
sg20
S'S'
p362
sbasg20
S'S'
p363
sba(iBasisSets
BasisFunction
p364
(dp365
g13
(lp366
F1.0
asg15
(lp367
(iBasisSets
PrimitiveFunction
p368
(dp369
g19
F0.1019
sg20
S'S'
p370
sbasg20
S'S'
p371
sba(iBasisSets
BasisFunction
p372
(dp373
g13
(lp374
F1.0
asg15
(lp375
(iBasisSets
PrimitiveFunction
p376
(dp377
g19
F7.9669999999999996
sg20
S'S'
p378
sbasg20
S'S'
p379
sba(iBasisSets
BasisFunction
p380
(dp381
g13
(lp382
F1.0
asg15
(lp383
(iBasisSets
PrimitiveFunction
p384
(dp385
g19
F17.452000000000002
sg20
S'S'
p386
sbasg20
S'S'
p387
sba(iBasisSets
BasisFunction
p388
(dp389
g13
(lp390
F1.0
asg15
(lp391
(iBasisSets
PrimitiveFunction
p392
(dp393
g19
F38.225999999999999
sg20
S'S'
p394
sbasg20
S'S'
p395
sba(iBasisSets
BasisFunction
p396
(dp397
g13
(lp398
F1.0
asg15
(lp399
(iBasisSets
PrimitiveFunction
p400
(dp401
g19
F83.730999999999995
sg20
S'S'
p402
sbasg20
S'S'
p403
sbassbsS'F'
p404
(iBasisSets
AtomBasis
p405
(dp406
g7
(dp407
g9
(lp408
(iBasisSets
BasisFunction
p409
(dp410
g13
(lp411
F1.0
asg15
(lp412
(iBasisSets
PrimitiveFunction
p413
(dp414
g19
F7.7599999999999998
sg20
S'D'
p415
sbasg20
S'D'
p416
sba(iBasisSets
BasisFunction
p417
(dp418
g13
(lp419
F1.0
asg15
(lp420
(iBasisSets
PrimitiveFunction
p421
(dp422
g19
F3.032
sg20
S'D'
p423
sbasg20
S'D'
p424
sba(iBasisSets
BasisFunction
p425
(dp426
g13
(lp427
F1.0
asg15
(lp428
(iBasisSets
PrimitiveFunction
p429
(dp430
g19
F1.1850000000000001
sg20
S'D'
p431
sbasg20
S'D'
p432
sba(iBasisSets
BasisFunction
p433
(dp434
g13
(lp435
F1.0
asg15
(lp436
(iBasisSets
PrimitiveFunction
p437
(dp438
g19
F0.46300000000000002
sg20
S'D'
p439
sbasg20
S'D'
p440
sba(iBasisSets
BasisFunction
p441
(dp442
g13
(lp443
F1.0
asg15
(lp444
(iBasisSets
PrimitiveFunction
p445
(dp446
g19
F18.332999999999998
sg20
S'D'
p447
sbasg20
S'D'
p448
sba(iBasisSets
BasisFunction
p449
(dp450
g13
(lp451
F1.0
asg15
(lp452
(iBasisSets
PrimitiveFunction
p453
(dp454
g19
F47.634
sg20
S'D'
p455
sbasg20
S'D'
p456
sba(iBasisSets
BasisFunction
p457
(dp458
g13
(lp459
F1.0
asg15
(lp460
(iBasisSets
PrimitiveFunction
p461
(dp462
g19
F123.771
sg20
S'D'
p463
sbasg20
S'D'
p464
sbasg71
(lp465
(iBasisSets
BasisFunction
p466
(dp467
g13
(lp468
F1.0
asg15
(lp469
(iBasisSets
PrimitiveFunction
p470
(dp471
g19
F4.3380000000000001
sg20
S'G'
p472
sbasg20
S'G'
p473
sba(iBasisSets
BasisFunction
p474
(dp475
g13
(lp476
F1.0
asg15
(lp477
(iBasisSets
PrimitiveFunction
p478
(dp479
g19
F1.5129999999999999
sg20
S'G'
p480
sbasg20
S'G'
p481
sba(iBasisSets
BasisFunction
p482
(dp483
g13
(lp484
F1.0
asg15
(lp485
(iBasisSets
PrimitiveFunction
p486
(dp487
g19
F19.609000000000002
sg20
S'G'
p488
sbasg20
S'G'
p489
sbasg97
(lp490
(iBasisSets
BasisFunction
p491
(dp492
g13
(lp493
F1.0
asg15
(lp494
(iBasisSets
PrimitiveFunction
p495
(dp496
g19
F5.3979999999999997
sg20
S'F'
p497
sbasg20
S'F'
p498
sba(iBasisSets
BasisFunction
p499
(dp500
g13
(lp501
F1.0
asg15
(lp502
(iBasisSets
PrimitiveFunction
p503
(dp504
g19
F2.0779999999999998
sg20
S'F'
p505
sbasg20
S'F'
p506
sba(iBasisSets
BasisFunction
p507
(dp508
g13
(lp509
F1.0
asg15
(lp510
(iBasisSets
PrimitiveFunction
p511
(dp512
g19
F0.80000000000000004
sg20
S'F'
p513
sbasg20
S'F'
p514
sba(iBasisSets
BasisFunction
p515
(dp516
g13
(lp517
F1.0
asg15
(lp518
(iBasisSets
PrimitiveFunction
p519
(dp520
g19
F16.646000000000001
sg20
S'F'
p521
sbasg20
S'F'
p522
sba(iBasisSets
BasisFunction
p523
(dp524
g13
(lp525
F1.0
asg15
(lp526
(iBasisSets
PrimitiveFunction
p527
(dp528
g19
F49.412999999999997
sg20
S'F'
p529
sbasg20
S'F'
p530
sbasg139
(lp531
(iBasisSets
BasisFunction
p532
(dp533
g13
(lp534
F1.0
asg15
(lp535
(iBasisSets
PrimitiveFunction
p536
(dp537
g19
F2.9950000000000001
sg20
S'H'
p538
sbasg20
S'H'
p539
sbasg149
(lp540
(iBasisSets
BasisFunction
p541
(dp542
g13
(lp543
F0.0010020000000000001
aF0.0080540000000000004
aF0.038047999999999998
aF0.123779
aF0.26606000000000002
aF0.37179600000000002
aF0.33289000000000002
aF0.12849099999999999
asg15
(lp544
(iBasisSets
PrimitiveFunction
p545
(dp546
g19
F241.90000000000001
sg20
S'P'
p547
sba(iBasisSets
PrimitiveFunction
p548
(dp549
g19
F57.170000000000002
sg20
S'P'
p550
sba(iBasisSets
PrimitiveFunction
p551
(dp552
g19
F18.129999999999999
sg20
S'P'
p553
sba(iBasisSets
PrimitiveFunction
p554
(dp555
g19
F6.6239999999999997
sg20
S'P'
p556
sba(iBasisSets
PrimitiveFunction
p557
(dp558
g19
F2.6219999999999999
sg20
S'P'
p559
sba(iBasisSets
PrimitiveFunction
p560
(dp561
g19
F1.0569999999999999
sg20
S'P'
p562
sba(iBasisSets
PrimitiveFunction
p563
(dp564
g19
F0.41760000000000003
sg20
S'P'
p565
sba(iBasisSets
PrimitiveFunction
p566
(dp567
g19
F0.15740000000000001
sg20
S'P'
p568
sbasg20
S'P'
p569
sba(iBasisSets
BasisFunction
p570
(dp571
g13
(lp572
F1.0
asg15
(lp573
(iBasisSets
PrimitiveFunction
p574
(dp575
g19
F2.6219999999999999
sg20
S'P'
p576
sbasg20
S'P'
p577
sba(iBasisSets
BasisFunction
p578
(dp579
g13
(lp580
F1.0
asg15
(lp581
(iBasisSets
PrimitiveFunction
p582
(dp583
g19
F1.0569999999999999
sg20
S'P'
p584
sbasg20
S'P'
p585
sba(iBasisSets
BasisFunction
p586
(dp587
g13
(lp588
F1.0
asg15
(lp589
(iBasisSets
PrimitiveFunction
p590
(dp591
g19
F0.41760000000000003
sg20
S'P'
p592
sbasg20
S'P'
p593
sba(iBasisSets
BasisFunction
p594
(dp595
g13
(lp596
F1.0
asg15
(lp597
(iBasisSets
PrimitiveFunction
p598
(dp599
g19
F0.15740000000000001
sg20
S'P'
p600
sbasg20
S'P'
p601
sba(iBasisSets
BasisFunction
p602
(dp603
g13
(lp604
F1.0
asg15
(lp605
(iBasisSets
PrimitiveFunction
p606
(dp607
g19
F14.547000000000001
sg20
S'P'
p608
sbasg20
S'P'
p609
sba(iBasisSets
BasisFunction
p610
(dp611
g13
(lp612
F1.0
asg15
(lp613
(iBasisSets
PrimitiveFunction
p614
(dp615
g19
F35.380000000000003
sg20
S'P'
p616
sbasg20
S'P'
p617
sba(iBasisSets
BasisFunction
p618
(dp619
g13
(lp620
F1.0
asg15
(lp621
(iBasisSets
PrimitiveFunction
p622
(dp623
g19
F86.051000000000002
sg20
S'P'
p624
sbasg20
S'P'
p625
sba(iBasisSets
BasisFunction
p626
(dp627
g13
(lp628
F1.0
asg15
(lp629
(iBasisSets
PrimitiveFunction
p630
(dp631
g19
F209.29300000000001
sg20
S'P'
p632
sbasg20
S'P'
p633
sbasg244
(lp634
(iBasisSets
BasisFunction
p635
(dp636
g13
(lp637
F2.5999999999999998e-05
aF0.00020100000000000001
aF0.0010560000000000001
aF0.0044320000000000002
aF0.015765999999999999
aF0.048112000000000002
aF0.12323199999999999
aF0.25151899999999999
aF0.36452499999999999
aF0.27976600000000001
aF0.063545000000000004
aF0.001111
aF0.001258
aF-3.4999999999999997e-05
asg15
(lp638
(iBasisSets
PrimitiveFunction
p639
(dp640
g19
F211400.0
sg20
S'S'
p641
sba(iBasisSets
PrimitiveFunction
p642
(dp643
g19
F31660.0
sg20
S'S'
p644
sba(iBasisSets
PrimitiveFunction
p645
(dp646
g19
F7202.0
sg20
S'S'
p647
sba(iBasisSets
PrimitiveFunction
p648
(dp649
g19
F2040.0
sg20
S'S'
p650
sba(iBasisSets
PrimitiveFunction
p651
(dp652
g19
F666.39999999999998
sg20
S'S'
p653
sba(iBasisSets
PrimitiveFunction
p654
(dp655
g19
F242.0
sg20
S'S'
p656
sba(iBasisSets
PrimitiveFunction
p657
(dp658
g19
F95.530000000000001
sg20
S'S'
p659
sba(iBasisSets
PrimitiveFunction
p660
(dp661
g19
F40.229999999999997
sg20
S'S'
p662
sba(iBasisSets
PrimitiveFunction
p663
(dp664
g19
F17.719999999999999
sg20
S'S'
p665
sba(iBasisSets
PrimitiveFunction
p666
(dp667
g19
F8.0050000000000008
sg20
S'S'
p668
sba(iBasisSets
PrimitiveFunction
p669
(dp670
g19
F3.5379999999999998
sg20
S'S'
p671
sba(iBasisSets
PrimitiveFunction
p672
(dp673
g19
F1.458
sg20
S'S'
p674
sba(iBasisSets
PrimitiveFunction
p675
(dp676
g19
F0.5887
sg20
S'S'
p677
sba(iBasisSets
PrimitiveFunction
p678
(dp679
g19
F0.2324
sg20
S'S'
p680
sbasg20
S'S'
p681
sba(iBasisSets
BasisFunction
p682
(dp683
g13
(lp684
F-6.0000000000000002e-06
aF-4.6999999999999997e-05
aF-0.00024399999999999999
aF-0.001031
aF-0.0036830000000000001
aF-0.011513000000000001
aF-0.030662999999999999
aF-0.069571999999999995
aF-0.123992
aF-0.15021399999999999
aF0.016459999999999999
aF0.39255000000000001
aF0.53216399999999997
aF0.196524
asg15
(lp685
(iBasisSets
PrimitiveFunction
p686
(dp687
g19
F211400.0
sg20
S'S'
p688
sba(iBasisSets
PrimitiveFunction
p689
(dp690
g19
F31660.0
sg20
S'S'
p691
sba(iBasisSets
PrimitiveFunction
p692
(dp693
g19
F7202.0
sg20
S'S'
p694
sba(iBasisSets
PrimitiveFunction
p695
(dp696
g19
F2040.0
sg20
S'S'
p697
sba(iBasisSets
PrimitiveFunction
p698
(dp699
g19
F666.39999999999998
sg20
S'S'
p700
sba(iBasisSets
PrimitiveFunction
p701
(dp702
g19
F242.0
sg20
S'S'
p703
sba(iBasisSets
PrimitiveFunction
p704
(dp705
g19
F95.530000000000001
sg20
S'S'
p706
sba(iBasisSets
PrimitiveFunction
p707
(dp708
g19
F40.229999999999997
sg20
S'S'
p709
sba(iBasisSets
PrimitiveFunction
p710
(dp711
g19
F17.719999999999999
sg20
S'S'
p712
sba(iBasisSets
PrimitiveFunction
p713
(dp714
g19
F8.0050000000000008
sg20
S'S'
p715
sba(iBasisSets
PrimitiveFunction
p716
(dp717
g19
F3.5379999999999998
sg20
S'S'
p718
sba(iBasisSets
PrimitiveFunction
p719
(dp720
g19
F1.458
sg20
S'S'
p721
sba(iBasisSets
PrimitiveFunction
p722
(dp723
g19
F0.5887
sg20
S'S'
p724
sba(iBasisSets
PrimitiveFunction
p725
(dp726
g19
F0.2324
sg20
S'S'
p727
sbasg20
S'S'
p728
sba(iBasisSets
BasisFunction
p729
(dp730
g13
(lp731
F1.0
asg15
(lp732
(iBasisSets
PrimitiveFunction
p733
(dp734
g19
F3.5379999999999998
sg20
S'S'
p735
sbasg20
S'S'
p736
sba(iBasisSets
BasisFunction
p737
(dp738
g13
(lp739
F1.0
asg15
(lp740
(iBasisSets
PrimitiveFunction
p741
(dp742
g19
F1.458
sg20
S'S'
p743
sbasg20
S'S'
p744
sba(iBasisSets
BasisFunction
p745
(dp746
g13
(lp747
F1.0
asg15
(lp748
(iBasisSets
PrimitiveFunction
p749
(dp750
g19
F0.5887
sg20
S'S'
p751
sbasg20
S'S'
p752
sba(iBasisSets
BasisFunction
p753
(dp754
g13
(lp755
F1.0
asg15
(lp756
(iBasisSets
PrimitiveFunction
p757
(dp758
g19
F0.2324
sg20
S'S'
p759
sbasg20
S'S'
p760
sba(iBasisSets
BasisFunction
p761
(dp762
g13
(lp763
F1.0
asg15
(lp764
(iBasisSets
PrimitiveFunction
p765
(dp766
g19
F16.248999999999999
sg20
S'S'
p767
sbasg20
S'S'
p768
sba(iBasisSets
BasisFunction
p769
(dp770
g13
(lp771
F1.0
asg15
(lp772
(iBasisSets
PrimitiveFunction
p773
(dp774
g19
F35.033000000000001
sg20
S'S'
p775
sbasg20
S'S'
p776
sba(iBasisSets
BasisFunction
p777
(dp778
g13
(lp779
F1.0
asg15
(lp780
(iBasisSets
PrimitiveFunction
p781
(dp782
g19
F75.531000000000006
sg20
S'S'
p783
sbasg20
S'S'
p784
sba(iBasisSets
BasisFunction
p785
(dp786
g13
(lp787
F1.0
asg15
(lp788
(iBasisSets
PrimitiveFunction
p789
(dp790
g19
F162.845
sg20
S'S'
p791
sbasg20
S'S'
p792
sbassbsS'H'
p793
(iBasisSets
AtomBasis
p794
(dp795
g7
(dp796
g149
(lp797
(iBasisSets
BasisFunction
p798
(dp799
g13
(lp800
F1.0
asg15
(lp801
(iBasisSets
PrimitiveFunction
p802
(dp803
g19
F4.516
sg20
S'P'
p804
sbasg20
S'P'
p805
sba(iBasisSets
BasisFunction
p806
(dp807
g13
(lp808
F1.0
asg15
(lp809
(iBasisSets
PrimitiveFunction
p810
(dp811
g19
F1.712
sg20
S'P'
p812
sbasg20
S'P'
p813
sba(iBasisSets
BasisFunction
p814
(dp815
g13
(lp816
F1.0
asg15
(lp817
(iBasisSets
PrimitiveFunction
p818
(dp819
g19
F0.64900000000000002
sg20
S'P'
p820
sbasg20
S'P'
p821
sba(iBasisSets
BasisFunction
p822
(dp823
g13
(lp824
F1.0
asg15
(lp825
(iBasisSets
PrimitiveFunction
p826
(dp827
g19
F0.246
sg20
S'P'
p828
sbasg20
S'P'
p829
sbasg244
(lp830
(iBasisSets
BasisFunction
p831
(dp832
g13
(lp833
F0.00027900000000000001
aF0.0021649999999999998
aF0.011200999999999999
aF0.044878000000000001
aF0.14229900000000001
aF0.33097900000000002
aF0.43626900000000002
aF0.17644000000000001
asg15
(lp834
(iBasisSets
PrimitiveFunction
p835
(dp836
g19
F402.0
sg20
S'S'
p837
sba(iBasisSets
PrimitiveFunction
p838
(dp839
g19
F60.240000000000002
sg20
S'S'
p840
sba(iBasisSets
PrimitiveFunction
p841
(dp842
g19
F13.73
sg20
S'S'
p843
sba(iBasisSets
PrimitiveFunction
p844
(dp845
g19
F3.9049999999999998
sg20
S'S'
p846
sba(iBasisSets
PrimitiveFunction
p847
(dp848
g19
F1.2829999999999999
sg20
S'S'
p849
sba(iBasisSets
PrimitiveFunction
p850
(dp851
g19
F0.46550000000000002
sg20
S'S'
p852
sba(iBasisSets
PrimitiveFunction
p853
(dp854
g19
F0.18110000000000001
sg20
S'S'
p855
sba(iBasisSets
PrimitiveFunction
p856
(dp857
g19
F0.072789999999999994
sg20
S'S'
p858
sbasg20
S'S'
p859
sba(iBasisSets
BasisFunction
p860
(dp861
g13
(lp862
F1.0
asg15
(lp863
(iBasisSets
PrimitiveFunction
p864
(dp865
g19
F1.2829999999999999
sg20
S'S'
p866
sbasg20
S'S'
p867
sba(iBasisSets
BasisFunction
p868
(dp869
g13
(lp870
F1.0
asg15
(lp871
(iBasisSets
PrimitiveFunction
p872
(dp873
g19
F0.46550000000000002
sg20
S'S'
p874
sbasg20
S'S'
p875
sba(iBasisSets
BasisFunction
p876
(dp877
g13
(lp878
F1.0
asg15
(lp879
(iBasisSets
PrimitiveFunction
p880
(dp881
g19
F0.18110000000000001
sg20
S'S'
p882
sbasg20
S'S'
p883
sba(iBasisSets
BasisFunction
p884
(dp885
g13
(lp886
F1.0
asg15
(lp887
(iBasisSets
PrimitiveFunction
p888
(dp889
g19
F0.072789999999999994
sg20
S'S'
p890
sbasg20
S'S'
p891
sbasg9
(lp892
(iBasisSets
BasisFunction
p893
(dp894
g13
(lp895
F1.0
asg15
(lp896
(iBasisSets
PrimitiveFunction
p897
(dp898
g19
F2.9500000000000002
sg20
S'D'
p899
sbasg20
S'D'
p900
sba(iBasisSets
BasisFunction
p901
(dp902
g13
(lp903
F1.0
asg15
(lp904
(iBasisSets
PrimitiveFunction
p905
(dp906
g19
F1.206
sg20
S'D'
p907
sbasg20
S'D'
p908
sba(iBasisSets
BasisFunction
p909
(dp910
g13
(lp911
F1.0
asg15
(lp912
(iBasisSets
PrimitiveFunction
p913
(dp914
g19
F0.49299999999999999
sg20
S'D'
p915
sbasg20
S'D'
p916
sbasg71
(lp917
(iBasisSets
BasisFunction
p918
(dp919
g13
(lp920
F1.0
asg15
(lp921
(iBasisSets
PrimitiveFunction
p922
(dp923
g19
F2.3580000000000001
sg20
S'G'
p924
sbasg20
S'G'
p925
sbasg97
(lp926
(iBasisSets
BasisFunction
p927
(dp928
g13
(lp929
F1.0
asg15
(lp930
(iBasisSets
PrimitiveFunction
p931
(dp932
g19
F2.5059999999999998
sg20
S'F'
p933
sbasg20
S'F'
p934
sba(iBasisSets
BasisFunction
p935
(dp936
g13
(lp937
F1.0
asg15
(lp938
(iBasisSets
PrimitiveFunction
p939
(dp940
g19
F0.875
sg20
S'F'
p941
sbasg20
S'F'
p942
sbassbsS'O'
p943
(iBasisSets
AtomBasis
p944
(dp945
g7
(dp946
g9
(lp947
(iBasisSets
BasisFunction
p948
(dp949
g13
(lp950
F1.0
asg15
(lp951
(iBasisSets
PrimitiveFunction
p952
(dp953
g19
F5.8789999999999996
sg20
S'D'
p954
sbasg20
S'D'
p955
sba(iBasisSets
BasisFunction
p956
(dp957
g13
(lp958
F1.0
asg15
(lp959
(iBasisSets
PrimitiveFunction
p960
(dp961
g19
F2.3069999999999999
sg20
S'D'
p962
sbasg20
S'D'
p963
sba(iBasisSets
BasisFunction
p964
(dp965
g13
(lp966
F1.0
asg15
(lp967
(iBasisSets
PrimitiveFunction
p968
(dp969
g19
F0.90500000000000003
sg20
S'D'
p970
sbasg20
S'D'
p971
sba(iBasisSets
BasisFunction
p972
(dp973
g13
(lp974
F1.0
asg15
(lp975
(iBasisSets
PrimitiveFunction
p976
(dp977
g19
F0.35499999999999998
sg20
S'D'
p978
sbasg20
S'D'
p979
sba(iBasisSets
BasisFunction
p980
(dp981
g13
(lp982
F1.0
asg15
(lp983
(iBasisSets
PrimitiveFunction
p984
(dp985
g19
F14.007999999999999
sg20
S'D'
p986
sbasg20
S'D'
p987
sba(iBasisSets
BasisFunction
p988
(dp989
g13
(lp990
F1.0
asg15
(lp991
(iBasisSets
PrimitiveFunction
p992
(dp993
g19
F37.244999999999997
sg20
S'D'
p994
sbasg20
S'D'
p995
sba(iBasisSets
BasisFunction
p996
(dp997
g13
(lp998
F1.0
asg15
(lp999
(iBasisSets
PrimitiveFunction
p1000
(dp1001
g19
F99.025999999999996
sg20
S'D'
p1002
sbasg20
S'D'
p1003
sbasg71
(lp1004
(iBasisSets
BasisFunction
p1005
(dp1006
g13
(lp1007
F1.0
asg15
(lp1008
(iBasisSets
PrimitiveFunction
p1009
(dp1010
g19
F3.3500000000000001
sg20
S'G'
p1011
sbasg20
S'G'
p1012
sba(iBasisSets
BasisFunction
p1013
(dp1014
g13
(lp1015
F1.0
asg15
(lp1016
(iBasisSets
PrimitiveFunction
p1017
(dp1018
g19
F1.1890000000000001
sg20
S'G'
p1019
sbasg20
S'G'
p1020
sba(iBasisSets
BasisFunction
p1021
(dp1022
g13
(lp1023
F1.0
asg15
(lp1024
(iBasisSets
PrimitiveFunction
p1025
(dp1026
g19
F14.885999999999999
sg20
S'G'
p1027
sbasg20
S'G'
p1028
sbasg97
(lp1029
(iBasisSets
BasisFunction
p1030
(dp1031
g13
(lp1032
F1.0
asg15
(lp1033
(iBasisSets
PrimitiveFunction
p1034
(dp1035
g19
F4.016
sg20
S'F'
p1036
sbasg20
S'F'
p1037
sba(iBasisSets
BasisFunction
p1038
(dp1039
g13
(lp1040
F1.0
asg15
(lp1041
(iBasisSets
PrimitiveFunction
p1042
(dp1043
g19
F1.554
sg20
S'F'
p1044
sbasg20
S'F'
p1045
sba(iBasisSets
BasisFunction
p1046
(dp1047
g13
(lp1048
F1.0
asg15
(lp1049
(iBasisSets
PrimitiveFunction
p1050
(dp1051
g19
F0.60099999999999998
sg20
S'F'
p1052
sbasg20
S'F'
p1053
sba(iBasisSets
BasisFunction
p1054
(dp1055
g13
(lp1056
F1.0
asg15
(lp1057
(iBasisSets
PrimitiveFunction
p1058
(dp1059
g19
F12.653
sg20
S'F'
p1060
sbasg20
S'F'
p1061
sba(iBasisSets
BasisFunction
p1062
(dp1063
g13
(lp1064
F1.0
asg15
(lp1065
(iBasisSets
PrimitiveFunction
p1066
(dp1067
g19
F38.737000000000002
sg20
S'F'
p1068
sbasg20
S'F'
p1069
sbasg139
(lp1070
(iBasisSets
BasisFunction
p1071
(dp1072
g13
(lp1073
F1.0
asg15
(lp1074
(iBasisSets
PrimitiveFunction
p1075
(dp1076
g19
F2.319
sg20
S'H'
p1077
sbasg20
S'H'
p1078
sbasg149
(lp1079
(iBasisSets
BasisFunction
p1080
(dp1081
g13
(lp1082
F0.00091799999999999998
aF0.0073879999999999996
aF0.034958000000000003
aF0.11543100000000001
aF0.256803
aF0.37393799999999999
aF0.343447
aF0.12970599999999999
asg15
(lp1083
(iBasisSets
PrimitiveFunction
p1084
(dp1085
g19
F195.5
sg20
S'P'
p1086
sba(iBasisSets
PrimitiveFunction
p1087
(dp1088
g19
F46.159999999999997
sg20
S'P'
p1089
sba(iBasisSets
PrimitiveFunction
p1090
(dp1091
g19
F14.58
sg20
S'P'
p1092
sba(iBasisSets
PrimitiveFunction
p1093
(dp1094
g19
F5.2960000000000003
sg20
S'P'
p1095
sba(iBasisSets
PrimitiveFunction
p1096
(dp1097
g19
F2.0939999999999999
sg20
S'P'
p1098
sba(iBasisSets
PrimitiveFunction
p1099
(dp1100
g19
F0.84709999999999996
sg20
S'P'
p1101
sba(iBasisSets
PrimitiveFunction
p1102
(dp1103
g19
F0.33679999999999999
sg20
S'P'
p1104
sba(iBasisSets
PrimitiveFunction
p1105
(dp1106
g19
F0.1285
sg20
S'P'
p1107
sbasg20
S'P'
p1108
sba(iBasisSets
BasisFunction
p1109
(dp1110
g13
(lp1111
F1.0
asg15
(lp1112
(iBasisSets
PrimitiveFunction
p1113
(dp1114
g19
F2.0939999999999999
sg20
S'P'
p1115
sbasg20
S'P'
p1116
sba(iBasisSets
BasisFunction
p1117
(dp1118
g13
(lp1119
F1.0
asg15
(lp1120
(iBasisSets
PrimitiveFunction
p1121
(dp1122
g19
F0.84709999999999996
sg20
S'P'
p1123
sbasg20
S'P'
p1124
sba(iBasisSets
BasisFunction
p1125
(dp1126
g13
(lp1127
F1.0
asg15
(lp1128
(iBasisSets
PrimitiveFunction
p1129
(dp1130
g19
F0.33679999999999999
sg20
S'P'
p1131
sbasg20
S'P'
p1132
sba(iBasisSets
BasisFunction
p1133
(dp1134
g13
(lp1135
F1.0
asg15
(lp1136
(iBasisSets
PrimitiveFunction
p1137
(dp1138
g19
F0.1285
sg20
S'P'
p1139
sbasg20
S'P'
p1140
sba(iBasisSets
BasisFunction
p1141
(dp1142
g13
(lp1143
F1.0
asg15
(lp1144
(iBasisSets
PrimitiveFunction
p1145
(dp1146
g19
F11.56
sg20
S'P'
p1147
sbasg20
S'P'
p1148
sba(iBasisSets
BasisFunction
p1149
(dp1150
g13
(lp1151
F1.0
asg15
(lp1152
(iBasisSets
PrimitiveFunction
p1153
(dp1154
g19
F28.321000000000002
sg20
S'P'
p1155
sbasg20
S'P'
p1156
sba(iBasisSets
BasisFunction
p1157
(dp1158
g13
(lp1159
F1.0
asg15
(lp1160
(iBasisSets
PrimitiveFunction
p1161
(dp1162
g19
F69.387
sg20
S'P'
p1163
sbasg20
S'P'
p1164
sba(iBasisSets
BasisFunction
p1165
(dp1166
g13
(lp1167
F1.0
asg15
(lp1168
(iBasisSets
PrimitiveFunction
p1169
(dp1170
g19
F169.99799999999999
sg20
S'P'
p1171
sbasg20
S'P'
p1172
sbasg244
(lp1173
(iBasisSets
BasisFunction
p1174
(dp1175
g13
(lp1176
F2.5999999999999998e-05
aF0.000205
aF0.0010759999999999999
aF0.004522
aF0.016108000000000001
aF0.049084999999999997
aF0.124857
aF0.25168600000000002
aF0.36242000000000002
aF0.27905099999999999
aF0.063551999999999997
aF0.0010629999999999999
aF0.0011440000000000001
aF-4.0000000000000003e-05
asg15
(lp1177
(iBasisSets
PrimitiveFunction
p1178
(dp1179
g19
F164200.0
sg20
S'S'
p1180
sba(iBasisSets
PrimitiveFunction
p1181
(dp1182
g19
F24590.0
sg20
S'S'
p1183
sba(iBasisSets
PrimitiveFunction
p1184
(dp1185
g19
F5592.0
sg20
S'S'
p1186
sba(iBasisSets
PrimitiveFunction
p1187
(dp1188
g19
F1582.0
sg20
S'S'
p1189
sba(iBasisSets
PrimitiveFunction
p1190
(dp1191
g19
F516.10000000000002
sg20
S'S'
p1192
sba(iBasisSets
PrimitiveFunction
p1193
(dp1194
g19
F187.19999999999999
sg20
S'S'
p1195
sba(iBasisSets
PrimitiveFunction
p1196
(dp1197
g19
F73.930000000000007
sg20
S'S'
p1198
sba(iBasisSets
PrimitiveFunction
p1199
(dp1200
g19
F31.219999999999999
sg20
S'S'
p1201
sba(iBasisSets
PrimitiveFunction
p1202
(dp1203
g19
F13.81
sg20
S'S'
p1204
sba(iBasisSets
PrimitiveFunction
p1205
(dp1206
g19
F6.2560000000000002
sg20
S'S'
p1207
sba(iBasisSets
PrimitiveFunction
p1208
(dp1209
g19
F2.7759999999999998
sg20
S'S'
p1210
sba(iBasisSets
PrimitiveFunction
p1211
(dp1212
g19
F1.1379999999999999
sg20
S'S'
p1213
sba(iBasisSets
PrimitiveFunction
p1214
(dp1215
g19
F0.46000000000000002
sg20
S'S'
p1216
sba(iBasisSets
PrimitiveFunction
p1217
(dp1218
g19
F0.18290000000000001
sg20
S'S'
p1219
sbasg20
S'S'
p1220
sba(iBasisSets
BasisFunction
p1221
(dp1222
g13
(lp1223
F-6.0000000000000002e-06
aF-4.6e-05
aF-0.00024399999999999999
aF-0.001031
aF-0.0036879999999999999
aF-0.011514
aF-0.030435
aF-0.068146999999999999
aF-0.120368
aF-0.14826
aF0.0099050000000000006
aF0.38428600000000002
aF0.53680499999999998
aF0.20268700000000001
asg15
(lp1224
(iBasisSets
PrimitiveFunction
p1225
(dp1226
g19
F164200.0
sg20
S'S'
p1227
sba(iBasisSets
PrimitiveFunction
p1228
(dp1229
g19
F24590.0
sg20
S'S'
p1230
sba(iBasisSets
PrimitiveFunction
p1231
(dp1232
g19
F5592.0
sg20
S'S'
p1233
sba(iBasisSets
PrimitiveFunction
p1234
(dp1235
g19
F1582.0
sg20
S'S'
p1236
sba(iBasisSets
PrimitiveFunction
p1237
(dp1238
g19
F516.10000000000002
sg20
S'S'
p1239
sba(iBasisSets
PrimitiveFunction
p1240
(dp1241
g19
F187.19999999999999
sg20
S'S'
p1242
sba(iBasisSets
PrimitiveFunction
p1243
(dp1244
g19
F73.930000000000007
sg20
S'S'
p1245
sba(iBasisSets
PrimitiveFunction
p1246
(dp1247
g19
F31.219999999999999
sg20
S'S'
p1248
sba(iBasisSets
PrimitiveFunction
p1249
(dp1250
g19
F13.81
sg20
S'S'
p1251
sba(iBasisSets
PrimitiveFunction
p1252
(dp1253
g19
F6.2560000000000002
sg20
S'S'
p1254
sba(iBasisSets
PrimitiveFunction
p1255
(dp1256
g19
F2.7759999999999998
sg20
S'S'
p1257
sba(iBasisSets
PrimitiveFunction
p1258
(dp1259
g19
F1.1379999999999999
sg20
S'S'
p1260
sba(iBasisSets
PrimitiveFunction
p1261
(dp1262
g19
F0.46000000000000002
sg20
S'S'
p1263
sba(iBasisSets
PrimitiveFunction
p1264
(dp1265
g19
F0.18290000000000001
sg20
S'S'
p1266
sbasg20
S'S'
p1267
sba(iBasisSets
BasisFunction
p1268
(dp1269
g13
(lp1270
F1.0
asg15
(lp1271
(iBasisSets
PrimitiveFunction
p1272
(dp1273
g19
F2.7759999999999998
sg20
S'S'
p1274
sbasg20
S'S'
p1275
sba(iBasisSets
BasisFunction
p1276
(dp1277
g13
(lp1278
F1.0
asg15
(lp1279
(iBasisSets
PrimitiveFunction
p1280
(dp1281
g19
F1.1379999999999999
sg20
S'S'
p1282
sbasg20
S'S'
p1283
sba(iBasisSets
BasisFunction
p1284
(dp1285
g13
(lp1286
F1.0
asg15
(lp1287
(iBasisSets
PrimitiveFunction
p1288
(dp1289
g19
F0.46000000000000002
sg20
S'S'
p1290
sbasg20
S'S'
p1291
sba(iBasisSets
BasisFunction
p1292
(dp1293
g13
(lp1294
F1.0
asg15
(lp1295
(iBasisSets
PrimitiveFunction
p1296
(dp1297
g19
F0.18290000000000001
sg20
S'S'
p1298
sbasg20
S'S'
p1299
sba(iBasisSets
BasisFunction
p1300
(dp1301
g13
(lp1302
F1.0
asg15
(lp1303
(iBasisSets
PrimitiveFunction
p1304
(dp1305
g19
F12.941000000000001
sg20
S'S'
p1306
sbasg20
S'S'
p1307
sba(iBasisSets
BasisFunction
p1308
(dp1309
g13
(lp1310
F1.0
asg15
(lp1311
(iBasisSets
PrimitiveFunction
p1312
(dp1313
g19
F28.199999999999999
sg20
S'S'
p1314
sbasg20
S'S'
p1315
sba(iBasisSets
BasisFunction
p1316
(dp1317
g13
(lp1318
F1.0
asg15
(lp1319
(iBasisSets
PrimitiveFunction
p1320
(dp1321
g19
F61.448999999999998
sg20
S'S'
p1322
sbasg20
S'S'
p1323
sba(iBasisSets
BasisFunction
p1324
(dp1325
g13
(lp1326
F1.0
asg15
(lp1327
(iBasisSets
PrimitiveFunction
p1328
(dp1329
g19
F133.90000000000001
sg20
S'S'
p1330
sbasg20
S'S'
p1331
sbassbsS'N'
p1332
(iBasisSets
AtomBasis
p1333
(dp1334
g7
(dp1335
g9
(lp1336
(iBasisSets
BasisFunction
p1337
(dp1338
g13
(lp1339
F1.0
asg15
(lp1340
(iBasisSets
PrimitiveFunction
p1341
(dp1342
g19
F4.6470000000000002
sg20
S'D'
p1343
sbasg20
S'D'
p1344
sba(iBasisSets
BasisFunction
p1345
(dp1346
g13
(lp1347
F1.0
asg15
(lp1348
(iBasisSets
PrimitiveFunction
p1349
(dp1350
g19
F1.8129999999999999
sg20
S'D'
p1351
sbasg20
S'D'
p1352
sba(iBasisSets
BasisFunction
p1353
(dp1354
g13
(lp1355
F1.0
asg15
(lp1356
(iBasisSets
PrimitiveFunction
p1357
(dp1358
g19
F0.70699999999999996
sg20
S'D'
p1359
sbasg20
S'D'
p1360
sba(iBasisSets
BasisFunction
p1361
(dp1362
g13
(lp1363
F1.0
asg15
(lp1364
(iBasisSets
PrimitiveFunction
p1365
(dp1366
g19
F0.27600000000000002
sg20
S'D'
p1367
sbasg20
S'D'
p1368
sba(iBasisSets
BasisFunction
p1369
(dp1370
g13
(lp1371
F1.0
asg15
(lp1372
(iBasisSets
PrimitiveFunction
p1373
(dp1374
g19
F11.016
sg20
S'D'
p1375
sbasg20
S'D'
p1376
sba(iBasisSets
BasisFunction
p1377
(dp1378
g13
(lp1379
F1.0
asg15
(lp1380
(iBasisSets
PrimitiveFunction
p1381
(dp1382
g19
F29.806000000000001
sg20
S'D'
p1383
sbasg20
S'D'
p1384
sba(iBasisSets
BasisFunction
p1385
(dp1386
g13
(lp1387
F1.0
asg15
(lp1388
(iBasisSets
PrimitiveFunction
p1389
(dp1390
g19
F80.643000000000001
sg20
S'D'
p1391
sbasg20
S'D'
p1392
sbasg71
(lp1393
(iBasisSets
BasisFunction
p1394
(dp1395
g13
(lp1396
F1.0
asg15
(lp1397
(iBasisSets
PrimitiveFunction
p1398
(dp1399
g19
F2.5110000000000001
sg20
S'G'
p1400
sbasg20
S'G'
p1401
sba(iBasisSets
BasisFunction
p1402
(dp1403
g13
(lp1404
F1.0
asg15
(lp1405
(iBasisSets
PrimitiveFunction
p1406
(dp1407
g19
F0.94199999999999995
sg20
S'G'
p1408
sbasg20
S'G'
p1409
sba(iBasisSets
BasisFunction
p1410
(dp1411
g13
(lp1412
F1.0
asg15
(lp1413
(iBasisSets
PrimitiveFunction
p1414
(dp1415
g19
F10.835000000000001
sg20
S'G'
p1416
sbasg20
S'G'
p1417
sbasg97
(lp1418
(iBasisSets
BasisFunction
p1419
(dp1420
g13
(lp1421
F1.0
asg15
(lp1422
(iBasisSets
PrimitiveFunction
p1423
(dp1424
g19
F2.9420000000000002
sg20
S'F'
p1425
sbasg20
S'F'
p1426
sba(iBasisSets
BasisFunction
p1427
(dp1428
g13
(lp1429
F1.0
asg15
(lp1430
(iBasisSets
PrimitiveFunction
p1431
(dp1432
g19
F1.204
sg20
S'F'
p1433
sbasg20
S'F'
p1434
sba(iBasisSets
BasisFunction
p1435
(dp1436
g13
(lp1437
F1.0
asg15
(lp1438
(iBasisSets
PrimitiveFunction
p1439
(dp1440
g19
F0.49299999999999999
sg20
S'F'
p1441
sbasg20
S'F'
p1442
sba(iBasisSets
BasisFunction
p1443
(dp1444
g13
(lp1445
F1.0
asg15
(lp1446
(iBasisSets
PrimitiveFunction
p1447
(dp1448
g19
F9.4860000000000007
sg20
S'F'
p1449
sbasg20
S'F'
p1450
sba(iBasisSets
BasisFunction
p1451
(dp1452
g13
(lp1453
F1.0
asg15
(lp1454
(iBasisSets
PrimitiveFunction
p1455
(dp1456
g19
F30.751999999999999
sg20
S'F'
p1457
sbasg20
S'F'
p1458
sbasg139
(lp1459
(iBasisSets
BasisFunction
p1460
(dp1461
g13
(lp1462
F1.0
asg15
(lp1463
(iBasisSets
PrimitiveFunction
p1464
(dp1465
g19
F1.768
sg20
S'H'
p1466
sbasg20
S'H'
p1467
sbasg149
(lp1468
(iBasisSets
BasisFunction
p1469
(dp1470
g13
(lp1471
F0.000892
aF0.0070819999999999998
aF0.032815999999999998
aF0.108209
aF0.24809400000000001
aF0.37451299999999998
aF0.348414
aF0.12834000000000001
asg15
(lp1472
(iBasisSets
PrimitiveFunction
p1473
(dp1474
g19
F147.0
sg20
S'P'
p1475
sba(iBasisSets
PrimitiveFunction
p1476
(dp1477
g19
F34.759999999999998
sg20
S'P'
p1478
sba(iBasisSets
PrimitiveFunction
p1479
(dp1480
g19
F11.0
sg20
S'P'
p1481
sba(iBasisSets
PrimitiveFunction
p1482
(dp1483
g19
F3.9950000000000001
sg20
S'P'
p1484
sba(iBasisSets
PrimitiveFunction
p1485
(dp1486
g19
F1.587
sg20
S'P'
p1487
sba(iBasisSets
PrimitiveFunction
p1488
(dp1489
g19
F0.65329999999999999
sg20
S'P'
p1490
sba(iBasisSets
PrimitiveFunction
p1491
(dp1492
g19
F0.26860000000000001
sg20
S'P'
p1493
sba(iBasisSets
PrimitiveFunction
p1494
(dp1495
g19
F0.1067
sg20
S'P'
p1496
sbasg20
S'P'
p1497
sba(iBasisSets
BasisFunction
p1498
(dp1499
g13
(lp1500
F1.0
asg15
(lp1501
(iBasisSets
PrimitiveFunction
p1502
(dp1503
g19
F1.587
sg20
S'P'
p1504
sbasg20
S'P'
p1505
sba(iBasisSets
BasisFunction
p1506
(dp1507
g13
(lp1508
F1.0
asg15
(lp1509
(iBasisSets
PrimitiveFunction
p1510
(dp1511
g19
F0.65329999999999999
sg20
S'P'
p1512
sbasg20
S'P'
p1513
sba(iBasisSets
BasisFunction
p1514
(dp1515
g13
(lp1516
F1.0
asg15
(lp1517
(iBasisSets
PrimitiveFunction
p1518
(dp1519
g19
F0.26860000000000001
sg20
S'P'
p1520
sbasg20
S'P'
p1521
sba(iBasisSets
BasisFunction
p1522
(dp1523
g13
(lp1524
F1.0
asg15
(lp1525
(iBasisSets
PrimitiveFunction
p1526
(dp1527
g19
F0.1067
sg20
S'P'
p1528
sbasg20
S'P'
p1529
sba(iBasisSets
BasisFunction
p1530
(dp1531
g13
(lp1532
F1.0
asg15
(lp1533
(iBasisSets
PrimitiveFunction
p1534
(dp1535
g19
F8.766
sg20
S'P'
p1536
sbasg20
S'P'
p1537
sba(iBasisSets
BasisFunction
p1538
(dp1539
g13
(lp1540
F1.0
asg15
(lp1541
(iBasisSets
PrimitiveFunction
p1542
(dp1543
g19
F21.675999999999998
sg20
S'P'
p1544
sbasg20
S'P'
p1545
sba(iBasisSets
BasisFunction
p1546
(dp1547
g13
(lp1548
F1.0
asg15
(lp1549
(iBasisSets
PrimitiveFunction
p1550
(dp1551
g19
F53.600000000000001
sg20
S'P'
p1552
sbasg20
S'P'
p1553
sba(iBasisSets
BasisFunction
p1554
(dp1555
g13
(lp1556
F1.0
asg15
(lp1557
(iBasisSets
PrimitiveFunction
p1558
(dp1559
g19
F132.54400000000001
sg20
S'P'
p1560
sbasg20
S'P'
p1561
sbasg244
(lp1562
(iBasisSets
BasisFunction
p1563
(dp1564
g13
(lp1565
F2.5000000000000001e-05
aF0.00019699999999999999
aF0.0010319999999999999
aF0.0043249999999999999
aF0.01538
aF0.046866999999999999
aF0.120116
aF0.245695
aF0.36137900000000001
aF0.28728300000000001
aF0.070170999999999997
aF0.0018309999999999999
aF0.00083500000000000002
aF-6.0000000000000002e-06
asg15
(lp1566
(iBasisSets
PrimitiveFunction
p1567
(dp1568
g19
F129200.0
sg20
S'S'
p1569
sba(iBasisSets
PrimitiveFunction
p1570
(dp1571
g19
F19350.0
sg20
S'S'
p1572
sba(iBasisSets
PrimitiveFunction
p1573
(dp1574
g19
F4404.0
sg20
S'S'
p1575
sba(iBasisSets
PrimitiveFunction
p1576
(dp1577
g19
F1248.0
sg20
S'S'
p1578
sba(iBasisSets
PrimitiveFunction
p1579
(dp1580
g19
F408.0
sg20
S'S'
p1581
sba(iBasisSets
PrimitiveFunction
p1582
(dp1583
g19
F148.19999999999999
sg20
S'S'
p1584
sba(iBasisSets
PrimitiveFunction
p1585
(dp1586
g19
F58.5
sg20
S'S'
p1587
sba(iBasisSets
PrimitiveFunction
p1588
(dp1589
g19
F24.59
sg20
S'S'
p1590
sba(iBasisSets
PrimitiveFunction
p1591
(dp1592
g19
F10.81
sg20
S'S'
p1593
sba(iBasisSets
PrimitiveFunction
p1594
(dp1595
g19
F4.8819999999999997
sg20
S'S'
p1596
sba(iBasisSets
PrimitiveFunction
p1597
(dp1598
g19
F2.1949999999999998
sg20
S'S'
p1599
sba(iBasisSets
PrimitiveFunction
p1600
(dp1601
g19
F0.87150000000000005
sg20
S'S'
p1602
sba(iBasisSets
PrimitiveFunction
p1603
(dp1604
g19
F0.35039999999999999
sg20
S'S'
p1605
sba(iBasisSets
PrimitiveFunction
p1606
(dp1607
g19
F0.13969999999999999
sg20
S'S'
p1608
sbasg20
S'S'
p1609
sba(iBasisSets
BasisFunction
p1610
(dp1611
g13
(lp1612
F-6.0000000000000002e-06
aF-4.3000000000000002e-05
aF-0.00022699999999999999
aF-0.00095799999999999998
aF-0.0034160000000000002
aF-0.010666999999999999
aF-0.028278999999999999
aF-0.064019999999999994
aF-0.11393200000000001
aF-0.14699499999999999
aF-0.0072509999999999996
aF0.36618299999999998
aF0.54790799999999995
aF0.216645
asg15
(lp1613
(iBasisSets
PrimitiveFunction
p1614
(dp1615
g19
F129200.0
sg20
S'S'
p1616
sba(iBasisSets
PrimitiveFunction
p1617
(dp1618
g19
F19350.0
sg20
S'S'
p1619
sba(iBasisSets
PrimitiveFunction
p1620
(dp1621
g19
F4404.0
sg20
S'S'
p1622
sba(iBasisSets
PrimitiveFunction
p1623
(dp1624
g19
F1248.0
sg20
S'S'
p1625
sba(iBasisSets
PrimitiveFunction
p1626
(dp1627
g19
F408.0
sg20
S'S'
p1628
sba(iBasisSets
PrimitiveFunction
p1629
(dp1630
g19
F148.19999999999999
sg20
S'S'
p1631
sba(iBasisSets
PrimitiveFunction
p1632
(dp1633
g19
F58.5
sg20
S'S'
p1634
sba(iBasisSets
PrimitiveFunction
p1635
(dp1636
g19
F24.59
sg20
S'S'
p1637
sba(iBasisSets
PrimitiveFunction
p1638
(dp1639
g19
F10.81
sg20
S'S'
p1640
sba(iBasisSets
PrimitiveFunction
p1641
(dp1642
g19
F4.8819999999999997
sg20
S'S'
p1643
sba(iBasisSets
PrimitiveFunction
p1644
(dp1645
g19
F2.1949999999999998
sg20
S'S'
p1646
sba(iBasisSets
PrimitiveFunction
p1647
(dp1648
g19
F0.87150000000000005
sg20
S'S'
p1649
sba(iBasisSets
PrimitiveFunction
p1650
(dp1651
g19
F0.35039999999999999
sg20
S'S'
p1652
sba(iBasisSets
PrimitiveFunction
p1653
(dp1654
g19
F0.13969999999999999
sg20
S'S'
p1655
sbasg20
S'S'
p1656
sba(iBasisSets
BasisFunction
p1657
(dp1658
g13
(lp1659
F1.0
asg15
(lp1660
(iBasisSets
PrimitiveFunction
p1661
(dp1662
g19
F2.1949999999999998
sg20
S'S'
p1663
sbasg20
S'S'
p1664
sba(iBasisSets
BasisFunction
p1665
(dp1666
g13
(lp1667
F1.0
asg15
(lp1668
(iBasisSets
PrimitiveFunction
p1669
(dp1670
g19
F0.87150000000000005
sg20
S'S'
p1671
sbasg20
S'S'
p1672
sba(iBasisSets
BasisFunction
p1673
(dp1674
g13
(lp1675
F1.0
asg15
(lp1676
(iBasisSets
PrimitiveFunction
p1677
(dp1678
g19
F0.35039999999999999
sg20
S'S'
p1679
sbasg20
S'S'
p1680
sba(iBasisSets
BasisFunction
p1681
(dp1682
g13
(lp1683
F1.0
asg15
(lp1684
(iBasisSets
PrimitiveFunction
p1685
(dp1686
g19
F0.13969999999999999
sg20
S'S'
p1687
sbasg20
S'S'
p1688
sba(iBasisSets
BasisFunction
p1689
(dp1690
g13
(lp1691
F1.0
asg15
(lp1692
(iBasisSets
PrimitiveFunction
p1693
(dp1694
g19
F10.422000000000001
sg20
S'S'
p1695
sbasg20
S'S'
p1696
sba(iBasisSets
BasisFunction
p1697
(dp1698
g13
(lp1699
F1.0
asg15
(lp1700
(iBasisSets
PrimitiveFunction
p1701
(dp1702
g19
F22.596
sg20
S'S'
p1703
sbasg20
S'S'
p1704
sba(iBasisSets
BasisFunction
p1705
(dp1706
g13
(lp1707
F1.0
asg15
(lp1708
(iBasisSets
PrimitiveFunction
p1709
(dp1710
g19
F48.993000000000002
sg20
S'S'
p1711
sbasg20
S'S'
p1712
sba(iBasisSets
BasisFunction
p1713
(dp1714
g13
(lp1715
F1.0
asg15
(lp1716
(iBasisSets
PrimitiveFunction
p1717
(dp1718
g19
F106.226
sg20
S'S'
p1719
sbasg20
S'S'
p1720
sbassbsS'S'
p1721
(iBasisSets
AtomBasis
p1722
(dp1723
g7
(dp1724
g9
(lp1725
(iBasisSets
BasisFunction
p1726
(dp1727
g13
(lp1728
F1.0
asg15
(lp1729
(iBasisSets
PrimitiveFunction
p1730
(dp1731
g19
F0.20499999999999999
sg20
S'D'
p1732
sbasg20
S'D'
p1733
sba(iBasisSets
BasisFunction
p1734
(dp1735
g13
(lp1736
F1.0
asg15
(lp1737
(iBasisSets
PrimitiveFunction
p1738
(dp1739
g19
F0.51200000000000001
sg20
S'D'
p1740
sbasg20
S'D'
p1741
sba(iBasisSets
BasisFunction
p1742
(dp1743
g13
(lp1744
F1.0
asg15
(lp1745
(iBasisSets
PrimitiveFunction
p1746
(dp1747
g19
F1.2809999999999999
sg20
S'D'
p1748
sbasg20
S'D'
p1749
sba(iBasisSets
BasisFunction
p1750
(dp1751
g13
(lp1752
F1.0
asg15
(lp1753
(iBasisSets
PrimitiveFunction
p1754
(dp1755
g19
F3.2029999999999998
sg20
S'D'
p1756
sbasg20
S'D'
p1757
sba(iBasisSets
BasisFunction
p1758
(dp1759
g13
(lp1760
F1.0
asg15
(lp1761
(iBasisSets
PrimitiveFunction
p1762
(dp1763
g19
F4.4900000000000002
sg20
S'D'
p1764
sbasg20
S'D'
p1765
sba(iBasisSets
BasisFunction
p1766
(dp1767
g13
(lp1768
F1.0
asg15
(lp1769
(iBasisSets
PrimitiveFunction
p1770
(dp1771
g19
F9.7129999999999992
sg20
S'D'
p1772
sbasg20
S'D'
p1773
sba(iBasisSets
BasisFunction
p1774
(dp1775
g13
(lp1776
F1.0
asg15
(lp1777
(iBasisSets
PrimitiveFunction
p1778
(dp1779
g19
F21.013000000000002
sg20
S'D'
p1780
sbasg20
S'D'
p1781
sba(iBasisSets
BasisFunction
p1782
(dp1783
g13
(lp1784
F1.0
asg15
(lp1785
(iBasisSets
PrimitiveFunction
p1786
(dp1787
g19
F45.457999999999998
sg20
S'D'
p1788
sbasg20
S'D'
p1789
sbasg71
(lp1790
(iBasisSets
BasisFunction
p1791
(dp1792
g13
(lp1793
F1.0
asg15
(lp1794
(iBasisSets
PrimitiveFunction
p1795
(dp1796
g19
F0.46300000000000002
sg20
S'G'
p1797
sbasg20
S'G'
p1798
sba(iBasisSets
BasisFunction
p1799
(dp1800
g13
(lp1801
F1.0
asg15
(lp1802
(iBasisSets
PrimitiveFunction
p1803
(dp1804
g19
F1.071
sg20
S'G'
p1805
sbasg20
S'G'
p1806
sba(iBasisSets
BasisFunction
p1807
(dp1808
g13
(lp1809
F1.0
asg15
(lp1810
(iBasisSets
PrimitiveFunction
p1811
(dp1812
g19
F3.1539999999999999
sg20
S'G'
p1813
sbasg20
S'G'
p1814
sba(iBasisSets
BasisFunction
p1815
(dp1816
g13
(lp1817
F1.0
asg15
(lp1818
(iBasisSets
PrimitiveFunction
p1819
(dp1820
g19
F17.100999999999999
sg20
S'G'
p1821
sbasg20
S'G'
p1822
sbasg97
(lp1823
(iBasisSets
BasisFunction
p1824
(dp1825
g13
(lp1826
F1.0
asg15
(lp1827
(iBasisSets
PrimitiveFunction
p1828
(dp1829
g19
F0.255
sg20
S'F'
p1830
sbasg20
S'F'
p1831
sba(iBasisSets
BasisFunction
p1832
(dp1833
g13
(lp1834
F1.0
asg15
(lp1835
(iBasisSets
PrimitiveFunction
p1836
(dp1837
g19
F0.52900000000000003
sg20
S'F'
p1838
sbasg20
S'F'
p1839
sba(iBasisSets
BasisFunction
p1840
(dp1841
g13
(lp1842
F1.0
asg15
(lp1843
(iBasisSets
PrimitiveFunction
p1844
(dp1845
g19
F1.0960000000000001
sg20
S'F'
p1846
sbasg20
S'F'
p1847
sba(iBasisSets
BasisFunction
p1848
(dp1849
g13
(lp1850
F1.0
asg15
(lp1851
(iBasisSets
PrimitiveFunction
p1852
(dp1853
g19
F2.9980000000000002
sg20
S'F'
p1854
sbasg20
S'F'
p1855
sba(iBasisSets
BasisFunction
p1856
(dp1857
g13
(lp1858
F1.0
asg15
(lp1859
(iBasisSets
PrimitiveFunction
p1860
(dp1861
g19
F7.8369999999999997
sg20
S'F'
p1862
sbasg20
S'F'
p1863
sba(iBasisSets
BasisFunction
p1864
(dp1865
g13
(lp1866
F1.0
asg15
(lp1867
(iBasisSets
PrimitiveFunction
p1868
(dp1869
g19
F20.484999999999999
sg20
S'F'
p1870
sbasg20
S'F'
p1871
sbasg139
(lp1872
(iBasisSets
BasisFunction
p1873
(dp1874
g13
(lp1875
F1.0
asg15
(lp1876
(iBasisSets
PrimitiveFunction
p1877
(dp1878
g19
F0.872
sg20
S'H'
p1879
sbasg20
S'H'
p1880
sba(iBasisSets
BasisFunction
p1881
(dp1882
g13
(lp1883
F1.0
asg15
(lp1884
(iBasisSets
PrimitiveFunction
p1885
(dp1886
g19
F3.2309999999999999
sg20
S'H'
p1887
sbasg20
S'H'
p1888
sbasg149
(lp1889
(iBasisSets
BasisFunction
p1890
(dp1891
g13
(lp1892
F0.00023904899999999999
aF0.0020768599999999998
aF0.011236299999999999
aF0.044068999999999997
aF0.12916800000000001
aF0.26908300000000002
aF0.37861099999999998
aF0.29677900000000002
aF0.077967599999999998
aF0.00205193
aF0.0014360200000000001
aF-5.9599999999999999e-05
asg15
(lp1893
(iBasisSets
PrimitiveFunction
p1894
(dp1895
g19
F2200.0
sg20
S'P'
p1896
sba(iBasisSets
PrimitiveFunction
p1897
(dp1898
g19
F521.39999999999998
sg20
S'P'
p1899
sba(iBasisSets
PrimitiveFunction
p1900
(dp1901
g19
F169.0
sg20
S'P'
p1902
sba(iBasisSets
PrimitiveFunction
p1903
(dp1904
g19
F64.049999999999997
sg20
S'P'
p1905
sba(iBasisSets
PrimitiveFunction
p1906
(dp1907
g19
F26.719999999999999
sg20
S'P'
p1908
sba(iBasisSets
PrimitiveFunction
p1909
(dp1910
g19
F11.83
sg20
S'P'
p1911
sba(iBasisSets
PrimitiveFunction
p1912
(dp1913
g19
F5.3780000000000001
sg20
S'P'
p1914
sba(iBasisSets
PrimitiveFunction
p1915
(dp1916
g19
F2.4820000000000002
sg20
S'P'
p1917
sba(iBasisSets
PrimitiveFunction
p1918
(dp1919
g19
F1.1160000000000001
sg20
S'P'
p1920
sba(iBasisSets
PrimitiveFunction
p1921
(dp1922
g19
F0.48480000000000001
sg20
S'P'
p1923
sba(iBasisSets
PrimitiveFunction
p1924
(dp1925
g19
F0.2006
sg20
S'P'
p1926
sba(iBasisSets
PrimitiveFunction
p1927
(dp1928
g19
F0.079509999999999997
sg20
S'P'
p1929
sbasg20
S'P'
p1930
sba(iBasisSets
BasisFunction
p1931
(dp1932
g13
(lp1933
F1.0
asg15
(lp1934
(iBasisSets
PrimitiveFunction
p1935
(dp1936
g19
F64.049999999999997
sg20
S'P'
p1937
sbasg20
S'P'
p1938
sba(iBasisSets
BasisFunction
p1939
(dp1940
g13
(lp1941
F1.0
asg15
(lp1942
(iBasisSets
PrimitiveFunction
p1943
(dp1944
g19
F26.719999999999999
sg20
S'P'
p1945
sbasg20
S'P'
p1946
sba(iBasisSets
BasisFunction
p1947
(dp1948
g13
(lp1949
F1.0
asg15
(lp1950
(iBasisSets
PrimitiveFunction
p1951
(dp1952
g19
F11.83
sg20
S'P'
p1953
sbasg20
S'P'
p1954
sba(iBasisSets
BasisFunction
p1955
(dp1956
g13
(lp1957
F1.0
asg15
(lp1958
(iBasisSets
PrimitiveFunction
p1959
(dp1960
g19
F5.3780000000000001
sg20
S'P'
p1961
sbasg20
S'P'
p1962
sba(iBasisSets
BasisFunction
p1963
(dp1964
g13
(lp1965
F1.0
asg15
(lp1966
(iBasisSets
PrimitiveFunction
p1967
(dp1968
g19
F2.4820000000000002
sg20
S'P'
p1969
sbasg20
S'P'
p1970
sba(iBasisSets
BasisFunction
p1971
(dp1972
g13
(lp1973
F1.0
asg15
(lp1974
(iBasisSets
PrimitiveFunction
p1975
(dp1976
g19
F1.1160000000000001
sg20
S'P'
p1977
sbasg20
S'P'
p1978
sba(iBasisSets
BasisFunction
p1979
(dp1980
g13
(lp1981
F1.0
asg15
(lp1982
(iBasisSets
PrimitiveFunction
p1983
(dp1984
g19
F0.48480000000000001
sg20
S'P'
p1985
sbasg20
S'P'
p1986
sba(iBasisSets
BasisFunction
p1987
(dp1988
g13
(lp1989
F1.0
asg15
(lp1990
(iBasisSets
PrimitiveFunction
p1991
(dp1992
g19
F0.2006
sg20
S'P'
p1993
sbasg20
S'P'
p1994
sba(iBasisSets
BasisFunction
p1995
(dp1996
g13
(lp1997
F1.0
asg15
(lp1998
(iBasisSets
PrimitiveFunction
p1999
(dp2000
g19
F0.079509999999999997
sg20
S'P'
p2001
sbasg20
S'P'
p2002
sbasg244
(lp2003
(iBasisSets
BasisFunction
p2004
(dp2005
g13
(lp2006
F1.89338e-06
aF1.47211e-05
aF7.7508400000000005e-05
aF0.00032722399999999998
aF0.0011936500000000001
aF0.0038839299999999998
aF0.0115336
aF0.031274799999999998
aF0.076438699999999998
aF0.16270000000000001
aF0.27932800000000002
aF0.33314500000000002
aF0.20983599999999999
aF0.0415974
aF-0.00045055200000000001
aF0.00168855
aF-0.00051723600000000002
aF0.00018877299999999999
aF-9.9773399999999996e-05
aF2.0902000000000001e-05
asg15
(lp2007
(iBasisSets
PrimitiveFunction
p2008
(dp2009
g19
F5481000.0
sg20
S'S'
p2010
sba(iBasisSets
PrimitiveFunction
p2011
(dp2012
g19
F820600.0
sg20
S'S'
p2013
sba(iBasisSets
PrimitiveFunction
p2014
(dp2015
g19
F186700.0
sg20
S'S'
p2016
sba(iBasisSets
PrimitiveFunction
p2017
(dp2018
g19
F52880.0
sg20
S'S'
p2019
sba(iBasisSets
PrimitiveFunction
p2020
(dp2021
g19
F17250.0
sg20
S'S'
p2022
sba(iBasisSets
PrimitiveFunction
p2023
(dp2024
g19
F6226.0
sg20
S'S'
p2025
sba(iBasisSets
PrimitiveFunction
p2026
(dp2027
g19
F2429.0
sg20
S'S'
p2028
sba(iBasisSets
PrimitiveFunction
p2029
(dp2030
g19
F1007.0
sg20
S'S'
p2031
sba(iBasisSets
PrimitiveFunction
p2032
(dp2033
g19
F439.5
sg20
S'S'
p2034
sba(iBasisSets
PrimitiveFunction
p2035
(dp2036
g19
F199.80000000000001
sg20
S'S'
p2037
sba(iBasisSets
PrimitiveFunction
p2038
(dp2039
g19
F93.920000000000002
sg20
S'S'
p2040
sba(iBasisSets
PrimitiveFunction
p2041
(dp2042
g19
F45.340000000000003
sg20
S'S'
p2043
sba(iBasisSets
PrimitiveFunction
p2044
(dp2045
g19
F22.149999999999999
sg20
S'S'
p2046
sba(iBasisSets
PrimitiveFunction
p2047
(dp2048
g19
F10.34
sg20
S'S'
p2049
sba(iBasisSets
PrimitiveFunction
p2050
(dp2051
g19
F5.1189999999999998
sg20
S'S'
p2052
sba(iBasisSets
PrimitiveFunction
p2053
(dp2054
g19
F2.5529999999999999
sg20
S'S'
p2055
sba(iBasisSets
PrimitiveFunction
p2056
(dp2057
g19
F1.282
sg20
S'S'
p2058
sba(iBasisSets
PrimitiveFunction
p2059
(dp2060
g19
F0.54500000000000004
sg20
S'S'
p2061
sba(iBasisSets
PrimitiveFunction
p2062
(dp2063
g19
F0.24110000000000001
sg20
S'S'
p2064
sba(iBasisSets
PrimitiveFunction
p2065
(dp2066
g19
F0.10349999999999999
sg20
S'S'
p2067
sbasg20
S'S'
p2068
sba(iBasisSets
BasisFunction
p2069
(dp2070
g13
(lp2071
F-5.2291200000000002e-07
aF-4.0669e-06
aF-2.1406499999999999e-05
aF-9.0453999999999998e-05
aF-0.00033008000000000001
aF-0.0010778199999999999
aF-0.0032187399999999999
aF-0.0088721700000000004
aF-0.0223771
aF-0.051057699999999998
aF-0.10022499999999999
aF-0.15679499999999999
aF-0.13974800000000001
aF0.081005900000000006
aF0.43088300000000002
aF0.48168800000000001
aF0.156862
aF0.0078881400000000001
aF0.000393533
aF0.00022375699999999999
asg15
(lp2072
(iBasisSets
PrimitiveFunction
p2073
(dp2074
g19
F5481000.0
sg20
S'S'
p2075
sba(iBasisSets
PrimitiveFunction
p2076
(dp2077
g19
F820600.0
sg20
S'S'
p2078
sba(iBasisSets
PrimitiveFunction
p2079
(dp2080
g19
F186700.0
sg20
S'S'
p2081
sba(iBasisSets
PrimitiveFunction
p2082
(dp2083
g19
F52880.0
sg20
S'S'
p2084
sba(iBasisSets
PrimitiveFunction
p2085
(dp2086
g19
F17250.0
sg20
S'S'
p2087
sba(iBasisSets
PrimitiveFunction
p2088
(dp2089
g19
F6226.0
sg20
S'S'
p2090
sba(iBasisSets
PrimitiveFunction
p2091
(dp2092
g19
F2429.0
sg20
S'S'
p2093
sba(iBasisSets
PrimitiveFunction
p2094
(dp2095
g19
F1007.0
sg20
S'S'
p2096
sba(iBasisSets
PrimitiveFunction
p2097
(dp2098
g19
F439.5
sg20
S'S'
p2099
sba(iBasisSets
PrimitiveFunction
p2100
(dp2101
g19
F199.80000000000001
sg20
S'S'
p2102
sba(iBasisSets
PrimitiveFunction
p2103
(dp2104
g19
F93.920000000000002
sg20
S'S'
p2105
sba(iBasisSets
PrimitiveFunction
p2106
(dp2107
g19
F45.340000000000003
sg20
S'S'
p2108
sba(iBasisSets
PrimitiveFunction
p2109
(dp2110
g19
F22.149999999999999
sg20
S'S'
p2111
sba(iBasisSets
PrimitiveFunction
p2112
(dp2113
g19
F10.34
sg20
S'S'
p2114
sba(iBasisSets
PrimitiveFunction
p2115
(dp2116
g19
F5.1189999999999998
sg20
S'S'
p2117
sba(iBasisSets
PrimitiveFunction
p2118
(dp2119
g19
F2.5529999999999999
sg20
S'S'
p2120
sba(iBasisSets
PrimitiveFunction
p2121
(dp2122
g19
F1.282
sg20
S'S'
p2123
sba(iBasisSets
PrimitiveFunction
p2124
(dp2125
g19
F0.54500000000000004
sg20
S'S'
p2126
sba(iBasisSets
PrimitiveFunction
p2127
(dp2128
g19
F0.24110000000000001
sg20
S'S'
p2129
sba(iBasisSets
PrimitiveFunction
p2130
(dp2131
g19
F0.10349999999999999
sg20
S'S'
p2132
sbasg20
S'S'
p2133
sba(iBasisSets
BasisFunction
p2134
(dp2135
g13
(lp2136
F1.0
asg15
(lp2137
(iBasisSets
PrimitiveFunction
p2138
(dp2139
g19
F45.340000000000003
sg20
S'S'
p2140
sbasg20
S'S'
p2141
sba(iBasisSets
BasisFunction
p2142
(dp2143
g13
(lp2144
F1.0
asg15
(lp2145
(iBasisSets
PrimitiveFunction
p2146
(dp2147
g19
F22.149999999999999
sg20
S'S'
p2148
sbasg20
S'S'
p2149
sba(iBasisSets
BasisFunction
p2150
(dp2151
g13
(lp2152
F1.0
asg15
(lp2153
(iBasisSets
PrimitiveFunction
p2154
(dp2155
g19
F10.34
sg20
S'S'
p2156
sbasg20
S'S'
p2157
sba(iBasisSets
BasisFunction
p2158
(dp2159
g13
(lp2160
F1.0
asg15
(lp2161
(iBasisSets
PrimitiveFunction
p2162
(dp2163
g19
F5.1189999999999998
sg20
S'S'
p2164
sbasg20
S'S'
p2165
sba(iBasisSets
BasisFunction
p2166
(dp2167
g13
(lp2168
F1.0
asg15
(lp2169
(iBasisSets
PrimitiveFunction
p2170
(dp2171
g19
F2.5529999999999999
sg20
S'S'
p2172
sbasg20
S'S'
p2173
sba(iBasisSets
BasisFunction
p2174
(dp2175
g13
(lp2176
F1.0
asg15
(lp2177
(iBasisSets
PrimitiveFunction
p2178
(dp2179
g19
F1.282
sg20
S'S'
p2180
sbasg20
S'S'
p2181
sba(iBasisSets
BasisFunction
p2182
(dp2183
g13
(lp2184
F1.0
asg15
(lp2185
(iBasisSets
PrimitiveFunction
p2186
(dp2187
g19
F0.54500000000000004
sg20
S'S'
p2188
sbasg20
S'S'
p2189
sba(iBasisSets
BasisFunction
p2190
(dp2191
g13
(lp2192
F1.0
asg15
(lp2193
(iBasisSets
PrimitiveFunction
p2194
(dp2195
g19
F0.24110000000000001
sg20
S'S'
p2196
sbasg20
S'S'
p2197
sba(iBasisSets
BasisFunction
p2198
(dp2199
g13
(lp2200
F1.0
asg15
(lp2201
(iBasisSets
PrimitiveFunction
p2202
(dp2203
g19
F0.10349999999999999
sg20
S'S'
p2204
sbasg20
S'S'
p2205
sbassbssb.