ccopy_reg
_reconstructor
p0
(cbasisset
BasisSet
p1
c__builtin__
object
p2
Ntp3
Rp4
(dp5
S'basisDictionary'
p6
(dp7
S'H'
p8
(lp9
g0
(cbasisset
Shell
p10
g2
Ntp11
Rp12
(dp13
S'angularMomentum'
p14
S'S'
p15
sS'exponents'
p16
(lp17
F13.01
aF1.962
aF0.4446
asS'coefficients'
p18
(lp19
(lp20
F0.019685000000000001
aF0.13797699999999999
aF0.47814800000000002
aasS'atom'
p21
S' H'
p22
sbag0
(g10
g2
Ntp23
Rp24
(dp25
g14
S'S'
p26
sg16
(lp27
F0.122
asg18
(lp28
(lp29
F1.0
aasg21
S' H'
p30
sbag0
(g10
g2
Ntp31
Rp32
(dp33
g14
S'P'
p34
sg16
(lp35
F0.72699999999999998
asg18
(lp36
(lp37
F1.0
aasg21
S' H'
p38
sbag0
(g10
g2
Ntp39
Rp40
(dp41
S'angularMomentum'
p42
S'S'
p43
sS'exponents'
p44
(lp45
F143.10999999999999
asS'coefficients'
p46
(lp47
(lp48
F1.0
aasS'atom'
p49
S'H'
p50
sbag0
(g10
g2
Ntp51
Rp52
(dp53
g42
S'S'
p54
sg44
(lp55
F312.24000000000001
asg46
(lp56
(lp57
F1.0
aasg49
S'H'
p58
sbag0
(g10
g2
Ntp59
Rp60
(dp61
g42
S'P'
p62
sg44
(lp63
F7.2699999999999996
asg46
(lp64
(lp65
F1.0
aasg49
S'H'
p66
sbasS'C'
p67
(lp68
g0
(g10
g2
Ntp69
Rp70
(dp71
g14
S'S'
p72
sg16
(lp73
F6665.0
aF1000.0
aF228.0
aF64.709999999999994
aF21.059999999999999
aF7.4950000000000001
aF2.7970000000000002
aF0.52149999999999996
asg18
(lp74
(lp75
F0.00069200000000000002
aF0.0053290000000000004
aF0.027077
aF0.101718
aF0.27473999999999998
aF0.44856400000000002
aF0.28507399999999999
aF0.015204000000000001
aa(lp76
F-0.000146
aF-0.0011540000000000001
aF-0.0057250000000000001
aF-0.023311999999999999
aF-0.063954999999999998
aF-0.149981
aF-0.12726199999999999
aF0.54452900000000004
aasg21
S' C'
p77
sbag0
(g10
g2
Ntp78
Rp79
(dp80
g14
S'S'
p81
sg16
(lp82
F0.15959999999999999
asg18
(lp83
(lp84
F1.0
aasg21
S' C'
p85
sbag0
(g10
g2
Ntp86
Rp87
(dp88
g14
S'P'
p89
sg16
(lp90
F9.4390000000000001
aF2.0019999999999998
aF0.54559999999999997
asg18
(lp91
(lp92
F0.038108999999999997
aF0.20948
aF0.50855700000000004
aasg21
S' C'
p93
sbag0
(g10
g2
Ntp94
Rp95
(dp96
g14
S'P'
p97
sg16
(lp98
F0.1517
asg18
(lp99
(lp100
F1.0
aasg21
S' C'
p101
sbag0
(g10
g2
Ntp102
Rp103
(dp104
g14
S'D'
p105
sg16
(lp106
F0.55000000000000004
asg18
(lp107
(lp108
F1.0
aasg21
S' C'
p109
sbag0
(g10
g2
Ntp110
Rp111
(dp112
g42
S'S'
p113
sg44
(lp114
F73315.0
asg46
(lp115
(lp116
F1.0
aasg49
S'C'
p117
sbag0
(g10
g2
Ntp118
Rp119
(dp120
g42
S'S'
p121
sg44
(lp122
F173290.0
asg46
(lp123
(lp124
F1.0
aasg49
S'C'
p125
sbag0
(g10
g2
Ntp126
Rp127
(dp128
g42
S'P'
p129
sg44
(lp130
F56.634
asg46
(lp131
(lp132
F1.0
aasg49
S'C'
p133
sbag0
(g10
g2
Ntp134
Rp135
(dp136
g42
S'D'
p137
sg44
(lp138
F2.2000000000000002
asg46
(lp139
(lp140
F1.0
aasg49
S'C'
p141
sbasS'S'
p142
(lp143
g0
(g10
g2
Ntp144
Rp145
(dp146
g14
S'S'
p147
sg16
(lp148
F110800.0
aF16610.0
aF3781.0
aF1071.0
aF349.80000000000001
aF126.3
aF49.259999999999998
aF20.16
aF5.7199999999999998
aF2.1819999999999999
aF0.43269999999999997
asg18
(lp149
(lp150
F0.00024763500000000001
aF0.00192026
aF0.0099619200000000008
aF0.0402975
aF0.128604
aF0.30348000000000003
aF0.42143199999999997
aF0.23078099999999999
aF0.017897099999999999
aF-0.0029751600000000001
aF0.00084952200000000002
aa(lp151
F-6.8703900000000005e-05
aF-0.00052768100000000001
aF-0.00279671
aF-0.0112651
aF-0.038883399999999999
aF-0.099502499999999994
aF-0.19974
aF-0.12336
aF0.51319400000000004
aF0.60711999999999999
aF0.039675299999999997
aa(lp152
F1.9907699999999999e-05
aF0.00015348299999999999
aF0.00080950300000000005
aF0.0032897400000000002
aF0.0112967
aF0.029638500000000002
aF0.0599851
aF0.041324800000000002
aF-0.20747399999999999
aF-0.39288899999999999
aF0.63283999999999996
aasg21
S' S'
p153
sbag0
(g10
g2
Ntp154
Rp155
(dp156
g14
S'S'
p157
sg16
(lp158
F0.157
asg18
(lp159
(lp160
F1.0
aasg21
S' S'
p161
sbag0
(g10
g2
Ntp162
Rp163
(dp164
g14
S'P'
p165
sg16
(lp166
F399.69999999999999
aF94.189999999999998
aF29.75
aF10.77
aF4.1189999999999998
aF1.625
aF0.47260000000000002
asg18
(lp167
(lp168
F0.00447541
aF0.034170800000000001
aF0.14424999999999999
aF0.35392800000000002
aF0.45908500000000002
aF0.20638300000000001
aF0.0102141
aa(lp169
F-0.0011625100000000001
aF-0.0086566400000000002
aF-0.039088600000000001
aF-0.093462500000000004
aF-0.14799399999999999
aF0.030190399999999999
aF0.56157299999999999
aasg21
S' S'
p170
sbag0
(g10
g2
Ntp171
Rp172
(dp173
g14
S'P'
p174
sg16
(lp175
F0.14069999999999999
asg18
(lp176
(lp177
F1.0
aasg21
S' S'
p178
sbag0
(g10
g2
Ntp179
Rp180
(dp181
g14
S'D'
p182
sg16
(lp183
F0.47899999999999998
asg18
(lp184
(lp185
F1.0
aasg21
S' S'
p186
sbag0
(g10
g2
Ntp187
Rp188
(dp189
g42
S'S'
p190
sg44
(lp191
F1218800.0
asg46
(lp192
(lp193
F1.0
aasg49
S'S'
p194
sbag0
(g10
g2
Ntp195
Rp196
(dp197
g42
S'S'
p198
sg44
(lp199
F2880800.0
asg46
(lp200
(lp201
F1.0
aasg49
S'S'
p202
sbag0
(g10
g2
Ntp203
Rp204
(dp205
g42
S'P'
p206
sg44
(lp207
F2398.1999999999998
asg46
(lp208
(lp209
F1.0
aasg49
S'S'
p210
sbag0
(g10
g2
Ntp211
Rp212
(dp213
g42
S'D'
p214
sg44
(lp215
F1.9159999999999999
asg46
(lp216
(lp217
F1.0
aasg49
S'S'
p218
sbasS'O'
p219
(lp220
g0
(g10
g2
Ntp221
Rp222
(dp223
g14
S'S'
p224
sg16
(lp225
F11720.0
aF1759.0
aF400.80000000000001
aF113.7
aF37.030000000000001
aF13.27
aF5.0250000000000004
aF1.0129999999999999
asg18
(lp226
(lp227
F0.00071000000000000002
aF0.00547
aF0.027837000000000001
aF0.1048
aF0.28306199999999998
aF0.44871899999999998
aF0.27095200000000003
aF0.015458
aa(lp228
F-0.00016000000000000001
aF-0.001263
aF-0.006267
aF-0.025715999999999999
aF-0.070924000000000001
aF-0.165411
aF-0.116955
aF0.55736799999999997
aasg21
S' O'
p229
sbag0
(g10
g2
Ntp230
Rp231
(dp232
g14
S'S'
p233
sg16
(lp234
F0.30230000000000001
asg18
(lp235
(lp236
F1.0
aasg21
S' O'
p237
sbag0
(g10
g2
Ntp238
Rp239
(dp240
g14
S'P'
p241
sg16
(lp242
F17.699999999999999
aF3.8540000000000001
aF1.046
asg18
(lp243
(lp244
F0.043018000000000001
aF0.22891300000000001
aF0.50872799999999996
aasg21
S' O'
p245
sbag0
(g10
g2
Ntp246
Rp247
(dp248
g14
S'P'
p249
sg16
(lp250
F0.27529999999999999
asg18
(lp251
(lp252
F1.0
aasg21
S' O'
p253
sbag0
(g10
g2
Ntp254
Rp255
(dp256
g14
S'D'
p257
sg16
(lp258
F1.1850000000000001
asg18
(lp259
(lp260
F1.0
aasg21
S' O'
p261
sbag0
(g10
g2
Ntp262
Rp263
(dp264
g42
S'S'
p265
sg44
(lp266
F128920.0
asg46
(lp267
(lp268
F1.0
aasg49
S'O'
p269
sbag0
(g10
g2
Ntp270
Rp271
(dp272
g42
S'S'
p273
sg44
(lp274
F304720.0
asg46
(lp275
(lp276
F1.0
aasg49
S'O'
p277
sbag0
(g10
g2
Ntp278
Rp279
(dp280
g42
S'P'
p281
sg44
(lp282
F106.19999999999999
asg46
(lp283
(lp284
F1.0
aasg49
S'O'
p285
sbag0
(g10
g2
Ntp286
Rp287
(dp288
g42
S'D'
p289
sg44
(lp290
F4.7400000000000002
asg46
(lp291
(lp292
F1.0
aasg49
S'O'
p293
sbasS'N'
p294
(lp295
g0
(g10
g2
Ntp296
Rp297
(dp298
g14
S'S'
p299
sg16
(lp300
F9046.0
aF1357.0
aF309.30000000000001
aF87.730000000000004
aF28.559999999999999
aF10.210000000000001
aF3.8380000000000001
aF0.74660000000000004
asg18
(lp301
(lp302
F0.00069999999999999999
aF0.0053889999999999997
aF0.027406
aF0.10320699999999999
aF0.278723
aF0.44853999999999999
aF0.27823799999999999
aF0.015440000000000001
aa(lp303
F-0.00015300000000000001
aF-0.0012080000000000001
aF-0.0059919999999999999
aF-0.024544
aF-0.067459000000000005
aF-0.158078
aF-0.12183099999999999
aF0.54900300000000002
aasg21
S' N'
p304
sbag0
(g10
g2
Ntp305
Rp306
(dp307
g14
S'S'
p308
sg16
(lp309
F0.2248
asg18
(lp310
(lp311
F1.0
aasg21
S' N'
p312
sbag0
(g10
g2
Ntp313
Rp314
(dp315
g14
S'P'
p316
sg16
(lp317
F13.550000000000001
aF2.9169999999999998
aF0.79730000000000001
asg18
(lp318
(lp319
F0.039919000000000003
aF0.217169
aF0.51031899999999997
aasg21
S' N'
p320
sbag0
(g10
g2
Ntp321
Rp322
(dp323
g14
S'P'
p324
sg16
(lp325
F0.2185
asg18
(lp326
(lp327
F1.0
aasg21
S' N'
p328
sbag0
(g10
g2
Ntp329
Rp330
(dp331
g14
S'D'
p332
sg16
(lp333
F0.81699999999999995
asg18
(lp334
(lp335
F1.0
aasg21
S' N'
p336
sbag0
(g10
g2
Ntp337
Rp338
(dp339
g42
S'S'
p340
sg44
(lp341
F99506.0
asg46
(lp342
(lp343
F1.0
aasg49
S'N'
p344
sbag0
(g10
g2
Ntp345
Rp346
(dp347
g42
S'S'
p348
sg44
(lp349
F235196.0
asg46
(lp350
(lp351
F1.0
aasg49
S'N'
p352
sbag0
(g10
g2
Ntp353
Rp354
(dp355
g42
S'P'
p356
sg44
(lp357
F81.300000000000011
asg46
(lp358
(lp359
F1.0
aasg49
S'N'
p360
sbag0
(g10
g2
Ntp361
Rp362
(dp363
g42
S'D'
p364
sg44
(lp365
F3.2679999999999998
asg46
(lp366
(lp367
F1.0
aasg49
S'N'
p368
sbag0
(g10
g2
Ntp369
Rp370
(dp371
g42
S'S'
p372
sg44
(lp373
F2587156.0
asg46
(lp374
(lp375
F1.0
aasg49
S'N'
p376
sbag0
(g10
g2
Ntp377
Rp378
(dp379
g42
S'S'
p380
sg44
(lp381
F6115096.0
asg46
(lp382
(lp383
F1.0
aasg49
S'N'
p384
sbag0
(g10
g2
Ntp385
Rp386
(dp387
g42
S'P'
p388
sg44
(lp389
F487.80000000000007
asg46
(lp390
(lp391
F1.0
aasg49
S'N'
p392
sbag0
(g10
g2
Ntp393
Rp394
(dp395
g42
S'D'
p396
sg44
(lp397
F13.071999999999999
asg46
(lp398
(lp399
F1.0
aasg49
S'N'
p400
sbassb.