ccopy_reg
_reconstructor
p0
(cbasisset
BasisSet
p1
c__builtin__
object
p2
Ntp3
Rp4
(dp5
S'basisDictionary'
p6
(dp7
S'H'
p8
(lp9
g0
(cbasisset
Shell
p10
g2
Ntp11
Rp12
(dp13
S'angularMomentum'
p14
S'S'
p15
sS'exponents'
p16
(lp17
F33.869999999999997
aF5.0949999999999998
aF1.159
asS'coefficients'
p18
(lp19
(lp20
F0.0060679999999999996
aF0.045308000000000001
aF0.202822
aasS'atom'
p21
S' H'
p22
sbag0
(g10
g2
Ntp23
Rp24
(dp25
g14
S'S'
p26
sg16
(lp27
F0.32579999999999998
asg18
(lp28
(lp29
F1.0
aasg21
S' H'
p30
sbag0
(g10
g2
Ntp31
Rp32
(dp33
g14
S'S'
p34
sg16
(lp35
F0.1027
asg18
(lp36
(lp37
F1.0
aasg21
S' H'
p38
sbag0
(g10
g2
Ntp39
Rp40
(dp41
g14
S'P'
p42
sg16
(lp43
F1.407
asg18
(lp44
(lp45
F1.0
aasg21
S' H'
p46
sbag0
(g10
g2
Ntp47
Rp48
(dp49
g14
S'P'
p50
sg16
(lp51
F0.38800000000000001
asg18
(lp52
(lp53
F1.0
aasg21
S' H'
p54
sbag0
(g10
g2
Ntp55
Rp56
(dp57
g14
S'D'
p58
sg16
(lp59
F1.0569999999999999
asg18
(lp60
(lp61
F1.0
aasg21
S' H'
p62
sbasS'C'
p63
(lp64
g0
(g10
g2
Ntp65
Rp66
(dp67
g14
S'S'
p68
sg16
(lp69
F8236.0
aF1235.0
aF280.80000000000001
aF79.269999999999996
aF25.59
aF8.9969999999999999
aF3.319
aF0.36430000000000001
asg18
(lp70
(lp71
F0.000531
aF0.0041079999999999997
aF0.021087000000000002
aF0.081852999999999995
aF0.234817
aF0.43440099999999998
aF0.34612900000000002
aF-0.0089829999999999997
aa(lp72
F-0.000113
aF-0.00087799999999999998
aF-0.0045399999999999998
aF-0.018133
aF-0.055759999999999997
aF-0.12689500000000001
aF-0.170352
aF0.59868399999999999
aasg21
S' C'
p73
sbag0
(g10
g2
Ntp74
Rp75
(dp76
g14
S'S'
p77
sg16
(lp78
F0.90590000000000004
asg18
(lp79
(lp80
F1.0
aasg21
S' C'
p81
sbag0
(g10
g2
Ntp82
Rp83
(dp84
g14
S'S'
p85
sg16
(lp86
F0.1285
asg18
(lp87
(lp88
F1.0
aasg21
S' C'
p89
sbag0
(g10
g2
Ntp90
Rp91
(dp92
g14
S'P'
p93
sg16
(lp94
F18.710000000000001
aF4.133
aF1.2
asg18
(lp95
(lp96
F0.014031
aF0.086865999999999999
aF0.29021599999999997
aasg21
S' C'
p97
sbag0
(g10
g2
Ntp98
Rp99
(dp100
g14
S'P'
p101
sg16
(lp102
F0.38269999999999998
asg18
(lp103
(lp104
F1.0
aasg21
S' C'
p105
sbag0
(g10
g2
Ntp106
Rp107
(dp108
g14
S'P'
p109
sg16
(lp110
F0.12089999999999999
asg18
(lp111
(lp112
F1.0
aasg21
S' C'
p113
sbag0
(g10
g2
Ntp114
Rp115
(dp116
g14
S'D'
p117
sg16
(lp118
F1.097
asg18
(lp119
(lp120
F1.0
aasg21
S' C'
p121
sbag0
(g10
g2
Ntp122
Rp123
(dp124
g14
S'D'
p125
sg16
(lp126
F0.318
asg18
(lp127
(lp128
F1.0
aasg21
S' C'
p129
sbag0
(g10
g2
Ntp130
Rp131
(dp132
g14
S'F'
p133
sg16
(lp134
F0.76100000000000001
asg18
(lp135
(lp136
F1.0
aasg21
S' C'
p137
sbasS'S'
p138
(lp139
g0
(g10
g2
Ntp140
Rp141
(dp142
g14
S'S'
p143
sg16
(lp144
F374100.0
aF56050.0
aF12760.0
aF3615.0
aF1183.0
aF428.80000000000001
aF167.80000000000001
aF69.469999999999999
aF29.84
aF12.720000000000001
aF5.2439999999999998
aF2.2189999999999999
aF0.34899999999999998
asg18
(lp145
(lp146
F5.4214e-05
aF0.00042085499999999998
aF0.0022069799999999999
aF0.0091925800000000005
aF0.032112300000000003
aF0.094668299999999997
aF0.22363
aF0.37439299999999998
aF0.32910800000000001
aF0.084703799999999996
aF0.00044085100000000002
aF0.0016482700000000001
aF0.00030130599999999999
aa(lp147
F-1.49837e-05
aF-0.000116198
aF-0.00061158299999999996
aF-0.0025536999999999999
aF-0.0090870800000000009
aF-0.0277045
aF-0.072001999999999997
aF-0.14643900000000001
aF-0.19514999999999999
aF0.00819193
aF0.51660099999999998
aF0.54217800000000005
aF-0.0091807199999999999
aa(lp148
F4.3506600000000003e-06
aF3.3714000000000003e-05
aF0.00017767400000000001
aF0.000741116
aF0.00264591
aF0.0080748699999999996
aF0.021227599999999999
aF0.043832299999999998
aF0.061271600000000002
aF-0.0036151
aF-0.20451
aF-0.38187100000000002
aF0.71414699999999998
aasg21
S' S'
p149
sbag0
(g10
g2
Ntp150
Rp151
(dp152
g14
S'S'
p153
sg16
(lp154
F0.77669999999999995
asg18
(lp155
(lp156
F1.0
aasg21
S' S'
p157
sbag0
(g10
g2
Ntp158
Rp159
(dp160
g14
S'S'
p161
sg16
(lp162
F0.13220000000000001
asg18
(lp163
(lp164
F1.0
aasg21
S' S'
p165
sbag0
(g10
g2
Ntp166
Rp167
(dp168
g14
S'P'
p169
sg16
(lp170
F574.39999999999998
aF135.80000000000001
aF43.189999999999998
aF15.869999999999999
aF6.2080000000000002
aF2.4830000000000001
aF0.32290000000000002
asg18
(lp171
(lp172
F0.0024226400000000002
aF0.019279600000000001
aF0.088540099999999997
aF0.25465399999999999
aF0.43398399999999998
aF0.35495300000000002
aF-0.0050297700000000002
aa(lp173
F-0.00062010199999999998
aF-0.00493882
aF-0.023264699999999999
aF-0.068519499999999997
aF-0.12389600000000001
aF-0.096949900000000006
aF0.56939399999999996
aasg21
S' S'
p174
sbag0
(g10
g2
Ntp175
Rp176
(dp177
g14
S'P'
p178
sg16
(lp179
F0.86880000000000002
asg18
(lp180
(lp181
F1.0
aasg21
S' S'
p182
sbag0
(g10
g2
Ntp183
Rp184
(dp185
g14
S'P'
p186
sg16
(lp187
F0.10979999999999999
asg18
(lp188
(lp189
F1.0
aasg21
S' S'
p190
sbag0
(g10
g2
Ntp191
Rp192
(dp193
g14
S'D'
p194
sg16
(lp195
F0.26900000000000002
asg18
(lp196
(lp197
F1.0
aasg21
S' S'
p198
sbag0
(g10
g2
Ntp199
Rp200
(dp201
g14
S'D'
p202
sg16
(lp203
F0.81899999999999995
asg18
(lp204
(lp205
F1.0
aasg21
S' S'
p206
sbag0
(g10
g2
Ntp207
Rp208
(dp209
g14
S'F'
p210
sg16
(lp211
F0.55700000000000005
asg18
(lp212
(lp213
F1.0
aasg21
S' S'
p214
sbasS'O'
p215
(lp216
g0
(g10
g2
Ntp217
Rp218
(dp219
g14
S'S'
p220
sg16
(lp221
F15330.0
aF2299.0
aF522.39999999999998
aF147.30000000000001
aF47.549999999999997
aF16.760000000000002
aF6.2069999999999999
aF0.68820000000000003
asg18
(lp222
(lp223
F0.00050799999999999999
aF0.0039290000000000002
aF0.020243000000000001
aF0.079181000000000001
aF0.230687
aF0.433118
aF0.35026000000000002
aF-0.0081539999999999998
aa(lp224
F-0.000115
aF-0.00089499999999999996
aF-0.0046360000000000004
aF-0.018724000000000001
aF-0.058463000000000001
aF-0.136463
aF-0.17574000000000001
aF0.60341800000000001
aasg21
S' O'
p225
sbag0
(g10
g2
Ntp226
Rp227
(dp228
g14
S'S'
p229
sg16
(lp230
F1.752
asg18
(lp231
(lp232
F1.0
aasg21
S' O'
p233
sbag0
(g10
g2
Ntp234
Rp235
(dp236
g14
S'S'
p237
sg16
(lp238
F0.2384
asg18
(lp239
(lp240
F1.0
aasg21
S' O'
p241
sbag0
(g10
g2
Ntp242
Rp243
(dp244
g14
S'P'
p245
sg16
(lp246
F34.460000000000001
aF7.7489999999999997
aF2.2799999999999998
asg18
(lp247
(lp248
F0.015928000000000001
aF0.099739999999999995
aF0.31049199999999999
aasg21
S' O'
p249
sbag0
(g10
g2
Ntp250
Rp251
(dp252
g14
S'P'
p253
sg16
(lp254
F0.71560000000000001
asg18
(lp255
(lp256
F1.0
aasg21
S' O'
p257
sbag0
(g10
g2
Ntp258
Rp259
(dp260
g14
S'P'
p261
sg16
(lp262
F0.214
asg18
(lp263
(lp264
F1.0
aasg21
S' O'
p265
sbag0
(g10
g2
Ntp266
Rp267
(dp268
g14
S'D'
p269
sg16
(lp270
F2.3140000000000001
asg18
(lp271
(lp272
F1.0
aasg21
S' O'
p273
sbag0
(g10
g2
Ntp274
Rp275
(dp276
g14
S'D'
p277
sg16
(lp278
F0.64500000000000002
asg18
(lp279
(lp280
F1.0
aasg21
S' O'
p281
sbag0
(g10
g2
Ntp282
Rp283
(dp284
g14
S'F'
p285
sg16
(lp286
F1.4279999999999999
asg18
(lp287
(lp288
F1.0
aasg21
S' O'
p289
sbasS'N'
p290
(lp291
g0
(g10
g2
Ntp292
Rp293
(dp294
g14
S'S'
p295
sg16
(lp296
F11420.0
aF1712.0
aF389.30000000000001
aF110.0
aF35.57
aF12.539999999999999
aF4.6440000000000001
aF0.51180000000000003
asg18
(lp297
(lp298
F0.00052300000000000003
aF0.004045
aF0.020774999999999998
aF0.080726999999999993
aF0.233074
aF0.43350100000000003
aF0.347472
aF-0.0085079999999999999
aa(lp299
F-0.000115
aF-0.00089499999999999996
aF-0.0046239999999999996
aF-0.018527999999999999
aF-0.057339000000000001
aF-0.132076
aF-0.17251
aF0.59994400000000003
aasg21
S' N'
p300
sbag0
(g10
g2
Ntp301
Rp302
(dp303
g14
S'S'
p304
sg16
(lp305
F1.2929999999999999
asg18
(lp306
(lp307
F1.0
aasg21
S' N'
p308
sbag0
(g10
g2
Ntp309
Rp310
(dp311
g14
S'S'
p312
sg16
(lp313
F0.1787
asg18
(lp314
(lp315
F1.0
aasg21
S' N'
p316
sbag0
(g10
g2
Ntp317
Rp318
(dp319
g14
S'P'
p320
sg16
(lp321
F26.629999999999999
aF5.9480000000000004
aF1.742
asg18
(lp322
(lp323
F0.014670000000000001
aF0.091763999999999998
aF0.29868299999999998
aasg21
S' N'
p324
sbag0
(g10
g2
Ntp325
Rp326
(dp327
g14
S'P'
p328
sg16
(lp329
F0.55500000000000005
asg18
(lp330
(lp331
F1.0
aasg21
S' N'
p332
sbag0
(g10
g2
Ntp333
Rp334
(dp335
g14
S'P'
p336
sg16
(lp337
F0.17249999999999999
asg18
(lp338
(lp339
F1.0
aasg21
S' N'
p340
sbag0
(g10
g2
Ntp341
Rp342
(dp343
g14
S'D'
p344
sg16
(lp345
F1.6539999999999999
asg18
(lp346
(lp347
F1.0
aasg21
S' N'
p348
sbag0
(g10
g2
Ntp349
Rp350
(dp351
g14
S'D'
p352
sg16
(lp353
F0.46899999999999997
asg18
(lp354
(lp355
F1.0
aasg21
S' N'
p356
sbag0
(g10
g2
Ntp357
Rp358
(dp359
g14
S'F'
p360
sg16
(lp361
F1.093
asg18
(lp362
(lp363
F1.0
aasg21
S' N'
p364
sbag0
(g10
g2
Ntp365
Rp366
(dp367
S'angularMomentum'
p368
S'S'
p369
sS'exponents'
p370
(lp371
F125620.0
asS'coefficients'
p372
(lp373
(lp374
F1.0
aasS'atom'
p375
S'N'
p376
sbag0
(g10
g2
Ntp377
Rp378
(dp379
g368
S'S'
p380
sg370
(lp381
F296920.0
asg372
(lp382
(lp383
F1.0
aasg375
S'N'
p384
sbag0
(g10
g2
Ntp385
Rp386
(dp387
g368
S'P'
p388
sg370
(lp389
F159.78
asg372
(lp390
(lp391
F1.0
aasg375
S'N'
p392
sbag0
(g10
g2
Ntp393
Rp394
(dp395
g368
S'D'
p396
sg370
(lp397
F6.6159999999999997
asg372
(lp398
(lp399
F1.0
aasg375
S'N'
p400
sbassb.