ccopy_reg
_reconstructor
p0
(cbasisset
BasisSet
p1
c__builtin__
object
p2
Ntp3
Rp4
(dp5
S'basisDictionary'
p6
(dp7
S'H'
p8
(lp9
g0
(cbasisset
Shell
p10
g2
Ntp11
Rp12
(dp13
S'angularMomentum'
p14
S'S'
p15
sS'exponents'
p16
(lp17
F13.01
asS'coefficients'
p18
(lp19
(lp20
F1.0
aasS'atom'
p21
S' H'
p22
sbag0
(g10
g2
Ntp23
Rp24
(dp25
g14
S'S'
p26
sg16
(lp27
F1.962
asg18
(lp28
(lp29
F1.0
aasg21
S' H'
p30
sbag0
(g10
g2
Ntp31
Rp32
(dp33
g14
S'S'
p34
sg16
(lp35
F0.4446
asg18
(lp36
(lp37
F1.0
aasg21
S' H'
p38
sbag0
(g10
g2
Ntp39
Rp40
(dp41
g14
S'S'
p42
sg16
(lp43
F0.122
asg18
(lp44
(lp45
F1.0
aasg21
S' H'
p46
sbag0
(g10
g2
Ntp47
Rp48
(dp49
g14
S'P'
p50
sg16
(lp51
F0.72699999999999998
asg18
(lp52
(lp53
F1.0
aasg21
S' H'
p54
sbasS'C'
p55
(lp56
g0
(g10
g2
Ntp57
Rp58
(dp59
S'angularMomentum'
p60
S'S'
p61
sS'exponents'
p62
(lp63
F6665.0
asS'coefficients'
p64
(lp65
(lp66
F1.0
aasS'atom'
p67
S' C'
p68
sbag0
(g10
g2
Ntp69
Rp70
(dp71
g60
S'S'
p72
sg62
(lp73
F1000.0
asg64
(lp74
(lp75
F1.0
aasg67
S' C'
p76
sbag0
(g10
g2
Ntp77
Rp78
(dp79
g60
S'S'
p80
sg62
(lp81
F228.0
asg64
(lp82
(lp83
F1.0
aasg67
S' C'
p84
sbag0
(g10
g2
Ntp85
Rp86
(dp87
g60
S'S'
p88
sg62
(lp89
F64.709999999999994
asg64
(lp90
(lp91
F1.0
aasg67
S' C'
p92
sbag0
(g10
g2
Ntp93
Rp94
(dp95
g60
S'S'
p96
sg62
(lp97
F21.059999999999999
asg64
(lp98
(lp99
F1.0
aasg67
S' C'
p100
sbag0
(g10
g2
Ntp101
Rp102
(dp103
g60
S'S'
p104
sg62
(lp105
F7.4950000000000001
asg64
(lp106
(lp107
F1.0
aasg67
S' C'
p108
sbag0
(g10
g2
Ntp109
Rp110
(dp111
g60
S'S'
p112
sg62
(lp113
F2.7970000000000002
asg64
(lp114
(lp115
F1.0
aasg67
S' C'
p116
sbag0
(g10
g2
Ntp117
Rp118
(dp119
g60
S'S'
p120
sg62
(lp121
F0.52149999999999996
asg64
(lp122
(lp123
F1.0
aasg67
S' C'
p124
sbag0
(g10
g2
Ntp125
Rp126
(dp127
g60
S'S'
p128
sg62
(lp129
F0.15959999999999999
asg64
(lp130
(lp131
F1.0
aasg67
S' C'
p132
sbag0
(g10
g2
Ntp133
Rp134
(dp135
g60
S'P'
p136
sg62
(lp137
F9.4390000000000001
asg64
(lp138
(lp139
F1.0
aasg67
S' C'
p140
sbag0
(g10
g2
Ntp141
Rp142
(dp143
g60
S'P'
p144
sg62
(lp145
F2.0019999999999998
asg64
(lp146
(lp147
F1.0
aasg67
S' C'
p148
sbag0
(g10
g2
Ntp149
Rp150
(dp151
g60
S'P'
p152
sg62
(lp153
F0.54559999999999997
asg64
(lp154
(lp155
F1.0
aasg67
S' C'
p156
sbag0
(g10
g2
Ntp157
Rp158
(dp159
g60
S'P'
p160
sg62
(lp161
F0.1517
asg64
(lp162
(lp163
F1.0
aasg67
S' C'
p164
sbag0
(g10
g2
Ntp165
Rp166
(dp167
g60
S'D'
p168
sg62
(lp169
F0.55000000000000004
asg64
(lp170
(lp171
F1.0
aasg67
S' C'
p172
sbag0
(g10
g2
Ntp173
Rp174
(dp175
g60
S'S'
p176
sg62
(lp177
F4.5300000000000002
asg64
(lp178
(lp179
F1.0
aasg67
S' C'
p180
sbag0
(g10
g2
Ntp181
Rp182
(dp183
g60
S'P'
p184
sg62
(lp185
F14.557
asg64
(lp186
(lp187
F1.0
aasg67
S' C'
p188
sbasS'S'
p189
(lp190
g0
(g10
g2
Ntp191
Rp192
(dp193
S'angularMomentum'
p194
S'S'
p195
sS'exponents'
p196
(lp197
F110800.0
asS'coefficients'
p198
(lp199
(lp200
F1.0
aasS'atom'
p201
S' S'
p202
sbag0
(g10
g2
Ntp203
Rp204
(dp205
g194
S'S'
p206
sg196
(lp207
F16610.0
asg198
(lp208
(lp209
F1.0
aasg201
S' S'
p210
sbag0
(g10
g2
Ntp211
Rp212
(dp213
g194
S'S'
p214
sg196
(lp215
F3781.0
asg198
(lp216
(lp217
F1.0
aasg201
S' S'
p218
sbag0
(g10
g2
Ntp219
Rp220
(dp221
g194
S'S'
p222
sg196
(lp223
F1071.0
asg198
(lp224
(lp225
F1.0
aasg201
S' S'
p226
sbag0
(g10
g2
Ntp227
Rp228
(dp229
g194
S'S'
p230
sg196
(lp231
F349.80000000000001
asg198
(lp232
(lp233
F1.0
aasg201
S' S'
p234
sbag0
(g10
g2
Ntp235
Rp236
(dp237
g194
S'S'
p238
sg196
(lp239
F126.3
asg198
(lp240
(lp241
F1.0
aasg201
S' S'
p242
sbag0
(g10
g2
Ntp243
Rp244
(dp245
g194
S'S'
p246
sg196
(lp247
F49.259999999999998
asg198
(lp248
(lp249
F1.0
aasg201
S' S'
p250
sbag0
(g10
g2
Ntp251
Rp252
(dp253
g194
S'S'
p254
sg196
(lp255
F20.16
asg198
(lp256
(lp257
F1.0
aasg201
S' S'
p258
sbag0
(g10
g2
Ntp259
Rp260
(dp261
g194
S'S'
p262
sg196
(lp263
F5.7199999999999998
asg198
(lp264
(lp265
F1.0
aasg201
S' S'
p266
sbag0
(g10
g2
Ntp267
Rp268
(dp269
g194
S'S'
p270
sg196
(lp271
F2.1819999999999999
asg198
(lp272
(lp273
F1.0
aasg201
S' S'
p274
sbag0
(g10
g2
Ntp275
Rp276
(dp277
g194
S'S'
p278
sg196
(lp279
F0.43269999999999997
asg198
(lp280
(lp281
F1.0
aasg201
S' S'
p282
sbag0
(g10
g2
Ntp283
Rp284
(dp285
g194
S'S'
p286
sg196
(lp287
F0.157
asg198
(lp288
(lp289
F1.0
aasg201
S' S'
p290
sbag0
(g10
g2
Ntp291
Rp292
(dp293
g194
S'P'
p294
sg196
(lp295
F399.69999999999999
asg198
(lp296
(lp297
F1.0
aasg201
S' S'
p298
sbag0
(g10
g2
Ntp299
Rp300
(dp301
g194
S'P'
p302
sg196
(lp303
F94.189999999999998
asg198
(lp304
(lp305
F1.0
aasg201
S' S'
p306
sbag0
(g10
g2
Ntp307
Rp308
(dp309
g194
S'P'
p310
sg196
(lp311
F29.75
asg198
(lp312
(lp313
F1.0
aasg201
S' S'
p314
sbag0
(g10
g2
Ntp315
Rp316
(dp317
g194
S'P'
p318
sg196
(lp319
F10.77
asg198
(lp320
(lp321
F1.0
aasg201
S' S'
p322
sbag0
(g10
g2
Ntp323
Rp324
(dp325
g194
S'P'
p326
sg196
(lp327
F4.1189999999999998
asg198
(lp328
(lp329
F1.0
aasg201
S' S'
p330
sbag0
(g10
g2
Ntp331
Rp332
(dp333
g194
S'P'
p334
sg196
(lp335
F1.625
asg198
(lp336
(lp337
F1.0
aasg201
S' S'
p338
sbag0
(g10
g2
Ntp339
Rp340
(dp341
g194
S'P'
p342
sg196
(lp343
F0.47260000000000002
asg198
(lp344
(lp345
F1.0
aasg201
S' S'
p346
sbag0
(g10
g2
Ntp347
Rp348
(dp349
g194
S'P'
p350
sg196
(lp351
F0.14069999999999999
asg198
(lp352
(lp353
F1.0
aasg201
S' S'
p354
sbag0
(g10
g2
Ntp355
Rp356
(dp357
g194
S'D'
p358
sg196
(lp359
F0.47899999999999998
asg198
(lp360
(lp361
F1.0
aasg201
S' S'
p362
sbag0
(g10
g2
Ntp363
Rp364
(dp365
g194
S'S'
p366
sg196
(lp367
F7.0830000000000002
asg198
(lp368
(lp369
F1.0
aasg201
S' S'
p370
sbag0
(g10
g2
Ntp371
Rp372
(dp373
g194
S'P'
p374
sg196
(lp375
F3.089
asg198
(lp376
(lp377
F1.0
aasg201
S' S'
p378
sbag0
(g10
g2
Ntp379
Rp380
(dp381
g194
S'D'
p382
sg196
(lp383
F8.3629999999999995
asg198
(lp384
(lp385
F1.0
aasg201
S' S'
p386
sbasS'O'
p387
(lp388
g0
(g10
g2
Ntp389
Rp390
(dp391
S'angularMomentum'
p392
S'S'
p393
sS'exponents'
p394
(lp395
F11720.0
asS'coefficients'
p396
(lp397
(lp398
F1.0
aasS'atom'
p399
S' O'
p400
sbag0
(g10
g2
Ntp401
Rp402
(dp403
g392
S'S'
p404
sg394
(lp405
F1759.0
asg396
(lp406
(lp407
F1.0
aasg399
S' O'
p408
sbag0
(g10
g2
Ntp409
Rp410
(dp411
g392
S'S'
p412
sg394
(lp413
F400.80000000000001
asg396
(lp414
(lp415
F1.0
aasg399
S' O'
p416
sbag0
(g10
g2
Ntp417
Rp418
(dp419
g392
S'S'
p420
sg394
(lp421
F113.7
asg396
(lp422
(lp423
F1.0
aasg399
S' O'
p424
sbag0
(g10
g2
Ntp425
Rp426
(dp427
g392
S'S'
p428
sg394
(lp429
F37.030000000000001
asg396
(lp430
(lp431
F1.0
aasg399
S' O'
p432
sbag0
(g10
g2
Ntp433
Rp434
(dp435
g392
S'S'
p436
sg394
(lp437
F13.27
asg396
(lp438
(lp439
F1.0
aasg399
S' O'
p440
sbag0
(g10
g2
Ntp441
Rp442
(dp443
g392
S'S'
p444
sg394
(lp445
F5.0250000000000004
asg396
(lp446
(lp447
F1.0
aasg399
S' O'
p448
sbag0
(g10
g2
Ntp449
Rp450
(dp451
g392
S'S'
p452
sg394
(lp453
F1.0129999999999999
asg396
(lp454
(lp455
F1.0
aasg399
S' O'
p456
sbag0
(g10
g2
Ntp457
Rp458
(dp459
g392
S'S'
p460
sg394
(lp461
F0.30230000000000001
asg396
(lp462
(lp463
F1.0
aasg399
S' O'
p464
sbag0
(g10
g2
Ntp465
Rp466
(dp467
g392
S'P'
p468
sg394
(lp469
F17.699999999999999
asg396
(lp470
(lp471
F1.0
aasg399
S' O'
p472
sbag0
(g10
g2
Ntp473
Rp474
(dp475
g392
S'P'
p476
sg394
(lp477
F3.8540000000000001
asg396
(lp478
(lp479
F1.0
aasg399
S' O'
p480
sbag0
(g10
g2
Ntp481
Rp482
(dp483
g392
S'P'
p484
sg394
(lp485
F1.046
asg396
(lp486
(lp487
F1.0
aasg399
S' O'
p488
sbag0
(g10
g2
Ntp489
Rp490
(dp491
g392
S'P'
p492
sg394
(lp493
F0.27529999999999999
asg396
(lp494
(lp495
F1.0
aasg399
S' O'
p496
sbag0
(g10
g2
Ntp497
Rp498
(dp499
g392
S'D'
p500
sg394
(lp501
F1.1850000000000001
asg396
(lp502
(lp503
F1.0
aasg399
S' O'
p504
sbag0
(g10
g2
Ntp505
Rp506
(dp507
g392
S'S'
p508
sg394
(lp509
F8.2149999999999999
asg396
(lp510
(lp511
F1.0
aasg399
S' O'
p512
sbag0
(g10
g2
Ntp513
Rp514
(dp515
g392
S'P'
p516
sg394
(lp517
F26.056000000000001
asg396
(lp518
(lp519
F1.0
aasg399
S' O'
p520
sbasS'N'
p521
(lp522
g0
(g10
g2
Ntp523
Rp524
(dp525
S'angularMomentum'
p526
S'S'
p527
sS'exponents'
p528
(lp529
F9046.0
asS'coefficients'
p530
(lp531
(lp532
F1.0
aasS'atom'
p533
S' N'
p534
sbag0
(g10
g2
Ntp535
Rp536
(dp537
g526
S'S'
p538
sg528
(lp539
F1357.0
asg530
(lp540
(lp541
F1.0
aasg533
S' N'
p542
sbag0
(g10
g2
Ntp543
Rp544
(dp545
g526
S'S'
p546
sg528
(lp547
F309.30000000000001
asg530
(lp548
(lp549
F1.0
aasg533
S' N'
p550
sbag0
(g10
g2
Ntp551
Rp552
(dp553
g526
S'S'
p554
sg528
(lp555
F87.730000000000004
asg530
(lp556
(lp557
F1.0
aasg533
S' N'
p558
sbag0
(g10
g2
Ntp559
Rp560
(dp561
g526
S'S'
p562
sg528
(lp563
F28.559999999999999
asg530
(lp564
(lp565
F1.0
aasg533
S' N'
p566
sbag0
(g10
g2
Ntp567
Rp568
(dp569
g526
S'S'
p570
sg528
(lp571
F10.210000000000001
asg530
(lp572
(lp573
F1.0
aasg533
S' N'
p574
sbag0
(g10
g2
Ntp575
Rp576
(dp577
g526
S'S'
p578
sg528
(lp579
F3.8380000000000001
asg530
(lp580
(lp581
F1.0
aasg533
S' N'
p582
sbag0
(g10
g2
Ntp583
Rp584
(dp585
g526
S'S'
p586
sg528
(lp587
F0.74660000000000004
asg530
(lp588
(lp589
F1.0
aasg533
S' N'
p590
sbag0
(g10
g2
Ntp591
Rp592
(dp593
g526
S'S'
p594
sg528
(lp595
F0.2248
asg530
(lp596
(lp597
F1.0
aasg533
S' N'
p598
sbag0
(g10
g2
Ntp599
Rp600
(dp601
g526
S'P'
p602
sg528
(lp603
F13.550000000000001
asg530
(lp604
(lp605
F1.0
aasg533
S' N'
p606
sbag0
(g10
g2
Ntp607
Rp608
(dp609
g526
S'P'
p610
sg528
(lp611
F2.9169999999999998
asg530
(lp612
(lp613
F1.0
aasg533
S' N'
p614
sbag0
(g10
g2
Ntp615
Rp616
(dp617
g526
S'P'
p618
sg528
(lp619
F0.79730000000000001
asg530
(lp620
(lp621
F1.0
aasg533
S' N'
p622
sbag0
(g10
g2
Ntp623
Rp624
(dp625
g526
S'P'
p626
sg528
(lp627
F0.2185
asg530
(lp628
(lp629
F1.0
aasg533
S' N'
p630
sbag0
(g10
g2
Ntp631
Rp632
(dp633
g526
S'D'
p634
sg528
(lp635
F0.81699999999999995
asg530
(lp636
(lp637
F1.0
aasg533
S' N'
p638
sbag0
(g10
g2
Ntp639
Rp640
(dp641
g526
S'S'
p642
sg528
(lp643
F6.2329999999999997
asg530
(lp644
(lp645
F1.0
aasg533
S' N'
p646
sbag0
(g10
g2
Ntp647
Rp648
(dp649
g526
S'P'
p650
sg528
(lp651
F19.977
asg530
(lp652
(lp653
F1.0
aasg533
S' N'
p654
sbassb.