ccopy_reg
_reconstructor
p0
(cbasisset
BasisSet
p1
c__builtin__
object
p2
Ntp3
Rp4
(dp5
S'basisDictionary'
p6
(dp7
S'H'
p8
(lp9
g0
(cbasisset
Shell
p10
g2
Ntp11
Rp12
(dp13
S'angularMomentum'
p14
S'S'
p15
sS'exponents'
p16
(lp17
F82.640000000000001
asS'coefficients'
p18
(lp19
(lp20
F1.0
aasS'atom'
p21
S' H'
p22
sbag0
(g10
g2
Ntp23
Rp24
(dp25
g14
S'S'
p26
sg16
(lp27
F12.41
asg18
(lp28
(lp29
F1.0
aasg21
S' H'
p30
sbag0
(g10
g2
Ntp31
Rp32
(dp33
g14
S'S'
p34
sg16
(lp35
F2.8239999999999998
asg18
(lp36
(lp37
F1.0
aasg21
S' H'
p38
sbag0
(g10
g2
Ntp39
Rp40
(dp41
g14
S'S'
p42
sg16
(lp43
F0.79769999999999996
asg18
(lp44
(lp45
F1.0
aasg21
S' H'
p46
sbag0
(g10
g2
Ntp47
Rp48
(dp49
g14
S'S'
p50
sg16
(lp51
F0.2581
asg18
(lp52
(lp53
F1.0
aasg21
S' H'
p54
sbag0
(g10
g2
Ntp55
Rp56
(dp57
g14
S'S'
p58
sg16
(lp59
F0.089889999999999998
asg18
(lp60
(lp61
F1.0
aasg21
S' H'
p62
sbag0
(g10
g2
Ntp63
Rp64
(dp65
g14
S'P'
p66
sg16
(lp67
F2.2919999999999998
asg18
(lp68
(lp69
F1.0
aasg21
S' H'
p70
sbag0
(g10
g2
Ntp71
Rp72
(dp73
g14
S'P'
p74
sg16
(lp75
F0.83799999999999997
asg18
(lp76
(lp77
F1.0
aasg21
S' H'
p78
sbag0
(g10
g2
Ntp79
Rp80
(dp81
g14
S'P'
p82
sg16
(lp83
F0.29199999999999998
asg18
(lp84
(lp85
F1.0
aasg21
S' H'
p86
sbag0
(g10
g2
Ntp87
Rp88
(dp89
g14
S'D'
p90
sg16
(lp91
F2.0619999999999998
asg18
(lp92
(lp93
F1.0
aasg21
S' H'
p94
sbag0
(g10
g2
Ntp95
Rp96
(dp97
g14
S'D'
p98
sg16
(lp99
F0.66200000000000003
asg18
(lp100
(lp101
F1.0
aasg21
S' H'
p102
sbag0
(g10
g2
Ntp103
Rp104
(dp105
g14
S'F'
p106
sg16
(lp107
F1.397
asg18
(lp108
(lp109
F1.0
aasg21
S' H'
p110
sbasS'C'
p111
(lp112
g0
(g10
g2
Ntp113
Rp114
(dp115
S'angularMomentum'
p116
S'S'
p117
sS'exponents'
p118
(lp119
F33980.0
asS'coefficients'
p120
(lp121
(lp122
F1.0
aasS'atom'
p123
S' C'
p124
sbag0
(g10
g2
Ntp125
Rp126
(dp127
g116
S'S'
p128
sg118
(lp129
F5089.0
asg120
(lp130
(lp131
F1.0
aasg123
S' C'
p132
sbag0
(g10
g2
Ntp133
Rp134
(dp135
g116
S'S'
p136
sg118
(lp137
F1157.0
asg120
(lp138
(lp139
F1.0
aasg123
S' C'
p140
sbag0
(g10
g2
Ntp141
Rp142
(dp143
g116
S'S'
p144
sg118
(lp145
F326.60000000000002
asg120
(lp146
(lp147
F1.0
aasg123
S' C'
p148
sbag0
(g10
g2
Ntp149
Rp150
(dp151
g116
S'S'
p152
sg118
(lp153
F106.09999999999999
asg120
(lp154
(lp155
F1.0
aasg123
S' C'
p156
sbag0
(g10
g2
Ntp157
Rp158
(dp159
g116
S'S'
p160
sg118
(lp161
F38.109999999999999
asg120
(lp162
(lp163
F1.0
aasg123
S' C'
p164
sbag0
(g10
g2
Ntp165
Rp166
(dp167
g116
S'S'
p168
sg118
(lp169
F14.75
asg120
(lp170
(lp171
F1.0
aasg123
S' C'
p172
sbag0
(g10
g2
Ntp173
Rp174
(dp175
g116
S'S'
p176
sg118
(lp177
F6.0350000000000001
asg120
(lp178
(lp179
F1.0
aasg123
S' C'
p180
sbag0
(g10
g2
Ntp181
Rp182
(dp183
g116
S'S'
p184
sg118
(lp185
F2.5299999999999998
asg120
(lp186
(lp187
F1.0
aasg123
S' C'
p188
sbag0
(g10
g2
Ntp189
Rp190
(dp191
g116
S'S'
p192
sg118
(lp193
F0.73550000000000004
asg120
(lp194
(lp195
F1.0
aasg123
S' C'
p196
sbag0
(g10
g2
Ntp197
Rp198
(dp199
g116
S'S'
p200
sg118
(lp201
F0.29049999999999998
asg120
(lp202
(lp203
F1.0
aasg123
S' C'
p204
sbag0
(g10
g2
Ntp205
Rp206
(dp207
g116
S'S'
p208
sg118
(lp209
F0.1111
asg120
(lp210
(lp211
F1.0
aasg123
S' C'
p212
sbag0
(g10
g2
Ntp213
Rp214
(dp215
g116
S'P'
p216
sg118
(lp217
F34.509999999999998
asg120
(lp218
(lp219
F1.0
aasg123
S' C'
p220
sbag0
(g10
g2
Ntp221
Rp222
(dp223
g116
S'P'
p224
sg118
(lp225
F7.915
asg120
(lp226
(lp227
F1.0
aasg123
S' C'
p228
sbag0
(g10
g2
Ntp229
Rp230
(dp231
g116
S'P'
p232
sg118
(lp233
F2.3679999999999999
asg120
(lp234
(lp235
F1.0
aasg123
S' C'
p236
sbag0
(g10
g2
Ntp237
Rp238
(dp239
g116
S'P'
p240
sg118
(lp241
F0.81320000000000003
asg120
(lp242
(lp243
F1.0
aasg123
S' C'
p244
sbag0
(g10
g2
Ntp245
Rp246
(dp247
g116
S'P'
p248
sg118
(lp249
F0.28899999999999998
asg120
(lp250
(lp251
F1.0
aasg123
S' C'
p252
sbag0
(g10
g2
Ntp253
Rp254
(dp255
g116
S'P'
p256
sg118
(lp257
F0.1007
asg120
(lp258
(lp259
F1.0
aasg123
S' C'
p260
sbag0
(g10
g2
Ntp261
Rp262
(dp263
g116
S'D'
p264
sg118
(lp265
F1.8480000000000001
asg120
(lp266
(lp267
F1.0
aasg123
S' C'
p268
sbag0
(g10
g2
Ntp269
Rp270
(dp271
g116
S'D'
p272
sg118
(lp273
F0.64900000000000002
asg120
(lp274
(lp275
F1.0
aasg123
S' C'
p276
sbag0
(g10
g2
Ntp277
Rp278
(dp279
g116
S'D'
p280
sg118
(lp281
F0.22800000000000001
asg120
(lp282
(lp283
F1.0
aasg123
S' C'
p284
sbag0
(g10
g2
Ntp285
Rp286
(dp287
g116
S'F'
p288
sg118
(lp289
F1.419
asg120
(lp290
(lp291
F1.0
aasg123
S' C'
p292
sbag0
(g10
g2
Ntp293
Rp294
(dp295
g116
S'F'
p296
sg118
(lp297
F0.48499999999999999
asg120
(lp298
(lp299
F1.0
aasg123
S' C'
p300
sbag0
(g10
g2
Ntp301
Rp302
(dp303
g116
S'G'
p304
sg118
(lp305
F1.0109999999999999
asg120
(lp306
(lp307
F1.0
aasg123
S' C'
p308
sbag0
(g10
g2
Ntp309
Rp310
(dp311
g116
S'S'
p312
sg118
(lp313
F7.2160000000000002
asg120
(lp314
(lp315
F1.0
aasg123
S' C'
p316
sbag0
(g10
g2
Ntp317
Rp318
(dp319
g116
S'S'
p320
sg118
(lp321
F19.57
asg120
(lp322
(lp323
F1.0
aasg123
S' C'
p324
sbag0
(g10
g2
Ntp325
Rp326
(dp327
g116
S'S'
p328
sg118
(lp329
F53.073
asg120
(lp330
(lp331
F1.0
aasg123
S' C'
p332
sbag0
(g10
g2
Ntp333
Rp334
(dp335
g116
S'P'
p336
sg118
(lp337
F8.1820000000000004
asg120
(lp338
(lp339
F1.0
aasg123
S' C'
p340
sbag0
(g10
g2
Ntp341
Rp342
(dp343
g116
S'P'
p344
sg118
(lp345
F24.186
asg120
(lp346
(lp347
F1.0
aasg123
S' C'
p348
sbag0
(g10
g2
Ntp349
Rp350
(dp351
g116
S'P'
p352
sg118
(lp353
F71.494
asg120
(lp354
(lp355
F1.0
aasg123
S' C'
p356
sbag0
(g10
g2
Ntp357
Rp358
(dp359
g116
S'D'
p360
sg118
(lp361
F8.6560000000000006
asg120
(lp362
(lp363
F1.0
aasg123
S' C'
p364
sbag0
(g10
g2
Ntp365
Rp366
(dp367
g116
S'D'
p368
sg118
(lp369
F33.213000000000001
asg120
(lp370
(lp371
F1.0
aasg123
S' C'
p372
sbag0
(g10
g2
Ntp373
Rp374
(dp375
g116
S'F'
p376
sg118
(lp377
F24.693999999999999
asg120
(lp378
(lp379
F1.0
aasg123
S' C'
p380
sbasS'S'
p381
(lp382
g0
(g10
g2
Ntp383
Rp384
(dp385
S'angularMomentum'
p386
S'S'
p387
sS'exponents'
p388
(lp389
F727800.0
asS'coefficients'
p390
(lp391
(lp392
F1.0
aasS'atom'
p393
S' S'
p394
sbag0
(g10
g2
Ntp395
Rp396
(dp397
g386
S'S'
p398
sg388
(lp399
F109000.0
asg390
(lp400
(lp401
F1.0
aasg393
S' S'
p402
sbag0
(g10
g2
Ntp403
Rp404
(dp405
g386
S'S'
p406
sg388
(lp407
F24800.0
asg390
(lp408
(lp409
F1.0
aasg393
S' S'
p410
sbag0
(g10
g2
Ntp411
Rp412
(dp413
g386
S'S'
p414
sg388
(lp415
F7014.0
asg390
(lp416
(lp417
F1.0
aasg393
S' S'
p418
sbag0
(g10
g2
Ntp419
Rp420
(dp421
g386
S'S'
p422
sg388
(lp423
F2278.0
asg390
(lp424
(lp425
F1.0
aasg393
S' S'
p426
sbag0
(g10
g2
Ntp427
Rp428
(dp429
g386
S'S'
p430
sg388
(lp431
F814.70000000000005
asg390
(lp432
(lp433
F1.0
aasg393
S' S'
p434
sbag0
(g10
g2
Ntp435
Rp436
(dp437
g386
S'S'
p438
sg388
(lp439
F313.39999999999998
asg390
(lp440
(lp441
F1.0
aasg393
S' S'
p442
sbag0
(g10
g2
Ntp443
Rp444
(dp445
g386
S'S'
p446
sg388
(lp447
F127.7
asg390
(lp448
(lp449
F1.0
aasg393
S' S'
p450
sbag0
(g10
g2
Ntp451
Rp452
(dp453
g386
S'S'
p454
sg388
(lp455
F54.479999999999997
asg390
(lp456
(lp457
F1.0
aasg393
S' S'
p458
sbag0
(g10
g2
Ntp459
Rp460
(dp461
g386
S'S'
p462
sg388
(lp463
F23.850000000000001
asg390
(lp464
(lp465
F1.0
aasg393
S' S'
p466
sbag0
(g10
g2
Ntp467
Rp468
(dp469
g386
S'S'
p470
sg388
(lp471
F9.4280000000000008
asg390
(lp472
(lp473
F1.0
aasg393
S' S'
p474
sbag0
(g10
g2
Ntp475
Rp476
(dp477
g386
S'S'
p478
sg388
(lp479
F4.29
asg390
(lp480
(lp481
F1.0
aasg393
S' S'
p482
sbag0
(g10
g2
Ntp483
Rp484
(dp485
g386
S'S'
p486
sg388
(lp487
F1.909
asg390
(lp488
(lp489
F1.0
aasg393
S' S'
p490
sbag0
(g10
g2
Ntp491
Rp492
(dp493
g386
S'S'
p494
sg388
(lp495
F0.627
asg390
(lp496
(lp497
F1.0
aasg393
S' S'
p498
sbag0
(g10
g2
Ntp499
Rp500
(dp501
g386
S'S'
p502
sg388
(lp503
F0.2873
asg390
(lp504
(lp505
F1.0
aasg393
S' S'
p506
sbag0
(g10
g2
Ntp507
Rp508
(dp509
g386
S'S'
p510
sg388
(lp511
F0.1172
asg390
(lp512
(lp513
F1.0
aasg393
S' S'
p514
sbag0
(g10
g2
Ntp515
Rp516
(dp517
g386
S'P'
p518
sg388
(lp519
F1546.0
asg390
(lp520
(lp521
F1.0
aasg393
S' S'
p522
sbag0
(g10
g2
Ntp523
Rp524
(dp525
g386
S'P'
p526
sg388
(lp527
F366.39999999999998
asg390
(lp528
(lp529
F1.0
aasg393
S' S'
p530
sbag0
(g10
g2
Ntp531
Rp532
(dp533
g386
S'P'
p534
sg388
(lp535
F118.40000000000001
asg390
(lp536
(lp537
F1.0
aasg393
S' S'
p538
sbag0
(g10
g2
Ntp539
Rp540
(dp541
g386
S'P'
p542
sg388
(lp543
F44.530000000000001
asg390
(lp544
(lp545
F1.0
aasg393
S' S'
p546
sbag0
(g10
g2
Ntp547
Rp548
(dp549
g386
S'P'
p550
sg388
(lp551
F18.379999999999999
asg390
(lp552
(lp553
F1.0
aasg393
S' S'
p554
sbag0
(g10
g2
Ntp555
Rp556
(dp557
g386
S'P'
p558
sg388
(lp559
F7.9649999999999999
asg390
(lp560
(lp561
F1.0
aasg393
S' S'
p562
sbag0
(g10
g2
Ntp563
Rp564
(dp565
g386
S'P'
p566
sg388
(lp567
F3.5409999999999999
asg390
(lp568
(lp569
F1.0
aasg393
S' S'
p570
sbag0
(g10
g2
Ntp571
Rp572
(dp573
g386
S'P'
p574
sg388
(lp575
F1.591
asg390
(lp576
(lp577
F1.0
aasg393
S' S'
p578
sbag0
(g10
g2
Ntp579
Rp580
(dp581
g386
S'P'
p582
sg388
(lp583
F0.62050000000000005
asg390
(lp584
(lp585
F1.0
aasg393
S' S'
p586
sbag0
(g10
g2
Ntp587
Rp588
(dp589
g386
S'P'
p590
sg388
(lp591
F0.24199999999999999
asg390
(lp592
(lp593
F1.0
aasg393
S' S'
p594
sbag0
(g10
g2
Ntp595
Rp596
(dp597
g386
S'P'
p598
sg388
(lp599
F0.090139999999999998
asg390
(lp600
(lp601
F1.0
aasg393
S' S'
p602
sbag0
(g10
g2
Ntp603
Rp604
(dp605
g386
S'D'
p606
sg388
(lp607
F0.20300000000000001
asg390
(lp608
(lp609
F1.0
aasg393
S' S'
p610
sbag0
(g10
g2
Ntp611
Rp612
(dp613
g386
S'D'
p614
sg388
(lp615
F0.504
asg390
(lp616
(lp617
F1.0
aasg393
S' S'
p618
sbag0
(g10
g2
Ntp619
Rp620
(dp621
g386
S'D'
p622
sg388
(lp623
F1.25
asg390
(lp624
(lp625
F1.0
aasg393
S' S'
p626
sbag0
(g10
g2
Ntp627
Rp628
(dp629
g386
S'F'
p630
sg388
(lp631
F0.33500000000000002
asg390
(lp632
(lp633
F1.0
aasg393
S' S'
p634
sbag0
(g10
g2
Ntp635
Rp636
(dp637
g386
S'F'
p638
sg388
(lp639
F0.86899999999999999
asg390
(lp640
(lp641
F1.0
aasg393
S' S'
p642
sbag0
(g10
g2
Ntp643
Rp644
(dp645
g386
S'G'
p646
sg388
(lp647
F0.68300000000000005
asg390
(lp648
(lp649
F1.0
aasg393
S' S'
p650
sbag0
(g10
g2
Ntp651
Rp652
(dp653
g386
S'S'
p654
sg388
(lp655
F17.599
asg390
(lp656
(lp657
F1.0
aasg393
S' S'
p658
sbag0
(g10
g2
Ntp659
Rp660
(dp661
g386
S'S'
p662
sg388
(lp663
F9.1859999999999999
asg390
(lp664
(lp665
F1.0
aasg393
S' S'
p666
sbag0
(g10
g2
Ntp667
Rp668
(dp669
g386
S'S'
p670
sg388
(lp671
F4.7949999999999999
asg390
(lp672
(lp673
F1.0
aasg393
S' S'
p674
sbag0
(g10
g2
Ntp675
Rp676
(dp677
g386
S'P'
p678
sg388
(lp679
F18.126999999999999
asg390
(lp680
(lp681
F1.0
aasg393
S' S'
p682
sbag0
(g10
g2
Ntp683
Rp684
(dp685
g386
S'P'
p686
sg388
(lp687
F8.2189999999999994
asg390
(lp688
(lp689
F1.0
aasg393
S' S'
p690
sbag0
(g10
g2
Ntp691
Rp692
(dp693
g386
S'P'
p694
sg388
(lp695
F3.726
asg390
(lp696
(lp697
F1.0
aasg393
S' S'
p698
sbag0
(g10
g2
Ntp699
Rp700
(dp701
g386
S'D'
p702
sg388
(lp703
F27.417000000000002
asg390
(lp704
(lp705
F1.0
aasg393
S' S'
p706
sbag0
(g10
g2
Ntp707
Rp708
(dp709
g386
S'D'
p710
sg388
(lp711
F10.893000000000001
asg390
(lp712
(lp713
F1.0
aasg393
S' S'
p714
sbag0
(g10
g2
Ntp715
Rp716
(dp717
g386
S'D'
p718
sg388
(lp719
F4.319
asg390
(lp720
(lp721
F1.0
aasg393
S' S'
p722
sbag0
(g10
g2
Ntp723
Rp724
(dp725
g386
S'F'
p726
sg388
(lp727
F16.535
asg390
(lp728
(lp729
F1.0
aasg393
S' S'
p730
sbag0
(g10
g2
Ntp731
Rp732
(dp733
g386
S'F'
p734
sg388
(lp735
F6.008
asg390
(lp736
(lp737
F1.0
aasg393
S' S'
p738
sbag0
(g10
g2
Ntp739
Rp740
(dp741
g386
S'G'
p742
sg388
(lp743
F12.518000000000001
asg390
(lp744
(lp745
F1.0
aasg393
S' S'
p746
sbasS'O'
p747
(lp748
g0
(g10
g2
Ntp749
Rp750
(dp751
S'angularMomentum'
p752
S'S'
p753
sS'exponents'
p754
(lp755
F61420.0
asS'coefficients'
p756
(lp757
(lp758
F1.0
aasS'atom'
p759
S' O'
p760
sbag0
(g10
g2
Ntp761
Rp762
(dp763
g752
S'S'
p764
sg754
(lp765
F9199.0
asg756
(lp766
(lp767
F1.0
aasg759
S' O'
p768
sbag0
(g10
g2
Ntp769
Rp770
(dp771
g752
S'S'
p772
sg754
(lp773
F2091.0
asg756
(lp774
(lp775
F1.0
aasg759
S' O'
p776
sbag0
(g10
g2
Ntp777
Rp778
(dp779
g752
S'S'
p780
sg754
(lp781
F590.89999999999998
asg756
(lp782
(lp783
F1.0
aasg759
S' O'
p784
sbag0
(g10
g2
Ntp785
Rp786
(dp787
g752
S'S'
p788
sg754
(lp789
F192.30000000000001
asg756
(lp790
(lp791
F1.0
aasg759
S' O'
p792
sbag0
(g10
g2
Ntp793
Rp794
(dp795
g752
S'S'
p796
sg754
(lp797
F69.319999999999993
asg756
(lp798
(lp799
F1.0
aasg759
S' O'
p800
sbag0
(g10
g2
Ntp801
Rp802
(dp803
g752
S'S'
p804
sg754
(lp805
F26.969999999999999
asg756
(lp806
(lp807
F1.0
aasg759
S' O'
p808
sbag0
(g10
g2
Ntp809
Rp810
(dp811
g752
S'S'
p812
sg754
(lp813
F11.1
asg756
(lp814
(lp815
F1.0
aasg759
S' O'
p816
sbag0
(g10
g2
Ntp817
Rp818
(dp819
g752
S'S'
p820
sg754
(lp821
F4.6820000000000004
asg756
(lp822
(lp823
F1.0
aasg759
S' O'
p824
sbag0
(g10
g2
Ntp825
Rp826
(dp827
g752
S'S'
p828
sg754
(lp829
F1.4279999999999999
asg756
(lp830
(lp831
F1.0
aasg759
S' O'
p832
sbag0
(g10
g2
Ntp833
Rp834
(dp835
g752
S'S'
p836
sg754
(lp837
F0.55469999999999997
asg756
(lp838
(lp839
F1.0
aasg759
S' O'
p840
sbag0
(g10
g2
Ntp841
Rp842
(dp843
g752
S'S'
p844
sg754
(lp845
F0.20669999999999999
asg756
(lp846
(lp847
F1.0
aasg759
S' O'
p848
sbag0
(g10
g2
Ntp849
Rp850
(dp851
g752
S'P'
p852
sg754
(lp853
F63.420000000000002
asg756
(lp854
(lp855
F1.0
aasg759
S' O'
p856
sbag0
(g10
g2
Ntp857
Rp858
(dp859
g752
S'P'
p860
sg754
(lp861
F14.66
asg756
(lp862
(lp863
F1.0
aasg759
S' O'
p864
sbag0
(g10
g2
Ntp865
Rp866
(dp867
g752
S'P'
p868
sg754
(lp869
F4.4589999999999996
asg756
(lp870
(lp871
F1.0
aasg759
S' O'
p872
sbag0
(g10
g2
Ntp873
Rp874
(dp875
g752
S'P'
p876
sg754
(lp877
F1.5309999999999999
asg756
(lp878
(lp879
F1.0
aasg759
S' O'
p880
sbag0
(g10
g2
Ntp881
Rp882
(dp883
g752
S'P'
p884
sg754
(lp885
F0.5302
asg756
(lp886
(lp887
F1.0
aasg759
S' O'
p888
sbag0
(g10
g2
Ntp889
Rp890
(dp891
g752
S'P'
p892
sg754
(lp893
F0.17499999999999999
asg756
(lp894
(lp895
F1.0
aasg759
S' O'
p896
sbag0
(g10
g2
Ntp897
Rp898
(dp899
g752
S'D'
p900
sg754
(lp901
F3.7749999999999999
asg756
(lp902
(lp903
F1.0
aasg759
S' O'
p904
sbag0
(g10
g2
Ntp905
Rp906
(dp907
g752
S'D'
p908
sg754
(lp909
F1.3
asg756
(lp910
(lp911
F1.0
aasg759
S' O'
p912
sbag0
(g10
g2
Ntp913
Rp914
(dp915
g752
S'D'
p916
sg754
(lp917
F0.44400000000000001
asg756
(lp918
(lp919
F1.0
aasg759
S' O'
p920
sbag0
(g10
g2
Ntp921
Rp922
(dp923
g752
S'F'
p924
sg754
(lp925
F2.6659999999999999
asg756
(lp926
(lp927
F1.0
aasg759
S' O'
p928
sbag0
(g10
g2
Ntp929
Rp930
(dp931
g752
S'F'
p932
sg754
(lp933
F0.85899999999999999
asg756
(lp934
(lp935
F1.0
aasg759
S' O'
p936
sbag0
(g10
g2
Ntp937
Rp938
(dp939
g752
S'G'
p940
sg754
(lp941
F1.8460000000000001
asg756
(lp942
(lp943
F1.0
aasg759
S' O'
p944
sbag0
(g10
g2
Ntp945
Rp946
(dp947
g752
S'S'
p948
sg754
(lp949
F12.974
asg756
(lp950
(lp951
F1.0
aasg759
S' O'
p952
sbag0
(g10
g2
Ntp953
Rp954
(dp955
g752
S'S'
p956
sg754
(lp957
F34.899999999999999
asg756
(lp958
(lp959
F1.0
aasg759
S' O'
p960
sbag0
(g10
g2
Ntp961
Rp962
(dp963
g752
S'S'
p964
sg754
(lp965
F93.881
asg756
(lp966
(lp967
F1.0
aasg759
S' O'
p968
sbag0
(g10
g2
Ntp969
Rp970
(dp971
g752
S'P'
p972
sg754
(lp973
F14.475
asg756
(lp974
(lp975
F1.0
aasg759
S' O'
p976
sbag0
(g10
g2
Ntp977
Rp978
(dp979
g752
S'P'
p980
sg754
(lp981
F42.729999999999997
asg756
(lp982
(lp983
F1.0
aasg759
S' O'
p984
sbag0
(g10
g2
Ntp985
Rp986
(dp987
g752
S'P'
p988
sg754
(lp989
F126.14
asg756
(lp990
(lp991
F1.0
aasg759
S' O'
p992
sbag0
(g10
g2
Ntp993
Rp994
(dp995
g752
S'D'
p996
sg754
(lp997
F14.927
asg756
(lp998
(lp999
F1.0
aasg759
S' O'
p1000
sbag0
(g10
g2
Ntp1001
Rp1002
(dp1003
g752
S'D'
p1004
sg754
(lp1005
F57.543999999999997
asg756
(lp1006
(lp1007
F1.0
aasg759
S' O'
p1008
sbag0
(g10
g2
Ntp1009
Rp1010
(dp1011
g752
S'F'
p1012
sg754
(lp1013
F26.483000000000001
asg756
(lp1014
(lp1015
F1.0
aasg759
S' O'
p1016
sbasS'N'
p1017
(lp1018
g0
(g10
g2
Ntp1019
Rp1020
(dp1021
S'angularMomentum'
p1022
S'S'
p1023
sS'exponents'
p1024
(lp1025
F45840.0
asS'coefficients'
p1026
(lp1027
(lp1028
F1.0
aasS'atom'
p1029
S' N'
p1030
sbag0
(g10
g2
Ntp1031
Rp1032
(dp1033
g1022
S'S'
p1034
sg1024
(lp1035
F6868.0
asg1026
(lp1036
(lp1037
F1.0
aasg1029
S' N'
p1038
sbag0
(g10
g2
Ntp1039
Rp1040
(dp1041
g1022
S'S'
p1042
sg1024
(lp1043
F1563.0
asg1026
(lp1044
(lp1045
F1.0
aasg1029
S' N'
p1046
sbag0
(g10
g2
Ntp1047
Rp1048
(dp1049
g1022
S'S'
p1050
sg1024
(lp1051
F442.39999999999998
asg1026
(lp1052
(lp1053
F1.0
aasg1029
S' N'
p1054
sbag0
(g10
g2
Ntp1055
Rp1056
(dp1057
g1022
S'S'
p1058
sg1024
(lp1059
F144.30000000000001
asg1026
(lp1060
(lp1061
F1.0
aasg1029
S' N'
p1062
sbag0
(g10
g2
Ntp1063
Rp1064
(dp1065
g1022
S'S'
p1066
sg1024
(lp1067
F52.18
asg1026
(lp1068
(lp1069
F1.0
aasg1029
S' N'
p1070
sbag0
(g10
g2
Ntp1071
Rp1072
(dp1073
g1022
S'S'
p1074
sg1024
(lp1075
F20.34
asg1026
(lp1076
(lp1077
F1.0
aasg1029
S' N'
p1078
sbag0
(g10
g2
Ntp1079
Rp1080
(dp1081
g1022
S'S'
p1082
sg1024
(lp1083
F8.3810000000000002
asg1026
(lp1084
(lp1085
F1.0
aasg1029
S' N'
p1086
sbag0
(g10
g2
Ntp1087
Rp1088
(dp1089
g1022
S'S'
p1090
sg1024
(lp1091
F3.5289999999999999
asg1026
(lp1092
(lp1093
F1.0
aasg1029
S' N'
p1094
sbag0
(g10
g2
Ntp1095
Rp1096
(dp1097
g1022
S'S'
p1098
sg1024
(lp1099
F1.054
asg1026
(lp1100
(lp1101
F1.0
aasg1029
S' N'
p1102
sbag0
(g10
g2
Ntp1103
Rp1104
(dp1105
g1022
S'S'
p1106
sg1024
(lp1107
F0.4118
asg1026
(lp1108
(lp1109
F1.0
aasg1029
S' N'
p1110
sbag0
(g10
g2
Ntp1111
Rp1112
(dp1113
g1022
S'S'
p1114
sg1024
(lp1115
F0.1552
asg1026
(lp1116
(lp1117
F1.0
aasg1029
S' N'
p1118
sbag0
(g10
g2
Ntp1119
Rp1120
(dp1121
g1022
S'P'
p1122
sg1024
(lp1123
F49.329999999999998
asg1026
(lp1124
(lp1125
F1.0
aasg1029
S' N'
p1126
sbag0
(g10
g2
Ntp1127
Rp1128
(dp1129
g1022
S'P'
p1130
sg1024
(lp1131
F11.369999999999999
asg1026
(lp1132
(lp1133
F1.0
aasg1029
S' N'
p1134
sbag0
(g10
g2
Ntp1135
Rp1136
(dp1137
g1022
S'P'
p1138
sg1024
(lp1139
F3.4350000000000001
asg1026
(lp1140
(lp1141
F1.0
aasg1029
S' N'
p1142
sbag0
(g10
g2
Ntp1143
Rp1144
(dp1145
g1022
S'P'
p1146
sg1024
(lp1147
F1.1819999999999999
asg1026
(lp1148
(lp1149
F1.0
aasg1029
S' N'
p1150
sbag0
(g10
g2
Ntp1151
Rp1152
(dp1153
g1022
S'P'
p1154
sg1024
(lp1155
F0.4173
asg1026
(lp1156
(lp1157
F1.0
aasg1029
S' N'
p1158
sbag0
(g10
g2
Ntp1159
Rp1160
(dp1161
g1022
S'P'
p1162
sg1024
(lp1163
F0.14280000000000001
asg1026
(lp1164
(lp1165
F1.0
aasg1029
S' N'
p1166
sbag0
(g10
g2
Ntp1167
Rp1168
(dp1169
g1022
S'D'
p1170
sg1024
(lp1171
F2.8370000000000002
asg1026
(lp1172
(lp1173
F1.0
aasg1029
S' N'
p1174
sbag0
(g10
g2
Ntp1175
Rp1176
(dp1177
g1022
S'D'
p1178
sg1024
(lp1179
F0.96799999999999997
asg1026
(lp1180
(lp1181
F1.0
aasg1029
S' N'
p1182
sbag0
(g10
g2
Ntp1183
Rp1184
(dp1185
g1022
S'D'
p1186
sg1024
(lp1187
F0.33500000000000002
asg1026
(lp1188
(lp1189
F1.0
aasg1029
S' N'
p1190
sbag0
(g10
g2
Ntp1191
Rp1192
(dp1193
g1022
S'F'
p1194
sg1024
(lp1195
F2.0270000000000001
asg1026
(lp1196
(lp1197
F1.0
aasg1029
S' N'
p1198
sbag0
(g10
g2
Ntp1199
Rp1200
(dp1201
g1022
S'F'
p1202
sg1024
(lp1203
F0.68500000000000005
asg1026
(lp1204
(lp1205
F1.0
aasg1029
S' N'
p1206
sbag0
(g10
g2
Ntp1207
Rp1208
(dp1209
g1022
S'G'
p1210
sg1024
(lp1211
F1.427
asg1026
(lp1212
(lp1213
F1.0
aasg1029
S' N'
p1214
sbag0
(g10
g2
Ntp1215
Rp1216
(dp1217
g1022
S'S'
p1218
sg1024
(lp1219
F9.8620000000000001
asg1026
(lp1220
(lp1221
F1.0
aasg1029
S' N'
p1222
sbag0
(g10
g2
Ntp1223
Rp1224
(dp1225
g1022
S'S'
p1226
sg1024
(lp1227
F26.626999999999999
asg1026
(lp1228
(lp1229
F1.0
aasg1029
S' N'
p1230
sbag0
(g10
g2
Ntp1231
Rp1232
(dp1233
g1022
S'S'
p1234
sg1024
(lp1235
F71.894000000000005
asg1026
(lp1236
(lp1237
F1.0
aasg1029
S' N'
p1238
sbag0
(g10
g2
Ntp1239
Rp1240
(dp1241
g1022
S'P'
p1242
sg1024
(lp1243
F11.32
asg1026
(lp1244
(lp1245
F1.0
aasg1029
S' N'
p1246
sbag0
(g10
g2
Ntp1247
Rp1248
(dp1249
g1022
S'P'
p1250
sg1024
(lp1251
F33.348999999999997
asg1026
(lp1252
(lp1253
F1.0
aasg1029
S' N'
p1254
sbag0
(g10
g2
Ntp1255
Rp1256
(dp1257
g1022
S'P'
p1258
sg1024
(lp1259
F98.245000000000005
asg1026
(lp1260
(lp1261
F1.0
aasg1029
S' N'
p1262
sbag0
(g10
g2
Ntp1263
Rp1264
(dp1265
g1022
S'D'
p1266
sg1024
(lp1267
F11.827999999999999
asg1026
(lp1268
(lp1269
F1.0
aasg1029
S' N'
p1270
sbag0
(g10
g2
Ntp1271
Rp1272
(dp1273
g1022
S'D'
p1274
sg1024
(lp1275
F45.218000000000004
asg1026
(lp1276
(lp1277
F1.0
aasg1029
S' N'
p1278
sbag0
(g10
g2
Ntp1279
Rp1280
(dp1281
g1022
S'F'
p1282
sg1024
(lp1283
F28.364000000000001
asg1026
(lp1284
(lp1285
F1.0
aasg1029
S' N'
p1286
sbassb.