ccopy_reg
_reconstructor
p0
(cbasisset
BasisSet
p1
c__builtin__
object
p2
Ntp3
Rp4
(dp5
S'basisDictionary'
p6
(dp7
VC
p8
(lp9
g0
(cbasisset
Shell
p10
g2
Ntp11
Rp12
(dp13
S'angularMomentum'
p14
VS
p15
sS'exponents'
p16
(lp17
F2.6044130000000001
asS'coefficients'
p18
(lp19
(lp20
F1.0
aasS'atom'
p21
V C
p22
sbag0
(g10
g2
Ntp23
Rp24
(dp25
g14
g15
sg16
(lp26
F1.013644
asg18
(lp27
(lp28
F1.0
aasg21
g22
sbag0
(g10
g2
Ntp29
Rp30
(dp31
g14
g15
sg16
(lp32
F0.39341520000000002
asg18
(lp33
(lp34
F1.0
aasg21
g22
sbag0
(g10
g2
Ntp35
Rp36
(dp37
g14
g15
sg16
(lp38
F0.1529867
asg18
(lp39
(lp40
F1.0
aasg21
g22
sbag0
(g10
g2
Ntp41
Rp42
(dp43
g14
VP
p44
sg16
(lp45
F4.2465330000000003
asg18
(lp46
(lp47
F1.0
aasg21
g22
sbag0
(g10
g2
Ntp48
Rp49
(dp50
g14
g44
sg16
(lp51
F1.821529
asg18
(lp52
(lp53
F1.0
aasg21
g22
sbag0
(g10
g2
Ntp54
Rp55
(dp56
g14
g44
sg16
(lp57
F0.70938049999999997
asg18
(lp58
(lp59
F1.0
aasg21
g22
sbag0
(g10
g2
Ntp60
Rp61
(dp62
g14
g44
sg16
(lp63
F0.29164329999999999
asg18
(lp64
(lp65
F1.0
aasg21
g22
sbag0
(g10
g2
Ntp66
Rp67
(dp68
g14
VD
p69
sg16
(lp70
F12.10493
asg18
(lp71
(lp72
F1.0
aasg21
g22
sbag0
(g10
g2
Ntp73
Rp74
(dp75
g14
g69
sg16
(lp76
F2.1321889999999999
asg18
(lp77
(lp78
F1.0
aasg21
g22
sbag0
(g10
g2
Ntp79
Rp80
(dp81
g14
g69
sg16
(lp82
F0.81733319999999998
asg18
(lp83
(lp84
F1.0
aasg21
g22
sbag0
(g10
g2
Ntp85
Rp86
(dp87
g14
g69
sg16
(lp88
F0.31352360000000001
asg18
(lp89
(lp90
F1.0
aasg21
g22
sbag0
(g10
g2
Ntp91
Rp92
(dp93
g14
VF
p94
sg16
(lp95
F3.4645269999999999
asg18
(lp96
(lp97
F1.0
aasg21
g22
sbag0
(g10
g2
Ntp98
Rp99
(dp100
g14
g94
sg16
(lp101
F0.9617578
asg18
(lp102
(lp103
F1.0
aasg21
g22
sbag0
(g10
g2
Ntp104
Rp105
(dp106
g14
g94
sg16
(lp107
F0.39473629999999998
asg18
(lp108
(lp109
F1.0
aasg21
g22
sbag0
(g10
g2
Ntp110
Rp111
(dp112
g14
VG
p113
sg16
(lp114
F2.8334410000000001
asg18
(lp115
(lp116
F1.0
aasg21
g22
sbag0
(g10
g2
Ntp117
Rp118
(dp119
g14
g113
sg16
(lp120
F0.78728640000000005
asg18
(lp121
(lp122
F1.0
aasg21
g22
sbag0
(g10
g2
Ntp123
Rp124
(dp125
g14
VH
p126
sg16
(lp127
F1.228091
asg18
(lp128
(lp129
F1.0
aasg21
g22
sbasVB
p130
(lp131
g0
(g10
g2
Ntp132
Rp133
(dp134
g14
g15
sg16
(lp135
F2.1105330000000002
asg18
(lp136
(lp137
F1.0
aasg21
V B
p138
sbag0
(g10
g2
Ntp139
Rp140
(dp141
g14
g15
sg16
(lp142
F0.74207029999999996
asg18
(lp143
(lp144
F1.0
aasg21
g138
sbag0
(g10
g2
Ntp145
Rp146
(dp147
g14
g15
sg16
(lp148
F0.26672479999999998
asg18
(lp149
(lp150
F1.0
aasg21
g138
sbag0
(g10
g2
Ntp151
Rp152
(dp153
g14
g15
sg16
(lp154
F0.1103915
asg18
(lp155
(lp156
F1.0
aasg21
g138
sbag0
(g10
g2
Ntp157
Rp158
(dp159
g14
g44
sg16
(lp160
F3.5058889999999998
asg18
(lp161
(lp162
F1.0
aasg21
g138
sbag0
(g10
g2
Ntp163
Rp164
(dp165
g14
g44
sg16
(lp166
F1.079922
asg18
(lp167
(lp168
F1.0
aasg21
g138
sbag0
(g10
g2
Ntp169
Rp170
(dp171
g14
g44
sg16
(lp172
F0.44298989999999999
asg18
(lp173
(lp174
F1.0
aasg21
g138
sbag0
(g10
g2
Ntp175
Rp176
(dp177
g14
g44
sg16
(lp178
F0.18899879999999999
asg18
(lp179
(lp180
F1.0
aasg21
g138
sbag0
(g10
g2
Ntp181
Rp182
(dp183
g14
g69
sg16
(lp184
F5.6166780000000003
asg18
(lp185
(lp186
F1.0
aasg21
g138
sbag0
(g10
g2
Ntp187
Rp188
(dp189
g14
g69
sg16
(lp190
F1.561377
asg18
(lp191
(lp192
F1.0
aasg21
g138
sbag0
(g10
g2
Ntp193
Rp194
(dp195
g14
g69
sg16
(lp196
F0.63893169999999999
asg18
(lp197
(lp198
F1.0
aasg21
g138
sbag0
(g10
g2
Ntp199
Rp200
(dp201
g14
g69
sg16
(lp202
F0.2331164
asg18
(lp203
(lp204
F1.0
aasg21
g138
sbag0
(g10
g2
Ntp205
Rp206
(dp207
g14
g94
sg16
(lp208
F3.1584850000000002
asg18
(lp209
(lp210
F1.0
aasg21
g138
sbag0
(g10
g2
Ntp211
Rp212
(dp213
g14
g94
sg16
(lp214
F0.64541119999999996
asg18
(lp215
(lp216
F1.0
aasg21
g138
sbag0
(g10
g2
Ntp217
Rp218
(dp219
g14
g94
sg16
(lp220
F0.24406810000000001
asg18
(lp221
(lp222
F1.0
aasg21
g138
sbag0
(g10
g2
Ntp223
Rp224
(dp225
g14
g113
sg16
(lp226
F2.4757009999999999
asg18
(lp227
(lp228
F1.0
aasg21
g138
sbag0
(g10
g2
Ntp229
Rp230
(dp231
g14
g113
sg16
(lp232
F0.49775819999999998
asg18
(lp233
(lp234
F1.0
aasg21
g138
sbag0
(g10
g2
Ntp235
Rp236
(dp237
g14
g126
sg16
(lp238
F0.79132820000000004
asg18
(lp239
(lp240
F1.0
aasg21
g138
sbasg94
(lp241
g0
(g10
g2
Ntp242
Rp243
(dp244
g14
g15
sg16
(lp245
F5.3056939999999999
asg18
(lp246
(lp247
F1.0
aasg21
V F
p248
sbag0
(g10
g2
Ntp249
Rp250
(dp251
g14
g15
sg16
(lp252
F2.3637429999999999
asg18
(lp253
(lp254
F1.0
aasg21
g248
sbag0
(g10
g2
Ntp255
Rp256
(dp257
g14
g15
sg16
(lp258
F1.074233
asg18
(lp259
(lp260
F1.0
aasg21
g248
sbag0
(g10
g2
Ntp261
Rp262
(dp263
g14
g15
sg16
(lp264
F0.79257820000000001
asg18
(lp265
(lp266
F1.0
aasg21
g248
sbag0
(g10
g2
Ntp267
Rp268
(dp269
g14
g44
sg16
(lp270
F12.01967
asg18
(lp271
(lp272
F1.0
aasg21
g248
sbag0
(g10
g2
Ntp273
Rp274
(dp275
g14
g44
sg16
(lp276
F4.3287310000000003
asg18
(lp277
(lp278
F1.0
aasg21
g248
sbag0
(g10
g2
Ntp279
Rp280
(dp281
g14
g44
sg16
(lp282
F1.6621159999999999
asg18
(lp283
(lp284
F1.0
aasg21
g248
sbag0
(g10
g2
Ntp285
Rp286
(dp287
g14
g44
sg16
(lp288
F0.62614700000000001
asg18
(lp289
(lp290
F1.0
aasg21
g248
sbag0
(g10
g2
Ntp291
Rp292
(dp293
g14
g69
sg16
(lp294
F49.108919999999998
asg18
(lp295
(lp296
F1.0
aasg21
g248
sbag0
(g10
g2
Ntp297
Rp298
(dp299
g14
g69
sg16
(lp300
F6.1698000000000004
asg18
(lp301
(lp302
F1.0
aasg21
g248
sbag0
(g10
g2
Ntp303
Rp304
(dp305
g14
g69
sg16
(lp306
F2.153095
asg18
(lp307
(lp308
F1.0
aasg21
g248
sbag0
(g10
g2
Ntp309
Rp310
(dp311
g14
g69
sg16
(lp312
F0.63747319999999996
asg18
(lp313
(lp314
F1.0
aasg21
g248
sbag0
(g10
g2
Ntp315
Rp316
(dp317
g14
g94
sg16
(lp318
F12.16193
asg18
(lp319
(lp320
F1.0
aasg21
g248
sbag0
(g10
g2
Ntp321
Rp322
(dp323
g14
g94
sg16
(lp324
F2.630493
asg18
(lp325
(lp326
F1.0
aasg21
g248
sbag0
(g10
g2
Ntp327
Rp328
(dp329
g14
g94
sg16
(lp330
F0.9778966
asg18
(lp331
(lp332
F1.0
aasg21
g248
sbag0
(g10
g2
Ntp333
Rp334
(dp335
g14
g113
sg16
(lp336
F4.4554499999999999
asg18
(lp337
(lp338
F1.0
aasg21
g248
sbag0
(g10
g2
Ntp339
Rp340
(dp341
g14
g113
sg16
(lp342
F1.4145239999999999
asg18
(lp343
(lp344
F1.0
aasg21
g248
sbag0
(g10
g2
Ntp345
Rp346
(dp347
g14
g126
sg16
(lp348
F2.8076759999999998
asg18
(lp349
(lp350
F1.0
aasg21
g248
sbasg126
(lp351
g0
(g10
g2
Ntp352
Rp353
(dp354
g14
g15
sg16
(lp355
F4.5036230000000002
asg18
(lp356
(lp357
F1.0
aasg21
V H
p358
sbag0
(g10
g2
Ntp359
Rp360
(dp361
g14
g15
sg16
(lp362
F0.70953829999999996
asg18
(lp363
(lp364
F1.0
aasg21
g358
sbag0
(g10
g2
Ntp365
Rp366
(dp367
g14
g15
sg16
(lp368
F0.2728158
asg18
(lp369
(lp370
F1.0
aasg21
g358
sbag0
(g10
g2
Ntp371
Rp372
(dp373
g14
g44
sg16
(lp374
F5.7379170000000004
asg18
(lp375
(lp376
F1.0
aasg21
g358
sbag0
(g10
g2
Ntp377
Rp378
(dp379
g14
g44
sg16
(lp380
F1.867394
asg18
(lp381
(lp382
F1.0
aasg21
g358
sbag0
(g10
g2
Ntp383
Rp384
(dp385
g14
g44
sg16
(lp386
F0.70574020000000004
asg18
(lp387
(lp388
F1.0
aasg21
g358
sbag0
(g10
g2
Ntp389
Rp390
(dp391
g14
g69
sg16
(lp392
F5.1560940000000004
asg18
(lp393
(lp394
F1.0
aasg21
g358
sbag0
(g10
g2
Ntp395
Rp396
(dp397
g14
g69
sg16
(lp398
F1.672628
asg18
(lp399
(lp400
F1.0
aasg21
g358
sbag0
(g10
g2
Ntp401
Rp402
(dp403
g14
g69
sg16
(lp404
F0.52783820000000004
asg18
(lp405
(lp406
F1.0
aasg21
g358
sbag0
(g10
g2
Ntp407
Rp408
(dp409
g14
g94
sg16
(lp410
F2.07762
asg18
(lp411
(lp412
F1.0
aasg21
g358
sbag0
(g10
g2
Ntp413
Rp414
(dp415
g14
g94
sg16
(lp416
F1.0394239999999999
asg18
(lp417
(lp418
F1.0
aasg21
g358
sbag0
(g10
g2
Ntp419
Rp420
(dp421
g14
g113
sg16
(lp422
F1.2607870000000001
asg18
(lp423
(lp424
F1.0
aasg21
g358
sbasVCL
p425
(lp426
g0
(g10
g2
Ntp427
Rp428
(dp429
g14
g15
sg16
(lp430
F3.6457060000000001
asg18
(lp431
(lp432
F1.0
aasg21
VCL
p433
sbag0
(g10
g2
Ntp434
Rp435
(dp436
g14
g15
sg16
(lp437
F0.98980380000000001
asg18
(lp438
(lp439
F1.0
aasg21
VCL
p440
sbag0
(g10
g2
Ntp441
Rp442
(dp443
g14
g15
sg16
(lp444
F0.43894430000000001
asg18
(lp445
(lp446
F1.0
aasg21
VCL
p447
sbag0
(g10
g2
Ntp448
Rp449
(dp450
g14
g15
sg16
(lp451
F0.1894226
asg18
(lp452
(lp453
F1.0
aasg21
VCL
p454
sbag0
(g10
g2
Ntp455
Rp456
(dp457
g14
g44
sg16
(lp458
F20.80979
asg18
(lp459
(lp460
F1.0
aasg21
VCL
p461
sbag0
(g10
g2
Ntp462
Rp463
(dp464
g14
g44
sg16
(lp465
F1.9213789999999999
asg18
(lp466
(lp467
F1.0
aasg21
VCL
p468
sbag0
(g10
g2
Ntp469
Rp470
(dp471
g14
g44
sg16
(lp472
F0.84943259999999998
asg18
(lp473
(lp474
F1.0
aasg21
VCL
p475
sbag0
(g10
g2
Ntp476
Rp477
(dp478
g14
g44
sg16
(lp479
F0.354684
asg18
(lp480
(lp481
F1.0
aasg21
VCL
p482
sbag0
(g10
g2
Ntp483
Rp484
(dp485
g14
g69
sg16
(lp486
F66.017420000000001
asg18
(lp487
(lp488
F1.0
aasg21
VCL
p489
sbag0
(g10
g2
Ntp490
Rp491
(dp492
g14
g69
sg16
(lp493
F6.4342110000000003
asg18
(lp494
(lp495
F1.0
aasg21
VCL
p496
sbag0
(g10
g2
Ntp497
Rp498
(dp499
g14
g69
sg16
(lp500
F2.4000629999999998
asg18
(lp501
(lp502
F1.0
aasg21
VCL
p503
sbag0
(g10
g2
Ntp504
Rp505
(dp506
g14
g69
sg16
(lp507
F0.88955139999999999
asg18
(lp508
(lp509
F1.0
aasg21
VCL
p510
sbag0
(g10
g2
Ntp511
Rp512
(dp513
g14
g94
sg16
(lp514
F13.95965
asg18
(lp515
(lp516
F1.0
aasg21
VCL
p517
sbag0
(g10
g2
Ntp518
Rp519
(dp520
g14
g94
sg16
(lp521
F1.621121
asg18
(lp522
(lp523
F1.0
aasg21
VCL
p524
sbag0
(g10
g2
Ntp525
Rp526
(dp527
g14
g94
sg16
(lp528
F0.47551979999999999
asg18
(lp529
(lp530
F1.0
aasg21
VCL
p531
sbag0
(g10
g2
Ntp532
Rp533
(dp534
g14
g113
sg16
(lp535
F1.3151679999999999
asg18
(lp536
(lp537
F1.0
aasg21
VCL
p538
sbag0
(g10
g2
Ntp539
Rp540
(dp541
g14
g113
sg16
(lp542
F0.59200339999999996
asg18
(lp543
(lp544
F1.0
aasg21
VCL
p545
sbag0
(g10
g2
Ntp546
Rp547
(dp548
g14
g126
sg16
(lp549
F1.082843
asg18
(lp550
(lp551
F1.0
aasg21
VCL
p552
sbasVAL
p553
(lp554
g0
(g10
g2
Ntp555
Rp556
(dp557
g14
g15
sg16
(lp558
F1.5831249999999999
asg18
(lp559
(lp560
F1.0
aasg21
VAL
p561
sbag0
(g10
g2
Ntp562
Rp563
(dp564
g14
g15
sg16
(lp565
F0.3647146
asg18
(lp566
(lp567
F1.0
aasg21
VAL
p568
sbag0
(g10
g2
Ntp569
Rp570
(dp571
g14
g15
sg16
(lp572
F0.16406390000000001
asg18
(lp573
(lp574
F1.0
aasg21
VAL
p575
sbag0
(g10
g2
Ntp576
Rp577
(dp578
g14
g15
sg16
(lp579
F0.073176950000000004
asg18
(lp580
(lp581
F1.0
aasg21
VAL
p582
sbag0
(g10
g2
Ntp583
Rp584
(dp585
g14
g44
sg16
(lp586
F3.7438099999999999
asg18
(lp587
(lp588
F1.0
aasg21
VAL
p589
sbag0
(g10
g2
Ntp590
Rp591
(dp592
g14
g44
sg16
(lp593
F1.097882
asg18
(lp594
(lp595
F1.0
aasg21
VAL
p596
sbag0
(g10
g2
Ntp597
Rp598
(dp599
g14
g44
sg16
(lp600
F0.38772069999999997
asg18
(lp601
(lp602
F1.0
aasg21
VAL
p603
sbag0
(g10
g2
Ntp604
Rp605
(dp606
g14
g44
sg16
(lp607
F0.14625750000000001
asg18
(lp608
(lp609
F1.0
aasg21
VAL
p610
sbag0
(g10
g2
Ntp611
Rp612
(dp613
g14
g69
sg16
(lp614
F7.8212630000000001
asg18
(lp615
(lp616
F1.0
aasg21
VAL
p617
sbag0
(g10
g2
Ntp618
Rp619
(dp620
g14
g69
sg16
(lp621
F2.2148500000000002
asg18
(lp622
(lp623
F1.0
aasg21
VAL
p624
sbag0
(g10
g2
Ntp625
Rp626
(dp627
g14
g69
sg16
(lp628
F0.91618889999999997
asg18
(lp629
(lp630
F1.0
aasg21
VAL
p631
sbag0
(g10
g2
Ntp632
Rp633
(dp634
g14
g69
sg16
(lp635
F0.40064050000000001
asg18
(lp636
(lp637
F1.0
aasg21
VAL
p638
sbag0
(g10
g2
Ntp639
Rp640
(dp641
g14
g94
sg16
(lp642
F1.832819
asg18
(lp643
(lp644
F1.0
aasg21
VAL
p645
sbag0
(g10
g2
Ntp646
Rp647
(dp648
g14
g94
sg16
(lp649
F0.43174230000000002
asg18
(lp650
(lp651
F1.0
aasg21
VAL
p652
sbag0
(g10
g2
Ntp653
Rp654
(dp655
g14
g94
sg16
(lp656
F0.1860858
asg18
(lp657
(lp658
F1.0
aasg21
VAL
p659
sbag0
(g10
g2
Ntp660
Rp661
(dp662
g14
g113
sg16
(lp663
F0.56362650000000003
asg18
(lp664
(lp665
F1.0
aasg21
VAL
p666
sbag0
(g10
g2
Ntp667
Rp668
(dp669
g14
g113
sg16
(lp670
F0.25140800000000002
asg18
(lp671
(lp672
F1.0
aasg21
VAL
p673
sbag0
(g10
g2
Ntp674
Rp675
(dp676
g14
g126
sg16
(lp677
F0.42594140000000003
asg18
(lp678
(lp679
F1.0
aasg21
VAL
p680
sbasVO
p681
(lp682
g0
(g10
g2
Ntp683
Rp684
(dp685
g14
g15
sg16
(lp686
F4.1702849999999998
asg18
(lp687
(lp688
F1.0
aasg21
V O
p689
sbag0
(g10
g2
Ntp690
Rp691
(dp692
g14
g15
sg16
(lp693
F1.8167549999999999
asg18
(lp694
(lp695
F1.0
aasg21
g689
sbag0
(g10
g2
Ntp696
Rp697
(dp698
g14
g15
sg16
(lp699
F0.69105000000000005
asg18
(lp700
(lp701
F1.0
aasg21
g689
sbag0
(g10
g2
Ntp702
Rp703
(dp704
g14
g15
sg16
(lp705
F0.27897329999999998
asg18
(lp706
(lp707
F1.0
aasg21
g689
sbag0
(g10
g2
Ntp708
Rp709
(dp710
g14
g44
sg16
(lp711
F8.0171349999999997
asg18
(lp712
(lp713
F1.0
aasg21
g689
sbag0
(g10
g2
Ntp714
Rp715
(dp716
g14
g44
sg16
(lp717
F3.5322650000000002
asg18
(lp718
(lp719
F1.0
aasg21
g689
sbag0
(g10
g2
Ntp720
Rp721
(dp722
g14
g44
sg16
(lp723
F1.360627
asg18
(lp724
(lp725
F1.0
aasg21
g689
sbag0
(g10
g2
Ntp726
Rp727
(dp728
g14
g44
sg16
(lp729
F0.50500900000000004
asg18
(lp730
(lp731
F1.0
aasg21
g689
sbag0
(g10
g2
Ntp732
Rp733
(dp734
g14
g69
sg16
(lp735
F37.762619999999998
asg18
(lp736
(lp737
F1.0
aasg21
g689
sbag0
(g10
g2
Ntp738
Rp739
(dp740
g14
g69
sg16
(lp741
F4.7962490000000004
asg18
(lp742
(lp743
F1.0
aasg21
g689
sbag0
(g10
g2
Ntp744
Rp745
(dp746
g14
g69
sg16
(lp747
F1.568106
asg18
(lp748
(lp749
F1.0
aasg21
g689
sbag0
(g10
g2
Ntp750
Rp751
(dp752
g14
g69
sg16
(lp753
F0.57129319999999995
asg18
(lp754
(lp755
F1.0
aasg21
g689
sbag0
(g10
g2
Ntp756
Rp757
(dp758
g14
g94
sg16
(lp759
F9.1702390000000005
asg18
(lp760
(lp761
F1.0
aasg21
g689
sbag0
(g10
g2
Ntp762
Rp763
(dp764
g14
g94
sg16
(lp765
F1.927197
asg18
(lp766
(lp767
F1.0
aasg21
g689
sbag0
(g10
g2
Ntp768
Rp769
(dp770
g14
g94
sg16
(lp771
F0.79893800000000004
asg18
(lp772
(lp773
F1.0
aasg21
g689
sbag0
(g10
g2
Ntp774
Rp775
(dp776
g14
g113
sg16
(lp777
F3.4045329999999998
asg18
(lp778
(lp779
F1.0
aasg21
g689
sbag0
(g10
g2
Ntp780
Rp781
(dp782
g14
g113
sg16
(lp783
F1.0657570000000001
asg18
(lp784
(lp785
F1.0
aasg21
g689
sbag0
(g10
g2
Ntp786
Rp787
(dp788
g14
g126
sg16
(lp789
F2.1440060000000001
asg18
(lp790
(lp791
F1.0
aasg21
g689
sbasVNE
p792
(lp793
g0
(g10
g2
Ntp794
Rp795
(dp796
g14
g15
sg16
(lp797
F7.3610749999999996
asg18
(lp798
(lp799
F1.0
aasg21
VNE
p800
sbag0
(g10
g2
Ntp801
Rp802
(dp803
g14
g15
sg16
(lp804
F2.7051910000000001
asg18
(lp805
(lp806
F1.0
aasg21
VNE
p807
sbag0
(g10
g2
Ntp808
Rp809
(dp810
g14
g15
sg16
(lp811
F1.186245
asg18
(lp812
(lp813
F1.0
aasg21
VNE
p814
sbag0
(g10
g2
Ntp815
Rp816
(dp817
g14
g15
sg16
(lp818
F0.430454
asg18
(lp819
(lp820
F1.0
aasg21
VNE
p821
sbag0
(g10
g2
Ntp822
Rp823
(dp824
g14
g44
sg16
(lp825
F15.918799999999999
asg18
(lp826
(lp827
F1.0
aasg21
VNE
p828
sbag0
(g10
g2
Ntp829
Rp830
(dp831
g14
g44
sg16
(lp832
F5.4169099999999997
asg18
(lp833
(lp834
F1.0
aasg21
VNE
p835
sbag0
(g10
g2
Ntp836
Rp837
(dp838
g14
g44
sg16
(lp839
F1.9905299999999999
asg18
(lp840
(lp841
F1.0
aasg21
VNE
p842
sbag0
(g10
g2
Ntp843
Rp844
(dp845
g14
g44
sg16
(lp846
F0.78488119999999995
asg18
(lp847
(lp848
F1.0
aasg21
VNE
p849
sbag0
(g10
g2
Ntp850
Rp851
(dp852
g14
g69
sg16
(lp853
F60.031210000000002
asg18
(lp854
(lp855
F1.0
aasg21
VNE
p856
sbag0
(g10
g2
Ntp857
Rp858
(dp859
g14
g69
sg16
(lp860
F7.963355
asg18
(lp861
(lp862
F1.0
aasg21
VNE
p863
sbag0
(g10
g2
Ntp864
Rp865
(dp866
g14
g69
sg16
(lp867
F2.6879219999999999
asg18
(lp868
(lp869
F1.0
aasg21
VNE
p870
sbag0
(g10
g2
Ntp871
Rp872
(dp873
g14
g69
sg16
(lp874
F0.82586970000000004
asg18
(lp875
(lp876
F1.0
aasg21
VNE
p877
sbag0
(g10
g2
Ntp878
Rp879
(dp880
g14
g94
sg16
(lp881
F20.70092
asg18
(lp882
(lp883
F1.0
aasg21
VNE
p884
sbag0
(g10
g2
Ntp885
Rp886
(dp887
g14
g94
sg16
(lp888
F4.1220730000000003
asg18
(lp889
(lp890
F1.0
aasg21
VNE
p891
sbag0
(g10
g2
Ntp892
Rp893
(dp894
g14
g94
sg16
(lp895
F1.522492
asg18
(lp896
(lp897
F1.0
aasg21
VNE
p898
sbag0
(g10
g2
Ntp899
Rp900
(dp901
g14
g113
sg16
(lp902
F10.759449999999999
asg18
(lp903
(lp904
F1.0
aasg21
VNE
p905
sbag0
(g10
g2
Ntp906
Rp907
(dp908
g14
g113
sg16
(lp909
F2.1651370000000001
asg18
(lp910
(lp911
F1.0
aasg21
VNE
p912
sbag0
(g10
g2
Ntp913
Rp914
(dp915
g14
g126
sg16
(lp916
F3.4504929999999998
asg18
(lp917
(lp918
F1.0
aasg21
VNE
p919
sbasg44
(lp920
g0
(g10
g2
Ntp921
Rp922
(dp923
g14
g15
sg16
(lp924
F2.6534789999999999
asg18
(lp925
(lp926
F1.0
aasg21
V P
p927
sbag0
(g10
g2
Ntp928
Rp929
(dp930
g14
g15
sg16
(lp931
F0.72659890000000005
asg18
(lp932
(lp933
F1.0
aasg21
g927
sbag0
(g10
g2
Ntp934
Rp935
(dp936
g14
g15
sg16
(lp937
F0.29121029999999998
asg18
(lp938
(lp939
F1.0
aasg21
g927
sbag0
(g10
g2
Ntp940
Rp941
(dp942
g14
g15
sg16
(lp943
F0.12656700000000001
asg18
(lp944
(lp945
F1.0
aasg21
g927
sbag0
(g10
g2
Ntp946
Rp947
(dp948
g14
g44
sg16
(lp949
F7.9649919999999996
asg18
(lp950
(lp951
F1.0
aasg21
g927
sbag0
(g10
g2
Ntp952
Rp953
(dp954
g14
g44
sg16
(lp955
F1.539409
asg18
(lp956
(lp957
F1.0
aasg21
g927
sbag0
(g10
g2
Ntp958
Rp959
(dp960
g14
g44
sg16
(lp961
F0.64567189999999997
asg18
(lp962
(lp963
F1.0
aasg21
g927
sbag0
(g10
g2
Ntp964
Rp965
(dp966
g14
g44
sg16
(lp967
F0.26485890000000001
asg18
(lp968
(lp969
F1.0
aasg21
g927
sbag0
(g10
g2
Ntp970
Rp971
(dp972
g14
g69
sg16
(lp973
F37.5488
asg18
(lp974
(lp975
F1.0
aasg21
g927
sbag0
(g10
g2
Ntp976
Rp977
(dp978
g14
g69
sg16
(lp979
F4.1936140000000002
asg18
(lp980
(lp981
F1.0
aasg21
g927
sbag0
(g10
g2
Ntp982
Rp983
(dp984
g14
g69
sg16
(lp985
F1.682226
asg18
(lp986
(lp987
F1.0
aasg21
g927
sbag0
(g10
g2
Ntp988
Rp989
(dp990
g14
g69
sg16
(lp991
F0.62457890000000005
asg18
(lp992
(lp993
F1.0
aasg21
g927
sbag0
(g10
g2
Ntp994
Rp995
(dp996
g14
g94
sg16
(lp997
F8.4731509999999997
asg18
(lp998
(lp999
F1.0
aasg21
g927
sbag0
(g10
g2
Ntp1000
Rp1001
(dp1002
g14
g94
sg16
(lp1003
F0.99633559999999999
asg18
(lp1004
(lp1005
F1.0
aasg21
g927
sbag0
(g10
g2
Ntp1006
Rp1007
(dp1008
g14
g94
sg16
(lp1009
F0.30542849999999999
asg18
(lp1010
(lp1011
F1.0
aasg21
g927
sbag0
(g10
g2
Ntp1012
Rp1013
(dp1014
g14
g113
sg16
(lp1015
F0.95932519999999999
asg18
(lp1016
(lp1017
F1.0
aasg21
g927
sbag0
(g10
g2
Ntp1018
Rp1019
(dp1020
g14
g113
sg16
(lp1021
F0.42896630000000002
asg18
(lp1022
(lp1023
F1.0
aasg21
g927
sbag0
(g10
g2
Ntp1024
Rp1025
(dp1026
g14
g126
sg16
(lp1027
F0.74611090000000002
asg18
(lp1028
(lp1029
F1.0
aasg21
g927
sbasg15
(lp1030
g0
(g10
g2
Ntp1031
Rp1032
(dp1033
g14
g15
sg16
(lp1034
F3.0754480000000002
asg18
(lp1035
(lp1036
F1.0
aasg21
V S
p1037
sbag0
(g10
g2
Ntp1038
Rp1039
(dp1040
g14
g15
sg16
(lp1041
F0.81605649999999996
asg18
(lp1042
(lp1043
F1.0
aasg21
g1037
sbag0
(g10
g2
Ntp1044
Rp1045
(dp1046
g14
g15
sg16
(lp1047
F0.36265310000000001
asg18
(lp1048
(lp1049
F1.0
aasg21
g1037
sbag0
(g10
g2
Ntp1050
Rp1051
(dp1052
g14
g15
sg16
(lp1053
F0.15516959999999999
asg18
(lp1054
(lp1055
F1.0
aasg21
g1037
sbag0
(g10
g2
Ntp1056
Rp1057
(dp1058
g14
g44
sg16
(lp1059
F21.4375
asg18
(lp1060
(lp1061
F1.0
aasg21
g1037
sbag0
(g10
g2
Ntp1062
Rp1063
(dp1064
g14
g44
sg16
(lp1065
F1.6650199999999999
asg18
(lp1066
(lp1067
F1.0
aasg21
g1037
sbag0
(g10
g2
Ntp1068
Rp1069
(dp1070
g14
g44
sg16
(lp1071
F0.73091329999999999
asg18
(lp1072
(lp1073
F1.0
aasg21
g1037
sbag0
(g10
g2
Ntp1074
Rp1075
(dp1076
g14
g44
sg16
(lp1077
F0.3119594
asg18
(lp1078
(lp1079
F1.0
aasg21
g1037
sbag0
(g10
g2
Ntp1080
Rp1081
(dp1082
g14
g69
sg16
(lp1083
F46.873890000000003
asg18
(lp1084
(lp1085
F1.0
aasg21
g1037
sbag0
(g10
g2
Ntp1086
Rp1087
(dp1088
g14
g69
sg16
(lp1089
F7.2576489999999998
asg18
(lp1090
(lp1091
F1.0
aasg21
g1037
sbag0
(g10
g2
Ntp1092
Rp1093
(dp1094
g14
g69
sg16
(lp1095
F2.0552009999999998
asg18
(lp1096
(lp1097
F1.0
aasg21
g1037
sbag0
(g10
g2
Ntp1098
Rp1099
(dp1100
g14
g69
sg16
(lp1101
F0.7638431
asg18
(lp1102
(lp1103
F1.0
aasg21
g1037
sbag0
(g10
g2
Ntp1104
Rp1105
(dp1106
g14
g94
sg16
(lp1107
F12.758940000000001
asg18
(lp1108
(lp1109
F1.0
aasg21
g1037
sbag0
(g10
g2
Ntp1110
Rp1111
(dp1112
g14
g94
sg16
(lp1113
F1.395006
asg18
(lp1114
(lp1115
F1.0
aasg21
g1037
sbag0
(g10
g2
Ntp1116
Rp1117
(dp1118
g14
g94
sg16
(lp1119
F0.41004010000000002
asg18
(lp1120
(lp1121
F1.0
aasg21
g1037
sbag0
(g10
g2
Ntp1122
Rp1123
(dp1124
g14
g113
sg16
(lp1125
F1.1580280000000001
asg18
(lp1126
(lp1127
F1.0
aasg21
g1037
sbag0
(g10
g2
Ntp1128
Rp1129
(dp1130
g14
g113
sg16
(lp1131
F0.51903080000000001
asg18
(lp1132
(lp1133
F1.0
aasg21
g1037
sbag0
(g10
g2
Ntp1134
Rp1135
(dp1136
g14
g126
sg16
(lp1137
F0.90441629999999995
asg18
(lp1138
(lp1139
F1.0
aasg21
g1037
sbasVAR
p1140
(lp1141
g0
(g10
g2
Ntp1142
Rp1143
(dp1144
g14
g15
sg16
(lp1145
F4.2449089999999998
asg18
(lp1146
(lp1147
F1.0
aasg21
VAR
p1148
sbag0
(g10
g2
Ntp1149
Rp1150
(dp1151
g14
g15
sg16
(lp1152
F1.164061
asg18
(lp1153
(lp1154
F1.0
aasg21
VAR
p1155
sbag0
(g10
g2
Ntp1156
Rp1157
(dp1158
g14
g15
sg16
(lp1159
F0.52029579999999997
asg18
(lp1160
(lp1161
F1.0
aasg21
VAR
p1162
sbag0
(g10
g2
Ntp1163
Rp1164
(dp1165
g14
g15
sg16
(lp1166
F0.22344520000000001
asg18
(lp1167
(lp1168
F1.0
aasg21
VAR
p1169
sbag0
(g10
g2
Ntp1170
Rp1171
(dp1172
g14
g44
sg16
(lp1173
F20.251049999999999
asg18
(lp1174
(lp1175
F1.0
aasg21
VAR
p1176
sbag0
(g10
g2
Ntp1177
Rp1178
(dp1179
g14
g44
sg16
(lp1180
F2.2142550000000001
asg18
(lp1181
(lp1182
F1.0
aasg21
VAR
p1183
sbag0
(g10
g2
Ntp1184
Rp1185
(dp1186
g14
g44
sg16
(lp1187
F0.97917980000000004
asg18
(lp1188
(lp1189
F1.0
aasg21
VAR
p1190
sbag0
(g10
g2
Ntp1191
Rp1192
(dp1193
g14
g44
sg16
(lp1194
F0.43711549999999999
asg18
(lp1195
(lp1196
F1.0
aasg21
VAR
p1197
sbag0
(g10
g2
Ntp1198
Rp1199
(dp1200
g14
g69
sg16
(lp1201
F88.020820000000001
asg18
(lp1202
(lp1203
F1.0
aasg21
VAR
p1204
sbag0
(g10
g2
Ntp1205
Rp1206
(dp1207
g14
g69
sg16
(lp1208
F8.0383820000000004
asg18
(lp1209
(lp1210
F1.0
aasg21
VAR
p1211
sbag0
(g10
g2
Ntp1212
Rp1213
(dp1214
g14
g69
sg16
(lp1215
F3.156326
asg18
(lp1216
(lp1217
F1.0
aasg21
VAR
p1218
sbag0
(g10
g2
Ntp1219
Rp1220
(dp1221
g14
g69
sg16
(lp1222
F1.0702529999999999
asg18
(lp1223
(lp1224
F1.0
aasg21
VAR
p1225
sbag0
(g10
g2
Ntp1226
Rp1227
(dp1228
g14
g94
sg16
(lp1229
F15.59534
asg18
(lp1230
(lp1231
F1.0
aasg21
VAR
p1232
sbag0
(g10
g2
Ntp1233
Rp1234
(dp1235
g14
g94
sg16
(lp1236
F2.0335939999999999
asg18
(lp1237
(lp1238
F1.0
aasg21
VAR
p1239
sbag0
(g10
g2
Ntp1240
Rp1241
(dp1242
g14
g94
sg16
(lp1243
F0.58257559999999997
asg18
(lp1244
(lp1245
F1.0
aasg21
VAR
p1246
sbag0
(g10
g2
Ntp1247
Rp1248
(dp1249
g14
g113
sg16
(lp1250
F1.9845950000000001
asg18
(lp1251
(lp1252
F1.0
aasg21
VAR
p1253
sbag0
(g10
g2
Ntp1254
Rp1255
(dp1256
g14
g113
sg16
(lp1257
F0.75344480000000003
asg18
(lp1258
(lp1259
F1.0
aasg21
VAR
p1260
sbag0
(g10
g2
Ntp1261
Rp1262
(dp1263
g14
g126
sg16
(lp1264
F1.2565379999999999
asg18
(lp1265
(lp1266
F1.0
aasg21
VAR
p1267
sbasVN
p1268
(lp1269
g0
(g10
g2
Ntp1270
Rp1271
(dp1272
g14
g15
sg16
(lp1273
F3.3139219999999998
asg18
(lp1274
(lp1275
F1.0
aasg21
V N
p1276
sbag0
(g10
g2
Ntp1277
Rp1278
(dp1279
g14
g15
sg16
(lp1280
F1.4661219999999999
asg18
(lp1281
(lp1282
F1.0
aasg21
g1276
sbag0
(g10
g2
Ntp1283
Rp1284
(dp1285
g14
g15
sg16
(lp1286
F0.52979370000000003
asg18
(lp1287
(lp1288
F1.0
aasg21
g1276
sbag0
(g10
g2
Ntp1289
Rp1290
(dp1291
g14
g15
sg16
(lp1292
F0.211724
asg18
(lp1293
(lp1294
F1.0
aasg21
g1276
sbag0
(g10
g2
Ntp1295
Rp1296
(dp1297
g14
g44
sg16
(lp1298
F5.9904359999999999
asg18
(lp1299
(lp1300
F1.0
aasg21
g1276
sbag0
(g10
g2
Ntp1301
Rp1302
(dp1303
g14
g44
sg16
(lp1304
F2.5058919999999998
asg18
(lp1305
(lp1306
F1.0
aasg21
g1276
sbag0
(g10
g2
Ntp1307
Rp1308
(dp1309
g14
g44
sg16
(lp1310
F1.002772
asg18
(lp1311
(lp1312
F1.0
aasg21
g1276
sbag0
(g10
g2
Ntp1313
Rp1314
(dp1315
g14
g44
sg16
(lp1316
F0.40355829999999998
asg18
(lp1317
(lp1318
F1.0
aasg21
g1276
sbag0
(g10
g2
Ntp1319
Rp1320
(dp1321
g14
g69
sg16
(lp1322
F19.037210000000002
asg18
(lp1323
(lp1324
F1.0
aasg21
g1276
sbag0
(g10
g2
Ntp1325
Rp1326
(dp1327
g14
g69
sg16
(lp1328
F3.307766
asg18
(lp1329
(lp1330
F1.0
aasg21
g1276
sbag0
(g10
g2
Ntp1331
Rp1332
(dp1333
g14
g69
sg16
(lp1334
F1.4401949999999999
asg18
(lp1335
(lp1336
F1.0
aasg21
g1276
sbag0
(g10
g2
Ntp1337
Rp1338
(dp1339
g14
g69
sg16
(lp1340
F0.44980409999999998
asg18
(lp1341
(lp1342
F1.0
aasg21
g1276
sbag0
(g10
g2
Ntp1343
Rp1344
(dp1345
g14
g94
sg16
(lp1346
F6.0179280000000004
asg18
(lp1347
(lp1348
F1.0
aasg21
g1276
sbag0
(g10
g2
Ntp1349
Rp1350
(dp1351
g14
g94
sg16
(lp1352
F1.4729140000000001
asg18
(lp1353
(lp1354
F1.0
aasg21
g1276
sbag0
(g10
g2
Ntp1355
Rp1356
(dp1357
g14
g94
sg16
(lp1358
F0.59584400000000004
asg18
(lp1359
(lp1360
F1.0
aasg21
g1276
sbag0
(g10
g2
Ntp1361
Rp1362
(dp1363
g14
g113
sg16
(lp1364
F2.9062130000000002
asg18
(lp1365
(lp1366
F1.0
aasg21
g1276
sbag0
(g10
g2
Ntp1367
Rp1368
(dp1369
g14
g113
sg16
(lp1370
F0.93422819999999995
asg18
(lp1371
(lp1372
F1.0
aasg21
g1276
sbag0
(g10
g2
Ntp1373
Rp1374
(dp1375
g14
g126
sg16
(lp1376
F1.6475850000000001
asg18
(lp1377
(lp1378
F1.0
aasg21
g1276
sbasVSI
p1379
(lp1380
g0
(g10
g2
Ntp1381
Rp1382
(dp1383
g14
g15
sg16
(lp1384
F2.137276
asg18
(lp1385
(lp1386
F1.0
aasg21
VSI
p1387
sbag0
(g10
g2
Ntp1388
Rp1389
(dp1390
g14
g15
sg16
(lp1391
F0.61185540000000005
asg18
(lp1392
(lp1393
F1.0
aasg21
VSI
p1394
sbag0
(g10
g2
Ntp1395
Rp1396
(dp1397
g14
g15
sg16
(lp1398
F0.22557569999999999
asg18
(lp1399
(lp1400
F1.0
aasg21
VSI
p1401
sbag0
(g10
g2
Ntp1402
Rp1403
(dp1404
g14
g15
sg16
(lp1405
F0.098124089999999997
asg18
(lp1406
(lp1407
F1.0
aasg21
VSI
p1408
sbag0
(g10
g2
Ntp1409
Rp1410
(dp1411
g14
g44
sg16
(lp1412
F6.1969089999999998
asg18
(lp1413
(lp1414
F1.0
aasg21
VSI
p1415
sbag0
(g10
g2
Ntp1416
Rp1417
(dp1418
g14
g44
sg16
(lp1419
F1.356198
asg18
(lp1420
(lp1421
F1.0
aasg21
VSI
p1422
sbag0
(g10
g2
Ntp1423
Rp1424
(dp1425
g14
g44
sg16
(lp1426
F0.53984810000000005
asg18
(lp1427
(lp1428
F1.0
aasg21
VSI
p1429
sbag0
(g10
g2
Ntp1430
Rp1431
(dp1432
g14
g44
sg16
(lp1433
F0.20697789999999999
asg18
(lp1434
(lp1435
F1.0
aasg21
VSI
p1436
sbag0
(g10
g2
Ntp1437
Rp1438
(dp1439
g14
g69
sg16
(lp1440
F12.859080000000001
asg18
(lp1441
(lp1442
F1.0
aasg21
VSI
p1443
sbag0
(g10
g2
Ntp1444
Rp1445
(dp1446
g14
g69
sg16
(lp1447
F3.194334
asg18
(lp1448
(lp1449
F1.0
aasg21
VSI
p1450
sbag0
(g10
g2
Ntp1451
Rp1452
(dp1453
g14
g69
sg16
(lp1454
F1.1895929999999999
asg18
(lp1455
(lp1456
F1.0
aasg21
VSI
p1457
sbag0
(g10
g2
Ntp1458
Rp1459
(dp1460
g14
g69
sg16
(lp1461
F0.465341
asg18
(lp1462
(lp1463
F1.0
aasg21
VSI
p1464
sbag0
(g10
g2
Ntp1465
Rp1466
(dp1467
g14
g94
sg16
(lp1468
F4.1687839999999996
asg18
(lp1469
(lp1470
F1.0
aasg21
VSI
p1471
sbag0
(g10
g2
Ntp1472
Rp1473
(dp1474
g14
g94
sg16
(lp1475
F0.78973839999999995
asg18
(lp1476
(lp1477
F1.0
aasg21
VSI
p1478
sbag0
(g10
g2
Ntp1479
Rp1480
(dp1481
g14
g94
sg16
(lp1482
F0.24594750000000001
asg18
(lp1483
(lp1484
F1.0
aasg21
VSI
p1485
sbag0
(g10
g2
Ntp1486
Rp1487
(dp1488
g14
g113
sg16
(lp1489
F0.81826699999999997
asg18
(lp1490
(lp1491
F1.0
aasg21
VSI
p1492
sbag0
(g10
g2
Ntp1493
Rp1494
(dp1495
g14
g113
sg16
(lp1496
F0.36526649999999999
asg18
(lp1497
(lp1498
F1.0
aasg21
VSI
p1499
sbag0
(g10
g2
Ntp1500
Rp1501
(dp1502
g14
g126
sg16
(lp1503
F0.57482359999999999
asg18
(lp1504
(lp1505
F1.0
aasg21
VSI
p1506
sbassb.