(ibasisset
BasisSet
p0
(dp1
S'basisDictionary'
p2
(dp3
S'H'
p4
(lp5
(ibasisset
Shell
p6
(dp7
S'angularMomentum'
p8
S'S'
p9
sS'exponents'
p10
(lp11
F33.869999999999997
aF5.0949999999999998
aF1.159
asS'coefficients'
p12
(lp13
(lp14
F0.0060679999999999996
aF0.045308000000000001
aF0.202822
aasS'atom'
p15
S' H'
p16
sba(ibasisset
Shell
p17
(dp18
g8
S'S'
p19
sg10
(lp20
F0.32579999999999998
asg12
(lp21
(lp22
F1.0
aasg15
S' H'
p23
sba(ibasisset
Shell
p24
(dp25
g8
S'S'
p26
sg10
(lp27
F0.1027
asg12
(lp28
(lp29
F1.0
aasg15
S' H'
p30
sba(ibasisset
Shell
p31
(dp32
g8
S'P'
p33
sg10
(lp34
F1.407
asg12
(lp35
(lp36
F1.0
aasg15
S' H'
p37
sba(ibasisset
Shell
p38
(dp39
g8
S'P'
p40
sg10
(lp41
F0.38800000000000001
asg12
(lp42
(lp43
F1.0
aasg15
S' H'
p44
sba(ibasisset
Shell
p45
(dp46
g8
S'D'
p47
sg10
(lp48
F1.0569999999999999
asg12
(lp49
(lp50
F1.0
aasg15
S' H'
p51
sbasS'C'
p52
(lp53
(ibasisset
Shell
p54
(dp55
g8
S'S'
p56
sg10
(lp57
F8236.0
aF1235.0
aF280.80000000000001
aF79.269999999999996
aF25.59
aF8.9969999999999999
aF3.319
aF0.36430000000000001
asg12
(lp58
(lp59
F0.000531
aF0.0041079999999999997
aF0.021087000000000002
aF0.081852999999999995
aF0.234817
aF0.43440099999999998
aF0.34612900000000002
aF-0.0089829999999999997
aa(lp60
F-0.000113
aF-0.00087799999999999998
aF-0.0045399999999999998
aF-0.018133
aF-0.055759999999999997
aF-0.12689500000000001
aF-0.170352
aF0.59868399999999999
aasg15
S' C'
p61
sba(ibasisset
Shell
p62
(dp63
g8
S'S'
p64
sg10
(lp65
F0.90590000000000004
asg12
(lp66
(lp67
F1.0
aasg15
S' C'
p68
sba(ibasisset
Shell
p69
(dp70
g8
S'S'
p71
sg10
(lp72
F0.1285
asg12
(lp73
(lp74
F1.0
aasg15
S' C'
p75
sba(ibasisset
Shell
p76
(dp77
g8
S'P'
p78
sg10
(lp79
F18.710000000000001
aF4.133
aF1.2
asg12
(lp80
(lp81
F0.014031
aF0.086865999999999999
aF0.29021599999999997
aasg15
S' C'
p82
sba(ibasisset
Shell
p83
(dp84
g8
S'P'
p85
sg10
(lp86
F0.38269999999999998
asg12
(lp87
(lp88
F1.0
aasg15
S' C'
p89
sba(ibasisset
Shell
p90
(dp91
g8
S'P'
p92
sg10
(lp93
F0.12089999999999999
asg12
(lp94
(lp95
F1.0
aasg15
S' C'
p96
sba(ibasisset
Shell
p97
(dp98
g8
S'D'
p99
sg10
(lp100
F1.097
asg12
(lp101
(lp102
F1.0
aasg15
S' C'
p103
sba(ibasisset
Shell
p104
(dp105
g8
S'D'
p106
sg10
(lp107
F0.318
asg12
(lp108
(lp109
F1.0
aasg15
S' C'
p110
sba(ibasisset
Shell
p111
(dp112
g8
S'F'
p113
sg10
(lp114
F0.76100000000000001
asg12
(lp115
(lp116
F1.0
aasg15
S' C'
p117
sbasS'S'
p118
(lp119
(ibasisset
Shell
p120
(dp121
g8
S'S'
p122
sg10
(lp123
F374100.0
aF56050.0
aF12760.0
aF3615.0
aF1183.0
aF428.80000000000001
aF167.80000000000001
aF69.469999999999999
aF29.84
aF12.720000000000001
aF5.2439999999999998
aF2.2189999999999999
aF0.34899999999999998
asg12
(lp124
(lp125
F5.4214e-05
aF0.00042085499999999998
aF0.0022069799999999999
aF0.0091925800000000005
aF0.032112300000000003
aF0.094668299999999997
aF0.22363
aF0.37439299999999998
aF0.32910800000000001
aF0.084703799999999996
aF0.00044085100000000002
aF0.0016482700000000001
aF0.00030130599999999999
aa(lp126
F-1.49837e-05
aF-0.000116198
aF-0.00061158299999999996
aF-0.0025536999999999999
aF-0.0090870800000000009
aF-0.0277045
aF-0.072001999999999997
aF-0.14643900000000001
aF-0.19514999999999999
aF0.00819193
aF0.51660099999999998
aF0.54217800000000005
aF-0.0091807199999999999
aa(lp127
F4.3506600000000003e-06
aF3.3714000000000003e-05
aF0.00017767400000000001
aF0.000741116
aF0.00264591
aF0.0080748699999999996
aF0.021227599999999999
aF0.043832299999999998
aF0.061271600000000002
aF-0.0036151
aF-0.20451
aF-0.38187100000000002
aF0.71414699999999998
aasg15
S' S'
p128
sba(ibasisset
Shell
p129
(dp130
g8
S'S'
p131
sg10
(lp132
F0.77669999999999995
asg12
(lp133
(lp134
F1.0
aasg15
S' S'
p135
sba(ibasisset
Shell
p136
(dp137
g8
S'S'
p138
sg10
(lp139
F0.13220000000000001
asg12
(lp140
(lp141
F1.0
aasg15
S' S'
p142
sba(ibasisset
Shell
p143
(dp144
g8
S'P'
p145
sg10
(lp146
F574.39999999999998
aF135.80000000000001
aF43.189999999999998
aF15.869999999999999
aF6.2080000000000002
aF2.4830000000000001
aF0.32290000000000002
asg12
(lp147
(lp148
F0.0024226400000000002
aF0.019279600000000001
aF0.088540099999999997
aF0.25465399999999999
aF0.43398399999999998
aF0.35495300000000002
aF-0.0050297700000000002
aa(lp149
F-0.00062010199999999998
aF-0.00493882
aF-0.023264699999999999
aF-0.068519499999999997
aF-0.12389600000000001
aF-0.096949900000000006
aF0.56939399999999996
aasg15
S' S'
p150
sba(ibasisset
Shell
p151
(dp152
g8
S'P'
p153
sg10
(lp154
F0.86880000000000002
asg12
(lp155
(lp156
F1.0
aasg15
S' S'
p157
sba(ibasisset
Shell
p158
(dp159
g8
S'P'
p160
sg10
(lp161
F0.10979999999999999
asg12
(lp162
(lp163
F1.0
aasg15
S' S'
p164
sba(ibasisset
Shell
p165
(dp166
g8
S'D'
p167
sg10
(lp168
F0.26900000000000002
asg12
(lp169
(lp170
F1.0
aasg15
S' S'
p171
sba(ibasisset
Shell
p172
(dp173
g8
S'D'
p174
sg10
(lp175
F0.81899999999999995
asg12
(lp176
(lp177
F1.0
aasg15
S' S'
p178
sba(ibasisset
Shell
p179
(dp180
g8
S'F'
p181
sg10
(lp182
F0.55700000000000005
asg12
(lp183
(lp184
F1.0
aasg15
S' S'
p185
sbasS'O'
p186
(lp187
(ibasisset
Shell
p188
(dp189
g8
S'S'
p190
sg10
(lp191
F15330.0
aF2299.0
aF522.39999999999998
aF147.30000000000001
aF47.549999999999997
aF16.760000000000002
aF6.2069999999999999
aF0.68820000000000003
asg12
(lp192
(lp193
F0.00050799999999999999
aF0.0039290000000000002
aF0.020243000000000001
aF0.079181000000000001
aF0.230687
aF0.433118
aF0.35026000000000002
aF-0.0081539999999999998
aa(lp194
F-0.000115
aF-0.00089499999999999996
aF-0.0046360000000000004
aF-0.018724000000000001
aF-0.058463000000000001
aF-0.136463
aF-0.17574000000000001
aF0.60341800000000001
aasg15
S' O'
p195
sba(ibasisset
Shell
p196
(dp197
g8
S'S'
p198
sg10
(lp199
F1.752
asg12
(lp200
(lp201
F1.0
aasg15
S' O'
p202
sba(ibasisset
Shell
p203
(dp204
g8
S'S'
p205
sg10
(lp206
F0.2384
asg12
(lp207
(lp208
F1.0
aasg15
S' O'
p209
sba(ibasisset
Shell
p210
(dp211
g8
S'P'
p212
sg10
(lp213
F34.460000000000001
aF7.7489999999999997
aF2.2799999999999998
asg12
(lp214
(lp215
F0.015928000000000001
aF0.099739999999999995
aF0.31049199999999999
aasg15
S' O'
p216
sba(ibasisset
Shell
p217
(dp218
g8
S'P'
p219
sg10
(lp220
F0.71560000000000001
asg12
(lp221
(lp222
F1.0
aasg15
S' O'
p223
sba(ibasisset
Shell
p224
(dp225
g8
S'P'
p226
sg10
(lp227
F0.214
asg12
(lp228
(lp229
F1.0
aasg15
S' O'
p230
sba(ibasisset
Shell
p231
(dp232
g8
S'D'
p233
sg10
(lp234
F2.3140000000000001
asg12
(lp235
(lp236
F1.0
aasg15
S' O'
p237
sba(ibasisset
Shell
p238
(dp239
g8
S'D'
p240
sg10
(lp241
F0.64500000000000002
asg12
(lp242
(lp243
F1.0
aasg15
S' O'
p244
sba(ibasisset
Shell
p245
(dp246
g8
S'F'
p247
sg10
(lp248
F1.4279999999999999
asg12
(lp249
(lp250
F1.0
aasg15
S' O'
p251
sbasS'N'
p252
(lp253
(ibasisset
Shell
p254
(dp255
g8
S'S'
p256
sg10
(lp257
F11420.0
aF1712.0
aF389.30000000000001
aF110.0
aF35.57
aF12.539999999999999
aF4.6440000000000001
aF0.51180000000000003
asg12
(lp258
(lp259
F0.00052300000000000003
aF0.004045
aF0.020774999999999998
aF0.080726999999999993
aF0.233074
aF0.43350100000000003
aF0.347472
aF-0.0085079999999999999
aa(lp260
F-0.000115
aF-0.00089499999999999996
aF-0.0046239999999999996
aF-0.018527999999999999
aF-0.057339000000000001
aF-0.132076
aF-0.17251
aF0.59994400000000003
aasg15
S' N'
p261
sba(ibasisset
Shell
p262
(dp263
g8
S'S'
p264
sg10
(lp265
F1.2929999999999999
asg12
(lp266
(lp267
F1.0
aasg15
S' N'
p268
sba(ibasisset
Shell
p269
(dp270
g8
S'S'
p271
sg10
(lp272
F0.1787
asg12
(lp273
(lp274
F1.0
aasg15
S' N'
p275
sba(ibasisset
Shell
p276
(dp277
g8
S'P'
p278
sg10
(lp279
F26.629999999999999
aF5.9480000000000004
aF1.742
asg12
(lp280
(lp281
F0.014670000000000001
aF0.091763999999999998
aF0.29868299999999998
aasg15
S' N'
p282
sba(ibasisset
Shell
p283
(dp284
g8
S'P'
p285
sg10
(lp286
F0.55500000000000005
asg12
(lp287
(lp288
F1.0
aasg15
S' N'
p289
sba(ibasisset
Shell
p290
(dp291
g8
S'P'
p292
sg10
(lp293
F0.17249999999999999
asg12
(lp294
(lp295
F1.0
aasg15
S' N'
p296
sba(ibasisset
Shell
p297
(dp298
g8
S'D'
p299
sg10
(lp300
F1.6539999999999999
asg12
(lp301
(lp302
F1.0
aasg15
S' N'
p303
sba(ibasisset
Shell
p304
(dp305
g8
S'D'
p306
sg10
(lp307
F0.46899999999999997
asg12
(lp308
(lp309
F1.0
aasg15
S' N'
p310
sba(ibasisset
Shell
p311
(dp312
g8
S'F'
p313
sg10
(lp314
F1.093
asg12
(lp315
(lp316
F1.0
aasg15
S' N'
p317
sbassb.