(ibasisset
BasisSet
p0
(dp1
S'basisDictionary'
p2
(dp3
S'LI'
p4
(iBasisSets
AtomBasis
p5
(dp6
S'basisDictionary'
p7
(dp8
S'P'
p9
(lp10
(iBasisSets
BasisFunction
p11
(dp12
S'coefficientList'
p13
(lp14
F1.0
asS'primitiveList'
p15
(lp16
(iBasisSets
PrimitiveFunction
p17
(dp18
S'exponent'
p19
F3.266
sS'angularMomentum'
p20
S'P'
p21
sbasg20
S'P'
p22
sba(iBasisSets
BasisFunction
p23
(dp24
g13
(lp25
F1.0
asg15
(lp26
(iBasisSets
PrimitiveFunction
p27
(dp28
g19
F0.65110000000000001
sg20
S'P'
p29
sbasg20
S'P'
p30
sba(iBasisSets
BasisFunction
p31
(dp32
g13
(lp33
F1.0
asg15
(lp34
(iBasisSets
PrimitiveFunction
p35
(dp36
g19
F0.1696
sg20
S'P'
p37
sbasg20
S'P'
p38
sba(iBasisSets
BasisFunction
p39
(dp40
g13
(lp41
F1.0
asg15
(lp42
(iBasisSets
PrimitiveFunction
p43
(dp44
g19
F0.055780000000000003
sg20
S'P'
p45
sbasg20
S'P'
p46
sba(iBasisSets
BasisFunction
p47
(dp48
g13
(lp49
F1.0
asg15
(lp50
(iBasisSets
PrimitiveFunction
p51
(dp52
g19
F0.020500000000000001
sg20
S'P'
p53
sbasg20
S'P'
p54
sba(iBasisSets
BasisFunction
p55
(dp56
g13
(lp57
F1.0
asg15
(lp58
(iBasisSets
PrimitiveFunction
p59
(dp60
g19
F7.3200000000000003
sg20
S'P'
p61
sbasg20
S'P'
p62
sba(iBasisSets
BasisFunction
p63
(dp64
g13
(lp65
F1.0
asg15
(lp66
(iBasisSets
PrimitiveFunction
p67
(dp68
g19
F1.875
sg20
S'P'
p69
sbasg20
S'P'
p70
sbasS'S'
p71
(lp72
(iBasisSets
BasisFunction
p73
(dp74
g13
(lp75
F1.0
asg15
(lp76
(iBasisSets
PrimitiveFunction
p77
(dp78
g19
F5988.0
sg20
S'S'
p79
sbasg20
S'S'
p80
sba(iBasisSets
BasisFunction
p81
(dp82
g13
(lp83
F1.0
asg15
(lp84
(iBasisSets
PrimitiveFunction
p85
(dp86
g19
F898.89999999999998
sg20
S'S'
p87
sbasg20
S'S'
p88
sba(iBasisSets
BasisFunction
p89
(dp90
g13
(lp91
F1.0
asg15
(lp92
(iBasisSets
PrimitiveFunction
p93
(dp94
g19
F205.90000000000001
sg20
S'S'
p95
sbasg20
S'S'
p96
sba(iBasisSets
BasisFunction
p97
(dp98
g13
(lp99
F1.0
asg15
(lp100
(iBasisSets
PrimitiveFunction
p101
(dp102
g19
F59.240000000000002
sg20
S'S'
p103
sbasg20
S'S'
p104
sba(iBasisSets
BasisFunction
p105
(dp106
g13
(lp107
F1.0
asg15
(lp108
(iBasisSets
PrimitiveFunction
p109
(dp110
g19
F19.870000000000001
sg20
S'S'
p111
sbasg20
S'S'
p112
sba(iBasisSets
BasisFunction
p113
(dp114
g13
(lp115
F1.0
asg15
(lp116
(iBasisSets
PrimitiveFunction
p117
(dp118
g19
F7.4059999999999997
sg20
S'S'
p119
sbasg20
S'S'
p120
sba(iBasisSets
BasisFunction
p121
(dp122
g13
(lp123
F1.0
asg15
(lp124
(iBasisSets
PrimitiveFunction
p125
(dp126
g19
F2.9300000000000002
sg20
S'S'
p127
sbasg20
S'S'
p128
sba(iBasisSets
BasisFunction
p129
(dp130
g13
(lp131
F1.0
asg15
(lp132
(iBasisSets
PrimitiveFunction
p133
(dp134
g19
F1.1890000000000001
sg20
S'S'
p135
sbasg20
S'S'
p136
sba(iBasisSets
BasisFunction
p137
(dp138
g13
(lp139
F1.0
asg15
(lp140
(iBasisSets
PrimitiveFunction
p141
(dp142
g19
F0.4798
sg20
S'S'
p143
sbasg20
S'S'
p144
sba(iBasisSets
BasisFunction
p145
(dp146
g13
(lp147
F1.0
asg15
(lp148
(iBasisSets
PrimitiveFunction
p149
(dp150
g19
F0.075090000000000004
sg20
S'S'
p151
sbasg20
S'S'
p152
sba(iBasisSets
BasisFunction
p153
(dp154
g13
(lp155
F1.0
asg15
(lp156
(iBasisSets
PrimitiveFunction
p157
(dp158
g19
F0.028320000000000001
sg20
S'S'
p159
sbasg20
S'S'
p160
sba(iBasisSets
BasisFunction
p161
(dp162
g13
(lp163
F1.0
asg15
(lp164
(iBasisSets
PrimitiveFunction
p165
(dp166
g19
F1.974
sg20
S'S'
p167
sbasg20
S'S'
p168
sba(iBasisSets
BasisFunction
p169
(dp170
g13
(lp171
F1.0
asg15
(lp172
(iBasisSets
PrimitiveFunction
p173
(dp174
g19
F0.68300000000000005
sg20
S'S'
p175
sbasg20
S'S'
p176
sbasS'D'
p177
(lp178
(iBasisSets
BasisFunction
p179
(dp180
g13
(lp181
F1.0
asg15
(lp182
(iBasisSets
PrimitiveFunction
p183
(dp184
g19
F0.18740000000000001
sg20
S'D'
p185
sbasg20
S'D'
p186
sba(iBasisSets
BasisFunction
p187
(dp188
g13
(lp189
F1.0
asg15
(lp190
(iBasisSets
PrimitiveFunction
p191
(dp192
g19
F0.080100000000000005
sg20
S'D'
p193
sbasg20
S'D'
p194
sba(iBasisSets
BasisFunction
p195
(dp196
g13
(lp197
F1.0
asg15
(lp198
(iBasisSets
PrimitiveFunction
p199
(dp200
g19
F4.9119999999999999
sg20
S'D'
p201
sbasg20
S'D'
p202
sbasS'F'
p203
(lp204
(iBasisSets
BasisFunction
p205
(dp206
g13
(lp207
F1.0
asg15
(lp208
(iBasisSets
PrimitiveFunction
p209
(dp210
g19
F0.18290000000000001
sg20
S'F'
p211
sbasg20
S'F'
p212
sbassbssb.