(ibasisset
BasisSet
p0
(dp1
S'basisDictionary'
p2
(dp3
S'H'
p4
(iBasisSets
AtomBasis
p5
(dp6
S'basisDictionary'
p7
(dp8
S'P'
p9
(lp10
(iBasisSets
BasisFunction
p11
(dp12
S'coefficientList'
p13
(lp14
F1.0
asS'primitiveList'
p15
(lp16
(iBasisSets
PrimitiveFunction
p17
(dp18
S'exponent'
p19
F0.75
sS'angularMomentum'
p20
S'P'
p21
sbasg20
S'P'
p22
sbasS'S'
p23
(lp24
(iBasisSets
BasisFunction
p25
(dp26
g13
(lp27
F0.032828000000000003
aF0.231208
aF0.81723800000000002
asg15
(lp28
(iBasisSets
PrimitiveFunction
p29
(dp30
g19
F19.240600000000001
sg20
S'S'
p31
sba(iBasisSets
PrimitiveFunction
p32
(dp33
g19
F2.8992
sg20
S'S'
p34
sba(iBasisSets
PrimitiveFunction
p35
(dp36
g19
F0.65339999999999998
sg20
S'S'
p37
sbasg20
S'S'
p38
sba(iBasisSets
BasisFunction
p39
(dp40
g13
(lp41
F1.0
asg15
(lp42
(iBasisSets
PrimitiveFunction
p43
(dp44
g19
F0.17760000000000001
sg20
S'S'
p45
sbasg20
S'S'
p46
sba(iBasisSets
BasisFunction
p47
(dp48
g13
(lp49
F1.0
asg15
(lp50
(iBasisSets
PrimitiveFunction
p51
(dp52
g19
F0.044150000000000002
sg20
S'S'
p53
sbasg20
S'S'
p54
sbassbsS'C'
p55
(iBasisSets
AtomBasis
p56
(dp57
g7
(dp58
g9
(lp59
(iBasisSets
BasisFunction
p60
(dp61
g13
(lp62
F0.018533999999999998
aF0.115442
aF0.38620599999999999
aF0.64008900000000002
asg15
(lp63
(iBasisSets
PrimitiveFunction
p64
(dp65
g19
F18.1557
sg20
S'P'
p66
sba(iBasisSets
PrimitiveFunction
p67
(dp68
g19
F3.9864000000000002
sg20
S'P'
p69
sba(iBasisSets
PrimitiveFunction
p70
(dp71
g19
F1.1429
sg20
S'P'
p72
sba(iBasisSets
PrimitiveFunction
p73
(dp74
g19
F0.3594
sg20
S'P'
p75
sbasg20
S'P'
p76
sba(iBasisSets
BasisFunction
p77
(dp78
g13
(lp79
F1.0
asg15
(lp80
(iBasisSets
PrimitiveFunction
p81
(dp82
g19
F0.11459999999999999
sg20
S'P'
p83
sbasg20
S'P'
p84
sba(iBasisSets
BasisFunction
p85
(dp86
g13
(lp87
F1.0
asg15
(lp88
(iBasisSets
PrimitiveFunction
p89
(dp90
g19
F0.036290000000000003
sg20
S'P'
p91
sbasg20
S'P'
p92
sbasg23
(lp93
(iBasisSets
BasisFunction
p94
(dp95
g13
(lp96
F0.002029
aF0.015535
aF0.075411000000000006
aF0.25712099999999999
aF0.59655499999999995
aF0.24251700000000001
asg15
(lp97
(iBasisSets
PrimitiveFunction
p98
(dp99
g19
F4232.6099999999997
sg20
S'S'
p100
sba(iBasisSets
PrimitiveFunction
p101
(dp102
g19
F634.88199999999995
sg20
S'S'
p103
sba(iBasisSets
PrimitiveFunction
p104
(dp105
g19
F146.09700000000001
sg20
S'S'
p106
sba(iBasisSets
PrimitiveFunction
p107
(dp108
g19
F42.497399999999999
sg20
S'S'
p109
sba(iBasisSets
PrimitiveFunction
p110
(dp111
g19
F14.1892
sg20
S'S'
p112
sba(iBasisSets
PrimitiveFunction
p113
(dp114
g19
F1.9665999999999999
sg20
S'S'
p115
sbasg20
S'S'
p116
sba(iBasisSets
BasisFunction
p117
(dp118
g13
(lp119
F1.0
asg15
(lp120
(iBasisSets
PrimitiveFunction
p121
(dp122
g19
F5.1477000000000004
sg20
S'S'
p123
sbasg20
S'S'
p124
sba(iBasisSets
BasisFunction
p125
(dp126
g13
(lp127
F1.0
asg15
(lp128
(iBasisSets
PrimitiveFunction
p129
(dp130
g19
F0.49619999999999997
sg20
S'S'
p131
sbasg20
S'S'
p132
sba(iBasisSets
BasisFunction
p133
(dp134
g13
(lp135
F1.0
asg15
(lp136
(iBasisSets
PrimitiveFunction
p137
(dp138
g19
F0.15329999999999999
sg20
S'S'
p139
sbasg20
S'S'
p140
sba(iBasisSets
BasisFunction
p141
(dp142
g13
(lp143
F1.0
asg15
(lp144
(iBasisSets
PrimitiveFunction
p145
(dp146
g19
F0.043020000000000003
sg20
S'S'
p147
sbasg20
S'S'
p148
sbasS'D'
p149
(lp150
(iBasisSets
BasisFunction
p151
(dp152
g13
(lp153
F1.0
asg15
(lp154
(iBasisSets
PrimitiveFunction
p155
(dp156
g19
F0.75
sg20
S'D'
p157
sbasg20
S'D'
p158
sbassbsS'F'
p159
(iBasisSets
AtomBasis
p160
(dp161
g7
(dp162
g9
(lp163
(iBasisSets
BasisFunction
p164
(dp165
g13
(lp166
F0.020868000000000001
aF0.13009200000000001
aF0.39621899999999999
aF0.62036800000000003
asg15
(lp167
(iBasisSets
PrimitiveFunction
p168
(dp169
g19
F44.355499999999999
sg20
S'P'
p170
sba(iBasisSets
PrimitiveFunction
p171
(dp172
g19
F10.082000000000001
sg20
S'P'
p173
sba(iBasisSets
PrimitiveFunction
p174
(dp175
g19
F2.9958999999999998
sg20
S'P'
p176
sba(iBasisSets
PrimitiveFunction
p177
(dp178
g19
F0.93830000000000002
sg20
S'P'
p179
sbasg20
S'P'
p180
sba(iBasisSets
BasisFunction
p181
(dp182
g13
(lp183
F1.0
asg15
(lp184
(iBasisSets
PrimitiveFunction
p185
(dp186
g19
F0.27329999999999999
sg20
S'P'
p187
sbasg20
S'P'
p188
sba(iBasisSets
BasisFunction
p189
(dp190
g13
(lp191
F1.0
asg15
(lp192
(iBasisSets
PrimitiveFunction
p193
(dp194
g19
F0.082556599999999994
sg20
S'P'
p195
sbasg20
S'P'
p196
sbasg23
(lp197
(iBasisSets
BasisFunction
p198
(dp199
g13
(lp200
F0.0020170000000000001
aF0.015295
aF0.073109999999999994
aF0.24642
aF0.61259300000000005
aF0.24248900000000001
asg15
(lp201
(iBasisSets
PrimitiveFunction
p202
(dp203
g19
F9994.7900000000009
sg20
S'S'
p204
sba(iBasisSets
PrimitiveFunction
p205
(dp206
g19
F1506.03
sg20
S'S'
p207
sba(iBasisSets
PrimitiveFunction
p208
(dp209
g19
F350.26900000000001
sg20
S'S'
p210
sba(iBasisSets
PrimitiveFunction
p211
(dp212
g19
F104.053
sg20
S'S'
p213
sba(iBasisSets
PrimitiveFunction
p214
(dp215
g19
F34.843200000000003
sg20
S'S'
p216
sba(iBasisSets
PrimitiveFunction
p217
(dp218
g19
F4.3688000000000002
sg20
S'S'
p219
sbasg20
S'S'
p220
sba(iBasisSets
BasisFunction
p221
(dp222
g13
(lp223
F1.0
asg15
(lp224
(iBasisSets
PrimitiveFunction
p225
(dp226
g19
F12.2164
sg20
S'S'
p227
sbasg20
S'S'
p228
sba(iBasisSets
BasisFunction
p229
(dp230
g13
(lp231
F1.0
asg15
(lp232
(iBasisSets
PrimitiveFunction
p233
(dp234
g19
F1.2078
sg20
S'S'
p235
sbasg20
S'S'
p236
sba(iBasisSets
BasisFunction
p237
(dp238
g13
(lp239
F1.0
asg15
(lp240
(iBasisSets
PrimitiveFunction
p241
(dp242
g19
F0.3634
sg20
S'S'
p243
sbasg20
S'S'
p244
sba(iBasisSets
BasisFunction
p245
(dp246
g13
(lp247
F1.0
asg15
(lp248
(iBasisSets
PrimitiveFunction
p249
(dp250
g19
F0.104902311
sg20
S'S'
p251
sbasg20
S'S'
p252
sbasg149
(lp253
(iBasisSets
BasisFunction
p254
(dp255
g13
(lp256
F1.0
asg15
(lp257
(iBasisSets
PrimitiveFunction
p258
(dp259
g19
F1.0
sg20
S'D'
p260
sbasg20
S'D'
p261
sbassbsS'CL'
p262
(iBasisSets
AtomBasis
p263
(dp264
g7
(dp265
g9
(lp266
(iBasisSets
BasisFunction
p267
(dp268
g13
(lp269
F0.014595
aF0.099046999999999996
aF0.33056200000000002
aF0.68287399999999998
asg15
(lp270
(iBasisSets
PrimitiveFunction
p271
(dp272
g19
F240.80000000000001
sg20
S'P'
p273
sba(iBasisSets
PrimitiveFunction
p274
(dp275
g19
F56.560000000000002
sg20
S'P'
p276
sba(iBasisSets
PrimitiveFunction
p277
(dp278
g19
F17.850000000000001
sg20
S'P'
p279
sba(iBasisSets
PrimitiveFunction
p280
(dp281
g19
F6.3499999999999996
sg20
S'P'
p282
sbasg20
S'P'
p283
sba(iBasisSets
BasisFunction
p284
(dp285
g13
(lp286
F-0.56178499999999998
aF1.351901
asg15
(lp287
(iBasisSets
PrimitiveFunction
p288
(dp289
g19
F6.3499999999999996
sg20
S'P'
p290
sba(iBasisSets
PrimitiveFunction
p291
(dp292
g19
F2.403
sg20
S'P'
p293
sbasg20
S'P'
p294
sba(iBasisSets
BasisFunction
p295
(dp296
g13
(lp297
F1.0
asg15
(lp298
(iBasisSets
PrimitiveFunction
p299
(dp300
g19
F0.64100000000000001
sg20
S'P'
p301
sbasg20
S'P'
p302
sba(iBasisSets
BasisFunction
p303
(dp304
g13
(lp305
F1.0
asg15
(lp306
(iBasisSets
PrimitiveFunction
p307
(dp308
g19
F0.18379999999999999
sg20
S'P'
p309
sbasg20
S'P'
p310
sba(iBasisSets
BasisFunction
p311
(dp312
g13
(lp313
F1.0
asg15
(lp314
(iBasisSets
PrimitiveFunction
p315
(dp316
g19
F0.050869999999999999
sg20
S'P'
p317
sbasg20
S'P'
p318
sbasg23
(lp319
(iBasisSets
BasisFunction
p320
(dp321
g13
(lp322
F0.002532
aF0.019206999999999998
aF0.095256999999999994
aF0.34558899999999998
aF0.63640099999999999
asg15
(lp323
(iBasisSets
PrimitiveFunction
p324
(dp325
g19
F40850.0
sg20
S'S'
p326
sba(iBasisSets
PrimitiveFunction
p327
(dp328
g19
F6179.0
sg20
S'S'
p329
sba(iBasisSets
PrimitiveFunction
p330
(dp331
g19
F1425.0
sg20
S'S'
p332
sba(iBasisSets
PrimitiveFunction
p333
(dp334
g19
F409.19999999999999
sg20
S'S'
p335
sba(iBasisSets
PrimitiveFunction
p336
(dp337
g19
F135.5
sg20
S'S'
p338
sbasg20
S'S'
p339
sba(iBasisSets
BasisFunction
p340
(dp341
g13
(lp342
F0.12095599999999999
aF0.64851099999999995
aF0.27548699999999998
asg15
(lp343
(iBasisSets
PrimitiveFunction
p344
(dp345
g19
F135.5
sg20
S'S'
p346
sba(iBasisSets
PrimitiveFunction
p347
(dp348
g19
F50.130000000000003
sg20
S'S'
p349
sba(iBasisSets
PrimitiveFunction
p350
(dp351
g19
F20.210000000000001
sg20
S'S'
p352
sbasg20
S'S'
p353
sba(iBasisSets
BasisFunction
p354
(dp355
g13
(lp356
F1.0
asg15
(lp357
(iBasisSets
PrimitiveFunction
p358
(dp359
g19
F6.2830000000000004
sg20
S'S'
p360
sbasg20
S'S'
p361
sba(iBasisSets
BasisFunction
p362
(dp363
g13
(lp364
F1.0
asg15
(lp365
(iBasisSets
PrimitiveFunction
p366
(dp367
g19
F2.46
sg20
S'S'
p368
sbasg20
S'S'
p369
sba(iBasisSets
BasisFunction
p370
(dp371
g13
(lp372
F1.0
asg15
(lp373
(iBasisSets
PrimitiveFunction
p374
(dp375
g19
F0.52710000000000001
sg20
S'S'
p376
sbasg20
S'S'
p377
sba(iBasisSets
BasisFunction
p378
(dp379
g13
(lp380
F1.0
asg15
(lp381
(iBasisSets
PrimitiveFunction
p382
(dp383
g19
F0.18840000000000001
sg20
S'S'
p384
sbasg20
S'S'
p385
sba(iBasisSets
BasisFunction
p386
(dp387
g13
(lp388
F1.0
asg15
(lp389
(iBasisSets
PrimitiveFunction
p390
(dp391
g19
F0.050479999999999997
sg20
S'S'
p392
sbasg20
S'S'
p393
sbasg149
(lp394
(iBasisSets
BasisFunction
p395
(dp396
g13
(lp397
F1.0
asg15
(lp398
(iBasisSets
PrimitiveFunction
p399
(dp400
g19
F0.75
sg20
S'D'
p401
sbasg20
S'D'
p402
sbassbssb.