ccopy_reg
_reconstructor
p0
(cbasisset
BasisSet
p1
c__builtin__
object
p2
Ntp3
Rp4
(dp5
S'basisDictionary'
p6
(dp7
S'H'
p8
(lp9
g0
(cbasisset
Shell
p10
g2
Ntp11
Rp12
(dp13
S'angularMomentum'
p14
S'S'
p15
sS'exponents'
p16
(lp17
F19.240600000000001
aF2.8992
aF0.65339999999999998
asS'coefficients'
p18
(lp19
(lp20
F0.032828000000000003
aF0.231208
aF0.81723800000000002
aasS'atom'
p21
S'H '
p22
sbag0
(g10
g2
Ntp23
Rp24
(dp25
g14
S'S'
p26
sg16
(lp27
F0.17760000000000001
asg18
(lp28
(lp29
F1.0
aasg21
S'H '
p30
sbag0
(g10
g2
Ntp31
Rp32
(dp33
g14
S'P'
p34
sg16
(lp35
F1.0
asg18
(lp36
(lp37
F1.0
aasg21
S'H '
p38
sbasS'O'
p39
(lp40
g0
(g10
g2
Ntp41
Rp42
(dp43
g14
S'S'
p44
sg16
(lp45
F7816.54
aF1175.8199999999999
aF273.18799999999999
aF81.169600000000003
aF27.183599999999998
aF3.4136000000000002
asg18
(lp46
(lp47
F0.0020309999999999998
aF0.015436
aF0.073771000000000003
aF0.24760599999999999
aF0.61183200000000004
aF0.241205
aasg21
S'\nO'
p48
sbag0
(g10
g2
Ntp49
Rp50
(dp51
g14
S'S'
p52
sg16
(lp53
F9.5321999999999996
asg18
(lp54
(lp55
F1.0
aasg21
S'\nO'
p56
sbag0
(g10
g2
Ntp57
Rp58
(dp59
g14
S'S'
p60
sg16
(lp61
F0.93979999999999997
asg18
(lp62
(lp63
F1.0
aasg21
S'\nO'
p64
sbag0
(g10
g2
Ntp65
Rp66
(dp67
g14
S'S'
p68
sg16
(lp69
F0.28460000000000002
asg18
(lp70
(lp71
F1.0
aasg21
S'\nO'
p72
sbag0
(g10
g2
Ntp73
Rp74
(dp75
g14
S'P'
p76
sg16
(lp77
F35.183199999999999
aF7.9039999999999999
aF2.3050999999999999
aF0.71709999999999996
asg18
(lp78
(lp79
F0.01958
aF0.12418899999999999
aF0.39472699999999999
aF0.62737500000000002
aasg21
S'\nO'
p80
sbag0
(g10
g2
Ntp81
Rp82
(dp83
g14
S'P'
p84
sg16
(lp85
F0.2137
asg18
(lp86
(lp87
F1.0
aasg21
S'\nO'
p88
sbag0
(g10
g2
Ntp89
Rp90
(dp91
g14
S'D'
p92
sg16
(lp93
F0.84999999999999998
asg18
(lp94
(lp95
F1.0
aasg21
S'\nO'
p96
sbassb.