(ibasisset
BasisSet
p0
(dp1
S'basisDictionary'
p2
(dp3
S'HE'
p4
(iBasisSets
AtomBasis
p5
(dp6
S'basisDictionary'
p7
(dp8
S'S'
p9
(lp10
(iBasisSets
BasisFunction
p11
(dp12
S'coefficientList'
p13
(lp14
F1.0
asS'primitiveList'
p15
(lp16
(iBasisSets
PrimitiveFunction
p17
(dp18
S'exponent'
p19
F234.0
sS'angularMomentum'
p20
S'S'
p21
sbasg20
S'S'
p22
sba(iBasisSets
BasisFunction
p23
(dp24
g13
(lp25
F1.0
asg15
(lp26
(iBasisSets
PrimitiveFunction
p27
(dp28
g19
F35.159999999999997
sg20
S'S'
p29
sbasg20
S'S'
p30
sba(iBasisSets
BasisFunction
p31
(dp32
g13
(lp33
F1.0
asg15
(lp34
(iBasisSets
PrimitiveFunction
p35
(dp36
g19
F7.9889999999999999
sg20
S'S'
p37
sbasg20
S'S'
p38
sba(iBasisSets
BasisFunction
p39
(dp40
g13
(lp41
F1.0
asg15
(lp42
(iBasisSets
PrimitiveFunction
p43
(dp44
g19
F2.2120000000000002
sg20
S'S'
p45
sbasg20
S'S'
p46
sba(iBasisSets
BasisFunction
p47
(dp48
g13
(lp49
F1.0
asg15
(lp50
(iBasisSets
PrimitiveFunction
p51
(dp52
g19
F0.66690000000000005
sg20
S'S'
p53
sbasg20
S'S'
p54
sba(iBasisSets
BasisFunction
p55
(dp56
g13
(lp57
F1.0
asg15
(lp58
(iBasisSets
PrimitiveFunction
p59
(dp60
g19
F0.2089
sg20
S'S'
p61
sbasg20
S'S'
p62
sba(iBasisSets
BasisFunction
p63
(dp64
g13
(lp65
F1.0
asg15
(lp66
(iBasisSets
PrimitiveFunction
p67
(dp68
g19
F0.051380000000000002
sg20
S'S'
p69
sbasg20
S'S'
p70
sbassbssb.