ccopy_reg
_reconstructor
p0
(cbasisset
BasisSet
p1
c__builtin__
object
p2
Ntp3
Rp4
(dp5
S'basisDictionary'
p6
(dp7
S'C'
p8
(lp9
g0
(cbasisset
Shell
p10
g2
Ntp11
Rp12
(dp13
S'angularMomentum'
p14
S'S'
p15
sS'exponents'
p16
(lp17
F949028.80000000005
asS'coefficients'
p18
(lp19
(lp20
F1.0
aasS'atom'
p21
S'C'
p22
sbag0
(g10
g2
Ntp23
Rp24
(dp25
g14
S'S'
p26
sg16
(lp27
F142083.0
asg18
(lp28
(lp29
F1.0
aasg21
S'C'
p30
sbag0
(g10
g2
Ntp31
Rp32
(dp33
g14
S'S'
p34
sg16
(lp35
F32332.470000000001
asg18
(lp36
(lp37
F1.0
aasg21
S'C'
p38
sbag0
(g10
g2
Ntp39
Rp40
(dp41
g14
S'S'
p42
sg16
(lp43
F9158.1170000000002
asg18
(lp44
(lp45
F1.0
aasg21
S'C'
p46
sbag0
(g10
g2
Ntp47
Rp48
(dp49
g14
S'S'
p50
sg16
(lp51
F2987.9090000000001
asg18
(lp52
(lp53
F1.0
aasg21
S'C'
p54
sbag0
(g10
g2
Ntp55
Rp56
(dp57
g14
S'S'
p58
sg16
(lp59
F1078.788
asg18
(lp60
(lp61
F1.0
aasg21
S'C'
p62
sbag0
(g10
g2
Ntp63
Rp64
(dp65
g14
S'S'
p66
sg16
(lp67
F420.83080000000001
asg18
(lp68
(lp69
F1.0
aasg21
S'C'
p70
sbag0
(g10
g2
Ntp71
Rp72
(dp73
g14
S'S'
p74
sg16
(lp75
F174.6003
asg18
(lp76
(lp77
F1.0
aasg21
S'C'
p78
sbag0
(g10
g2
Ntp79
Rp80
(dp81
g14
S'S'
p82
sg16
(lp83
F76.182919999999996
asg18
(lp84
(lp85
F1.0
aasg21
S'C'
p86
sbag0
(g10
g2
Ntp87
Rp88
(dp89
g14
S'S'
p90
sg16
(lp91
F34.63588
asg18
(lp92
(lp93
F1.0
aasg21
S'C'
p94
sbag0
(g10
g2
Ntp95
Rp96
(dp97
g14
S'S'
p98
sg16
(lp99
F16.270759999999999
asg18
(lp100
(lp101
F1.0
aasg21
S'C'
p102
sbag0
(g10
g2
Ntp103
Rp104
(dp105
g14
S'S'
p106
sg16
(lp107
F7.8554789999999999
asg18
(lp108
(lp109
F1.0
aasg21
S'C'
p110
sbag0
(g10
g2
Ntp111
Rp112
(dp113
g14
S'S'
p114
sg16
(lp115
F3.8821720000000002
asg18
(lp116
(lp117
F1.0
aasg21
S'C'
p118
sbag0
(g10
g2
Ntp119
Rp120
(dp121
g14
S'S'
p122
sg16
(lp123
F1.928334
asg18
(lp124
(lp125
F1.0
aasg21
S'C'
p126
sbag0
(g10
g2
Ntp127
Rp128
(dp129
g14
S'S'
p130
sg16
(lp131
F0.83580600000000005
asg18
(lp132
(lp133
F1.0
aasg21
S'C'
p134
sbag0
(g10
g2
Ntp135
Rp136
(dp137
g14
S'S'
p138
sg16
(lp139
F0.386291
asg18
(lp140
(lp141
F1.0
aasg21
S'C'
p142
sbag0
(g10
g2
Ntp143
Rp144
(dp145
g14
S'S'
p146
sg16
(lp147
F0.17685999999999999
asg18
(lp148
(lp149
F1.0
aasg21
S'C'
p150
sbag0
(g10
g2
Ntp151
Rp152
(dp153
g14
S'S'
p154
sg16
(lp155
F0.080252000000000004
asg18
(lp156
(lp157
F1.0
aasg21
S'C'
p158
sbag0
(g10
g2
Ntp159
Rp160
(dp161
g14
S'P'
p162
sg16
(lp163
F1147.6189999999999
asg18
(lp164
(lp165
F1.0
aasg21
S'C'
p166
sbag0
(g10
g2
Ntp167
Rp168
(dp169
g14
S'P'
p170
sg16
(lp171
F272.86950000000002
asg18
(lp172
(lp173
F1.0
aasg21
S'C'
p174
sbag0
(g10
g2
Ntp175
Rp176
(dp177
g14
S'P'
p178
sg16
(lp179
F89.082070000000002
asg18
(lp180
(lp181
F1.0
aasg21
S'C'
p182
sbag0
(g10
g2
Ntp183
Rp184
(dp185
g14
S'P'
p186
sg16
(lp187
F34.249450000000003
asg18
(lp188
(lp189
F1.0
aasg21
S'C'
p190
sbag0
(g10
g2
Ntp191
Rp192
(dp193
g14
S'P'
p194
sg16
(lp195
F14.54532
asg18
(lp196
(lp197
F1.0
aasg21
S'C'
p198
sbag0
(g10
g2
Ntp199
Rp200
(dp201
g14
S'P'
p202
sg16
(lp203
F6.573601
asg18
(lp204
(lp205
F1.0
aasg21
S'C'
p206
sbag0
(g10
g2
Ntp207
Rp208
(dp209
g14
S'P'
p210
sg16
(lp211
F3.1076969999999999
asg18
(lp212
(lp213
F1.0
aasg21
S'C'
p214
sbag0
(g10
g2
Ntp215
Rp216
(dp217
g14
S'P'
p218
sg16
(lp219
F1.52739
asg18
(lp220
(lp221
F1.0
aasg21
S'C'
p222
sbag0
(g10
g2
Ntp223
Rp224
(dp225
g14
S'P'
p226
sg16
(lp227
F0.76864600000000005
asg18
(lp228
(lp229
F1.0
aasg21
S'C'
p230
sbag0
(g10
g2
Ntp231
Rp232
(dp233
g14
S'P'
p234
sg16
(lp235
F0.38953900000000002
asg18
(lp236
(lp237
F1.0
aasg21
S'C'
p238
sbag0
(g10
g2
Ntp239
Rp240
(dp241
g14
S'P'
p242
sg16
(lp243
F0.197324
asg18
(lp244
(lp245
F1.0
aasg21
S'C'
p246
sbag0
(g10
g2
Ntp247
Rp248
(dp249
g14
S'P'
p250
sg16
(lp251
F0.099363999999999994
asg18
(lp252
(lp253
F1.0
aasg21
S'C'
p254
sbag0
(g10
g2
Ntp255
Rp256
(dp257
g14
S'P'
p258
sg16
(lp259
F0.048586999999999998
asg18
(lp260
(lp261
F1.0
aasg21
S'C'
p262
sbag0
(g10
g2
Ntp263
Rp264
(dp265
g14
S'D'
p266
sg16
(lp267
F4.5419999999999998
asg18
(lp268
(lp269
F1.0
aasg21
S'C'
p270
sbag0
(g10
g2
Ntp271
Rp272
(dp273
g14
S'D'
p274
sg16
(lp275
F1.9790000000000001
asg18
(lp276
(lp277
F1.0
aasg21
S'C'
p278
sbag0
(g10
g2
Ntp279
Rp280
(dp281
g14
S'D'
p282
sg16
(lp283
F0.86209999999999998
asg18
(lp284
(lp285
F1.0
aasg21
S'C'
p286
sbag0
(g10
g2
Ntp287
Rp288
(dp289
g14
S'D'
p290
sg16
(lp291
F0.37559999999999999
asg18
(lp292
(lp293
F1.0
aasg21
S'C'
p294
sbag0
(g10
g2
Ntp295
Rp296
(dp297
g14
S'D'
p298
sg16
(lp299
F0.1636
asg18
(lp300
(lp301
F1.0
aasg21
S'C'
p302
sbag0
(g10
g2
Ntp303
Rp304
(dp305
g14
S'F'
p306
sg16
(lp307
F2.6309999999999998
asg18
(lp308
(lp309
F1.0
aasg21
S'C'
p310
sbag0
(g10
g2
Ntp311
Rp312
(dp313
g14
S'F'
p314
sg16
(lp315
F1.2549999999999999
asg18
(lp316
(lp317
F1.0
aasg21
S'C'
p318
sbag0
(g10
g2
Ntp319
Rp320
(dp321
g14
S'F'
p322
sg16
(lp323
F0.5988
asg18
(lp324
(lp325
F1.0
aasg21
S'C'
p326
sbag0
(g10
g2
Ntp327
Rp328
(dp329
g14
S'F'
p330
sg16
(lp331
F0.28570000000000001
asg18
(lp332
(lp333
F1.0
aasg21
S'C'
p334
sbag0
(g10
g2
Ntp335
Rp336
(dp337
g14
S'G'
p338
sg16
(lp339
F2.6520000000000001
asg18
(lp340
(lp341
F1.0
aasg21
S'C'
p342
sbag0
(g10
g2
Ntp343
Rp344
(dp345
g14
S'G'
p346
sg16
(lp347
F1.204
asg18
(lp348
(lp349
F1.0
aasg21
S'C'
p350
sbag0
(g10
g2
Ntp351
Rp352
(dp353
g14
S'G'
p354
sg16
(lp355
F0.54700000000000004
asg18
(lp356
(lp357
F1.0
aasg21
S'C'
p358
sbag0
(g10
g2
Ntp359
Rp360
(dp361
g14
S'H'
p362
sg16
(lp363
F2.0299999999999998
asg18
(lp364
(lp365
F1.0
aasg21
S'C'
p366
sbag0
(g10
g2
Ntp367
Rp368
(dp369
g14
S'H'
p370
sg16
(lp371
F0.85109999999999997
asg18
(lp372
(lp373
F1.0
aasg21
S'C'
p374
sbag0
(g10
g2
Ntp375
Rp376
(dp377
g14
S'I'
p378
sg16
(lp379
F1.4910000000000001
asg18
(lp380
(lp381
F1.0
aasg21
S'C'
p382
sbag0
(g10
g2
Ntp383
Rp384
(dp385
g14
S'D'
p386
sg16
(lp387
F0.063600000000000004
asg18
(lp388
(lp389
F1.0
aasg21
S'C'
p390
sbag0
(g10
g2
Ntp391
Rp392
(dp393
g14
S'F'
p394
sg16
(lp395
F0.11799999999999999
asg18
(lp396
(lp397
F1.0
aasg21
S'C'
p398
sbag0
(g10
g2
Ntp399
Rp400
(dp401
g14
S'G'
p402
sg16
(lp403
F0.254
asg18
(lp404
(lp405
F1.0
aasg21
S'C'
p406
sbag0
(g10
g2
Ntp407
Rp408
(dp409
g14
S'H'
p410
sg16
(lp411
F0.45100000000000001
asg18
(lp412
(lp413
F1.0
aasg21
S'C'
p414
sbag0
(g10
g2
Ntp415
Rp416
(dp417
g14
S'I'
p418
sg16
(lp419
F0.77600000000000002
asg18
(lp420
(lp421
F1.0
aasg21
S'C'
p422
sbag0
(g10
g2
Ntp423
Rp424
(dp425
g14
S'S'
p426
sg16
(lp427
F0.035000000000000003
asg18
(lp428
(lp429
F1.0
aasg21
S'C'
p430
sbag0
(g10
g2
Ntp431
Rp432
(dp433
g14
S'P'
p434
sg16
(lp435
F0.025000000000000001
asg18
(lp436
(lp437
F1.0
aasg21
S'C'
p438
sbag0
(g10
g2
Ntp439
Rp440
(dp441
g14
S'D'
p442
sg16
(lp443
F24.0
asg18
(lp444
(lp445
F1.0
aasg21
S'C'
p446
sbag0
(g10
g2
Ntp447
Rp448
(dp449
g14
S'D'
p450
sg16
(lp451
F10.4
asg18
(lp452
(lp453
F1.0
aasg21
S'C'
p454
sbag0
(g10
g2
Ntp455
Rp456
(dp457
g14
S'F'
p458
sg16
(lp459
F5.5
asg18
(lp460
(lp461
F1.0
aasg21
S'C'
p462
sbasS'F'
p463
(lp464
g0
(g10
g2
Ntp465
Rp466
(dp467
g14
S'S'
p468
sg16
(lp469
F2115112.0
asg18
(lp470
(lp471
F1.0
aasg21
S'\nF'
p472
sbag0
(g10
g2
Ntp473
Rp474
(dp475
g14
S'S'
p476
sg16
(lp477
F316699.70000000001
asg18
(lp478
(lp479
F1.0
aasg21
S'\nF'
p480
sbag0
(g10
g2
Ntp481
Rp482
(dp483
g14
S'S'
p484
sg16
(lp485
F72075.710000000006
asg18
(lp486
(lp487
F1.0
aasg21
S'\nF'
p488
sbag0
(g10
g2
Ntp489
Rp490
(dp491
g14
S'S'
p492
sg16
(lp493
F20416.830000000002
asg18
(lp494
(lp495
F1.0
aasg21
S'\nF'
p496
sbag0
(g10
g2
Ntp497
Rp498
(dp499
g14
S'S'
p500
sg16
(lp501
F6661.4579999999996
asg18
(lp502
(lp503
F1.0
aasg21
S'\nF'
p504
sbag0
(g10
g2
Ntp505
Rp506
(dp507
g14
S'S'
p508
sg16
(lp509
F2405.1880000000001
asg18
(lp510
(lp511
F1.0
aasg21
S'\nF'
p512
sbag0
(g10
g2
Ntp513
Rp514
(dp515
g14
S'S'
p516
sg16
(lp517
F938.2595
asg18
(lp518
(lp519
F1.0
aasg21
S'\nF'
p520
sbag0
(g10
g2
Ntp521
Rp522
(dp523
g14
S'S'
p524
sg16
(lp525
F389.27100000000002
asg18
(lp526
(lp527
F1.0
aasg21
S'\nF'
p528
sbag0
(g10
g2
Ntp529
Rp530
(dp531
g14
S'S'
p532
sg16
(lp533
F169.84989999999999
asg18
(lp534
(lp535
F1.0
aasg21
S'\nF'
p536
sbag0
(g10
g2
Ntp537
Rp538
(dp539
g14
S'S'
p540
sg16
(lp541
F77.243669999999995
asg18
(lp542
(lp543
F1.0
aasg21
S'\nF'
p544
sbag0
(g10
g2
Ntp545
Rp546
(dp547
g14
S'S'
p548
sg16
(lp549
F36.328740000000003
asg18
(lp550
(lp551
F1.0
aasg21
S'\nF'
p552
sbag0
(g10
g2
Ntp553
Rp554
(dp555
g14
S'S'
p556
sg16
(lp557
F17.573869999999999
asg18
(lp558
(lp559
F1.0
aasg21
S'\nF'
p560
sbag0
(g10
g2
Ntp561
Rp562
(dp563
g14
S'S'
p564
sg16
(lp565
F8.6935300000000009
asg18
(lp566
(lp567
F1.0
aasg21
S'\nF'
p568
sbag0
(g10
g2
Ntp569
Rp570
(dp571
g14
S'S'
p572
sg16
(lp573
F4.3217689999999997
asg18
(lp574
(lp575
F1.0
aasg21
S'\nF'
p576
sbag0
(g10
g2
Ntp577
Rp578
(dp579
g14
S'S'
p580
sg16
(lp581
F1.9595199999999999
asg18
(lp582
(lp583
F1.0
aasg21
S'\nF'
p584
sbag0
(g10
g2
Ntp585
Rp586
(dp587
g14
S'S'
p588
sg16
(lp589
F0.90318500000000002
asg18
(lp590
(lp591
F1.0
aasg21
S'\nF'
p592
sbag0
(g10
g2
Ntp593
Rp594
(dp595
g14
S'S'
p596
sg16
(lp597
F0.41040500000000002
asg18
(lp598
(lp599
F1.0
aasg21
S'\nF'
p600
sbag0
(g10
g2
Ntp601
Rp602
(dp603
g14
S'S'
p604
sg16
(lp605
F0.18202399999999999
asg18
(lp606
(lp607
F1.0
aasg21
S'\nF'
p608
sbag0
(g10
g2
Ntp609
Rp610
(dp611
g14
S'P'
p612
sg16
(lp613
F2641.1329999999998
asg18
(lp614
(lp615
F1.0
aasg21
S'\nF'
p616
sbag0
(g10
g2
Ntp617
Rp618
(dp619
g14
S'P'
p620
sg16
(lp621
F625.14239999999995
asg18
(lp622
(lp623
F1.0
aasg21
S'\nF'
p624
sbag0
(g10
g2
Ntp625
Rp626
(dp627
g14
S'P'
p628
sg16
(lp629
F203.1062
asg18
(lp630
(lp631
F1.0
aasg21
S'\nF'
p632
sbag0
(g10
g2
Ntp633
Rp634
(dp635
g14
S'P'
p636
sg16
(lp637
F77.738550000000004
asg18
(lp638
(lp639
F1.0
aasg21
S'\nF'
p640
sbag0
(g10
g2
Ntp641
Rp642
(dp643
g14
S'P'
p644
sg16
(lp645
F32.923969999999997
asg18
(lp646
(lp647
F1.0
aasg21
S'\nF'
p648
sbag0
(g10
g2
Ntp649
Rp650
(dp651
g14
S'P'
p652
sg16
(lp653
F14.90071
asg18
(lp654
(lp655
F1.0
aasg21
S'\nF'
p656
sbag0
(g10
g2
Ntp657
Rp658
(dp659
g14
S'P'
p660
sg16
(lp661
F7.082732
asg18
(lp662
(lp663
F1.0
aasg21
S'\nF'
p664
sbag0
(g10
g2
Ntp665
Rp666
(dp667
g14
S'P'
p668
sg16
(lp669
F3.486351
asg18
(lp670
(lp671
F1.0
aasg21
S'\nF'
p672
sbag0
(g10
g2
Ntp673
Rp674
(dp675
g14
S'P'
p676
sg16
(lp677
F1.7409699999999999
asg18
(lp678
(lp679
F1.0
aasg21
S'\nF'
p680
sbag0
(g10
g2
Ntp681
Rp682
(dp683
g14
S'P'
p684
sg16
(lp685
F0.86650199999999999
asg18
(lp686
(lp687
F1.0
aasg21
S'\nF'
p688
sbag0
(g10
g2
Ntp689
Rp690
(dp691
g14
S'P'
p692
sg16
(lp693
F0.42609900000000001
asg18
(lp694
(lp695
F1.0
aasg21
S'\nF'
p696
sbag0
(g10
g2
Ntp697
Rp698
(dp699
g14
S'P'
p700
sg16
(lp701
F0.206097
asg18
(lp702
(lp703
F1.0
aasg21
S'\nF'
p704
sbag0
(g10
g2
Ntp705
Rp706
(dp707
g14
S'P'
p708
sg16
(lp709
F0.095981999999999998
asg18
(lp710
(lp711
F1.0
aasg21
S'\nF'
p712
sbag0
(g10
g2
Ntp713
Rp714
(dp715
g14
S'D'
p716
sg16
(lp717
F10.573
asg18
(lp718
(lp719
F1.0
aasg21
S'\nF'
p720
sbag0
(g10
g2
Ntp721
Rp722
(dp723
g14
S'D'
p724
sg16
(lp725
F4.6130000000000004
asg18
(lp726
(lp727
F1.0
aasg21
S'\nF'
p728
sbag0
(g10
g2
Ntp729
Rp730
(dp731
g14
S'D'
p732
sg16
(lp733
F2.0129999999999999
asg18
(lp734
(lp735
F1.0
aasg21
S'\nF'
p736
sbag0
(g10
g2
Ntp737
Rp738
(dp739
g14
S'D'
p740
sg16
(lp741
F0.878
asg18
(lp742
(lp743
F1.0
aasg21
S'\nF'
p744
sbag0
(g10
g2
Ntp745
Rp746
(dp747
g14
S'D'
p748
sg16
(lp749
F0.38300000000000001
asg18
(lp750
(lp751
F1.0
aasg21
S'\nF'
p752
sbag0
(g10
g2
Ntp753
Rp754
(dp755
g14
S'F'
p756
sg16
(lp757
F7.5629999999999997
asg18
(lp758
(lp759
F1.0
aasg21
S'\nF'
p760
sbag0
(g10
g2
Ntp761
Rp762
(dp763
g14
S'F'
p764
sg16
(lp765
F3.3300000000000001
asg18
(lp766
(lp767
F1.0
aasg21
S'\nF'
p768
sbag0
(g10
g2
Ntp769
Rp770
(dp771
g14
S'F'
p772
sg16
(lp773
F1.466
asg18
(lp774
(lp775
F1.0
aasg21
S'\nF'
p776
sbag0
(g10
g2
Ntp777
Rp778
(dp779
g14
S'F'
p780
sg16
(lp781
F0.64500000000000002
asg18
(lp782
(lp783
F1.0
aasg21
S'\nF'
p784
sbag0
(g10
g2
Ntp785
Rp786
(dp787
g14
S'G'
p788
sg16
(lp789
F6.7350000000000003
asg18
(lp790
(lp791
F1.0
aasg21
S'\nF'
p792
sbag0
(g10
g2
Ntp793
Rp794
(dp795
g14
S'G'
p796
sg16
(lp797
F2.7829999999999999
asg18
(lp798
(lp799
F1.0
aasg21
S'\nF'
p800
sbag0
(g10
g2
Ntp801
Rp802
(dp803
g14
S'G'
p804
sg16
(lp805
F1.1499999999999999
asg18
(lp806
(lp807
F1.0
aasg21
S'\nF'
p808
sbag0
(g10
g2
Ntp809
Rp810
(dp811
g14
S'H'
p812
sg16
(lp813
F5.0880000000000001
asg18
(lp814
(lp815
F1.0
aasg21
S'\nF'
p816
sbag0
(g10
g2
Ntp817
Rp818
(dp819
g14
S'H'
p820
sg16
(lp821
F1.9370000000000001
asg18
(lp822
(lp823
F1.0
aasg21
S'\nF'
p824
sbag0
(g10
g2
Ntp825
Rp826
(dp827
g14
S'I'
p828
sg16
(lp829
F3.581
asg18
(lp830
(lp831
F1.0
aasg21
S'\nF'
p832
sbag0
(g10
g2
Ntp833
Rp834
(dp835
g14
S'D'
p836
sg16
(lp837
F0.151
asg18
(lp838
(lp839
F1.0
aasg21
S'\nF'
p840
sbag0
(g10
g2
Ntp841
Rp842
(dp843
g14
S'F'
p844
sg16
(lp845
F0.27200000000000002
asg18
(lp846
(lp847
F1.0
aasg21
S'\nF'
p848
sbag0
(g10
g2
Ntp849
Rp850
(dp851
g14
S'G'
p852
sg16
(lp853
F0.52000000000000002
asg18
(lp854
(lp855
F1.0
aasg21
S'\nF'
p856
sbag0
(g10
g2
Ntp857
Rp858
(dp859
g14
S'H'
p860
sg16
(lp861
F0.98499999999999999
asg18
(lp862
(lp863
F1.0
aasg21
S'\nF'
p864
sbag0
(g10
g2
Ntp865
Rp866
(dp867
g14
S'I'
p868
sg16
(lp869
F1.7390000000000001
asg18
(lp870
(lp871
F1.0
aasg21
S'\nF'
p872
sbag0
(g10
g2
Ntp873
Rp874
(dp875
g14
S'S'
p876
sg16
(lp877
F0.080000000000000002
asg18
(lp878
(lp879
F1.0
aasg21
S'\nF'
p880
sbag0
(g10
g2
Ntp881
Rp882
(dp883
g14
S'P'
p884
sg16
(lp885
F0.044999999999999998
asg18
(lp886
(lp887
F1.0
aasg21
S'\nF'
p888
sbag0
(g10
g2
Ntp889
Rp890
(dp891
g14
S'D'
p892
sg16
(lp893
F55.5
asg18
(lp894
(lp895
F1.0
aasg21
S'\nF'
p896
sbag0
(g10
g2
Ntp897
Rp898
(dp899
g14
S'D'
p900
sg16
(lp901
F24.199999999999999
asg18
(lp902
(lp903
F1.0
aasg21
S'\nF'
p904
sbag0
(g10
g2
Ntp905
Rp906
(dp907
g14
S'F'
p908
sg16
(lp909
F17.199999999999999
asg18
(lp910
(lp911
F1.0
aasg21
S'\nF'
p912
sbasS'H'
p913
(lp914
g0
(g10
g2
Ntp915
Rp916
(dp917
g14
S'S'
p918
sg16
(lp919
F402.0
asg18
(lp920
(lp921
F1.0
aasg21
S'\nH'
p922
sbag0
(g10
g2
Ntp923
Rp924
(dp925
g14
S'S'
p926
sg16
(lp927
F60.240000000000002
asg18
(lp928
(lp929
F1.0
aasg21
S'\nH'
p930
sbag0
(g10
g2
Ntp931
Rp932
(dp933
g14
S'S'
p934
sg16
(lp935
F13.73
asg18
(lp936
(lp937
F1.0
aasg21
S'\nH'
p938
sbag0
(g10
g2
Ntp939
Rp940
(dp941
g14
S'S'
p942
sg16
(lp943
F3.9049999999999998
asg18
(lp944
(lp945
F1.0
aasg21
S'\nH'
p946
sbag0
(g10
g2
Ntp947
Rp948
(dp949
g14
S'S'
p950
sg16
(lp951
F1.2829999999999999
asg18
(lp952
(lp953
F1.0
aasg21
S'\nH'
p954
sbag0
(g10
g2
Ntp955
Rp956
(dp957
g14
S'S'
p958
sg16
(lp959
F0.46550000000000002
asg18
(lp960
(lp961
F1.0
aasg21
S'\nH'
p962
sbag0
(g10
g2
Ntp963
Rp964
(dp965
g14
S'S'
p966
sg16
(lp967
F0.18110000000000001
asg18
(lp968
(lp969
F1.0
aasg21
S'\nH'
p970
sbag0
(g10
g2
Ntp971
Rp972
(dp973
g14
S'S'
p974
sg16
(lp975
F0.072789999999999994
asg18
(lp976
(lp977
F1.0
aasg21
S'\nH'
p978
sbag0
(g10
g2
Ntp979
Rp980
(dp981
g14
S'P'
p982
sg16
(lp983
F4.516
asg18
(lp984
(lp985
F1.0
aasg21
S'\nH'
p986
sbag0
(g10
g2
Ntp987
Rp988
(dp989
g14
S'P'
p990
sg16
(lp991
F1.712
asg18
(lp992
(lp993
F1.0
aasg21
S'\nH'
p994
sbag0
(g10
g2
Ntp995
Rp996
(dp997
g14
S'P'
p998
sg16
(lp999
F0.64900000000000002
asg18
(lp1000
(lp1001
F1.0
aasg21
S'\nH'
p1002
sbag0
(g10
g2
Ntp1003
Rp1004
(dp1005
g14
S'P'
p1006
sg16
(lp1007
F0.246
asg18
(lp1008
(lp1009
F1.0
aasg21
S'\nH'
p1010
sbag0
(g10
g2
Ntp1011
Rp1012
(dp1013
g14
S'D'
p1014
sg16
(lp1015
F2.9500000000000002
asg18
(lp1016
(lp1017
F1.0
aasg21
S'\nH'
p1018
sbag0
(g10
g2
Ntp1019
Rp1020
(dp1021
g14
S'D'
p1022
sg16
(lp1023
F1.206
asg18
(lp1024
(lp1025
F1.0
aasg21
S'\nH'
p1026
sbag0
(g10
g2
Ntp1027
Rp1028
(dp1029
g14
S'D'
p1030
sg16
(lp1031
F0.49299999999999999
asg18
(lp1032
(lp1033
F1.0
aasg21
S'\nH'
p1034
sbag0
(g10
g2
Ntp1035
Rp1036
(dp1037
g14
S'F'
p1038
sg16
(lp1039
F2.5059999999999998
asg18
(lp1040
(lp1041
F1.0
aasg21
S'\nH'
p1042
sbag0
(g10
g2
Ntp1043
Rp1044
(dp1045
g14
S'F'
p1046
sg16
(lp1047
F0.875
asg18
(lp1048
(lp1049
F1.0
aasg21
S'\nH'
p1050
sbag0
(g10
g2
Ntp1051
Rp1052
(dp1053
g14
S'G'
p1054
sg16
(lp1055
F2.3580000000000001
asg18
(lp1056
(lp1057
F1.0
aasg21
S'\nH'
p1058
sbag0
(g10
g2
Ntp1059
Rp1060
(dp1061
g14
S'S'
p1062
sg16
(lp1063
F0.0207
asg18
(lp1064
(lp1065
F1.0
aasg21
S'\nH'
p1066
sbag0
(g10
g2
Ntp1067
Rp1068
(dp1069
g14
S'P'
p1070
sg16
(lp1071
F0.074399999999999994
asg18
(lp1072
(lp1073
F1.0
aasg21
S'\nH'
p1074
sbag0
(g10
g2
Ntp1075
Rp1076
(dp1077
g14
S'D'
p1078
sg16
(lp1079
F0.156
asg18
(lp1080
(lp1081
F1.0
aasg21
S'\nH'
p1082
sbag0
(g10
g2
Ntp1083
Rp1084
(dp1085
g14
S'F'
p1086
sg16
(lp1087
F0.27400000000000002
asg18
(lp1088
(lp1089
F1.0
aasg21
S'\nH'
p1090
sbag0
(g10
g2
Ntp1091
Rp1092
(dp1093
g14
S'G'
p1094
sg16
(lp1095
F0.54300000000000004
asg18
(lp1096
(lp1097
F1.0
aasg21
S'\nH'
p1098
sbag0
(g10
g2
Ntp1099
Rp1100
(dp1101
g14
S'P'
p1102
sg16
(lp1103
F11.9
asg18
(lp1104
(lp1105
F1.0
aasg21
S'\nH'
p1106
sbasS'NE'
p1107
(lp1108
g0
(g10
g2
Ntp1109
Rp1110
(dp1111
g14
S'S'
p1112
sg16
(lp1113
F2598845.0
asg18
(lp1114
(lp1115
F1.0
aasg21
S'NE'
p1116
sbag0
(g10
g2
Ntp1117
Rp1118
(dp1119
g14
S'S'
p1120
sg16
(lp1121
F389291.20000000001
asg18
(lp1122
(lp1123
F1.0
aasg21
S'NE'
p1124
sbag0
(g10
g2
Ntp1125
Rp1126
(dp1127
g14
S'S'
p1128
sg16
(lp1129
F88614.779999999999
asg18
(lp1130
(lp1131
F1.0
aasg21
S'NE'
p1132
sbag0
(g10
g2
Ntp1133
Rp1134
(dp1135
g14
S'S'
p1136
sg16
(lp1137
F25103.59
asg18
(lp1138
(lp1139
F1.0
aasg21
S'NE'
p1140
sbag0
(g10
g2
Ntp1141
Rp1142
(dp1143
g14
S'S'
p1144
sg16
(lp1145
F8190.9099999999999
asg18
(lp1146
(lp1147
F1.0
aasg21
S'NE'
p1148
sbag0
(g10
g2
Ntp1149
Rp1150
(dp1151
g14
S'S'
p1152
sg16
(lp1153
F2957.4969999999998
asg18
(lp1154
(lp1155
F1.0
aasg21
S'NE'
p1156
sbag0
(g10
g2
Ntp1157
Rp1158
(dp1159
g14
S'S'
p1160
sg16
(lp1161
F1153.7429999999999
asg18
(lp1162
(lp1163
F1.0
aasg21
S'NE'
p1164
sbag0
(g10
g2
Ntp1165
Rp1166
(dp1167
g14
S'S'
p1168
sg16
(lp1169
F478.68000000000001
asg18
(lp1170
(lp1171
F1.0
aasg21
S'NE'
p1172
sbag0
(g10
g2
Ntp1173
Rp1174
(dp1175
g14
S'S'
p1176
sg16
(lp1177
F208.86449999999999
asg18
(lp1178
(lp1179
F1.0
aasg21
S'NE'
p1180
sbag0
(g10
g2
Ntp1181
Rp1182
(dp1183
g14
S'S'
p1184
sg16
(lp1185
F94.99324
asg18
(lp1186
(lp1187
F1.0
aasg21
S'NE'
p1188
sbag0
(g10
g2
Ntp1189
Rp1190
(dp1191
g14
S'S'
p1192
sg16
(lp1193
F44.686810000000001
asg18
(lp1194
(lp1195
F1.0
aasg21
S'NE'
p1196
sbag0
(g10
g2
Ntp1197
Rp1198
(dp1199
g14
S'S'
p1200
sg16
(lp1201
F21.623280000000001
asg18
(lp1202
(lp1203
F1.0
aasg21
S'NE'
p1204
sbag0
(g10
g2
Ntp1205
Rp1206
(dp1207
g14
S'S'
p1208
sg16
(lp1209
F10.694419999999999
asg18
(lp1210
(lp1211
F1.0
aasg21
S'NE'
p1212
sbag0
(g10
g2
Ntp1213
Rp1214
(dp1215
g14
S'S'
p1216
sg16
(lp1217
F5.3116979999999998
asg18
(lp1218
(lp1219
F1.0
aasg21
S'NE'
p1220
sbag0
(g10
g2
Ntp1221
Rp1222
(dp1223
g14
S'S'
p1224
sg16
(lp1225
F2.4260419999999998
asg18
(lp1226
(lp1227
F1.0
aasg21
S'NE'
p1228
sbag0
(g10
g2
Ntp1229
Rp1230
(dp1231
g14
S'S'
p1232
sg16
(lp1233
F1.118112
asg18
(lp1234
(lp1235
F1.0
aasg21
S'NE'
p1236
sbag0
(g10
g2
Ntp1237
Rp1238
(dp1239
g14
S'S'
p1240
sg16
(lp1241
F0.507378
asg18
(lp1242
(lp1243
F1.0
aasg21
S'NE'
p1244
sbag0
(g10
g2
Ntp1245
Rp1246
(dp1247
g14
S'S'
p1248
sg16
(lp1249
F0.22395999999999999
asg18
(lp1250
(lp1251
F1.0
aasg21
S'NE'
p1252
sbag0
(g10
g2
Ntp1253
Rp1254
(dp1255
g14
S'P'
p1256
sg16
(lp1257
F3257.3130000000001
asg18
(lp1258
(lp1259
F1.0
aasg21
S'NE'
p1260
sbag0
(g10
g2
Ntp1261
Rp1262
(dp1263
g14
S'P'
p1264
sg16
(lp1265
F771.04600000000005
asg18
(lp1266
(lp1267
F1.0
aasg21
S'NE'
p1268
sbag0
(g10
g2
Ntp1269
Rp1270
(dp1271
g14
S'P'
p1272
sg16
(lp1273
F250.53309999999999
asg18
(lp1274
(lp1275
F1.0
aasg21
S'NE'
p1276
sbag0
(g10
g2
Ntp1277
Rp1278
(dp1279
g14
S'P'
p1280
sg16
(lp1281
F95.903729999999996
asg18
(lp1282
(lp1283
F1.0
aasg21
S'NE'
p1284
sbag0
(g10
g2
Ntp1285
Rp1286
(dp1287
g14
S'P'
p1288
sg16
(lp1289
F40.633479999999999
asg18
(lp1290
(lp1291
F1.0
aasg21
S'NE'
p1292
sbag0
(g10
g2
Ntp1293
Rp1294
(dp1295
g14
S'P'
p1296
sg16
(lp1297
F18.409490000000002
asg18
(lp1298
(lp1299
F1.0
aasg21
S'NE'
p1300
sbag0
(g10
g2
Ntp1301
Rp1302
(dp1303
g14
S'P'
p1304
sg16
(lp1305
F8.7624680000000001
asg18
(lp1306
(lp1307
F1.0
aasg21
S'NE'
p1308
sbag0
(g10
g2
Ntp1309
Rp1310
(dp1311
g14
S'P'
p1312
sg16
(lp1313
F4.314311
asg18
(lp1314
(lp1315
F1.0
aasg21
S'NE'
p1316
sbag0
(g10
g2
Ntp1317
Rp1318
(dp1319
g14
S'P'
p1320
sg16
(lp1321
F2.1515010000000001
asg18
(lp1322
(lp1323
F1.0
aasg21
S'NE'
p1324
sbag0
(g10
g2
Ntp1325
Rp1326
(dp1327
g14
S'P'
p1328
sg16
(lp1329
F1.0676349999999999
asg18
(lp1330
(lp1331
F1.0
aasg21
S'NE'
p1332
sbag0
(g10
g2
Ntp1333
Rp1334
(dp1335
g14
S'P'
p1336
sg16
(lp1337
F0.52239999999999998
asg18
(lp1338
(lp1339
F1.0
aasg21
S'NE'
p1340
sbag0
(g10
g2
Ntp1341
Rp1342
(dp1343
g14
S'P'
p1344
sg16
(lp1345
F0.25084299999999998
asg18
(lp1346
(lp1347
F1.0
aasg21
S'NE'
p1348
sbag0
(g10
g2
Ntp1349
Rp1350
(dp1351
g14
S'P'
p1352
sg16
(lp1353
F0.11570800000000001
asg18
(lp1354
(lp1355
F1.0
aasg21
S'NE'
p1356
sbag0
(g10
g2
Ntp1357
Rp1358
(dp1359
g14
S'D'
p1360
sg16
(lp1361
F13.317
asg18
(lp1362
(lp1363
F1.0
aasg21
S'NE'
p1364
sbag0
(g10
g2
Ntp1365
Rp1366
(dp1367
g14
S'D'
p1368
sg16
(lp1369
F5.8029999999999999
asg18
(lp1370
(lp1371
F1.0
aasg21
S'NE'
p1372
sbag0
(g10
g2
Ntp1373
Rp1374
(dp1375
g14
S'D'
p1376
sg16
(lp1377
F2.5289999999999999
asg18
(lp1378
(lp1379
F1.0
aasg21
S'NE'
p1380
sbag0
(g10
g2
Ntp1381
Rp1382
(dp1383
g14
S'D'
p1384
sg16
(lp1385
F1.1020000000000001
asg18
(lp1386
(lp1387
F1.0
aasg21
S'NE'
p1388
sbag0
(g10
g2
Ntp1389
Rp1390
(dp1391
g14
S'D'
p1392
sg16
(lp1393
F0.47999999999999998
asg18
(lp1394
(lp1395
F1.0
aasg21
S'NE'
p1396
sbag0
(g10
g2
Ntp1397
Rp1398
(dp1399
g14
S'F'
p1400
sg16
(lp1401
F10.356
asg18
(lp1402
(lp1403
F1.0
aasg21
S'NE'
p1404
sbag0
(g10
g2
Ntp1405
Rp1406
(dp1407
g14
S'F'
p1408
sg16
(lp1409
F4.5380000000000003
asg18
(lp1410
(lp1411
F1.0
aasg21
S'NE'
p1412
sbag0
(g10
g2
Ntp1413
Rp1414
(dp1415
g14
S'F'
p1416
sg16
(lp1417
F1.9890000000000001
asg18
(lp1418
(lp1419
F1.0
aasg21
S'NE'
p1420
sbag0
(g10
g2
Ntp1421
Rp1422
(dp1423
g14
S'F'
p1424
sg16
(lp1425
F0.871
asg18
(lp1426
(lp1427
F1.0
aasg21
S'NE'
p1428
sbag0
(g10
g2
Ntp1429
Rp1430
(dp1431
g14
S'G'
p1432
sg16
(lp1433
F8.3450000000000006
asg18
(lp1434
(lp1435
F1.0
aasg21
S'NE'
p1436
sbag0
(g10
g2
Ntp1437
Rp1438
(dp1439
g14
S'G'
p1440
sg16
(lp1441
F3.4169999999999998
asg18
(lp1442
(lp1443
F1.0
aasg21
S'NE'
p1444
sbag0
(g10
g2
Ntp1445
Rp1446
(dp1447
g14
S'G'
p1448
sg16
(lp1449
F1.399
asg18
(lp1450
(lp1451
F1.0
aasg21
S'NE'
p1452
sbag0
(g10
g2
Ntp1453
Rp1454
(dp1455
g14
S'H'
p1456
sg16
(lp1457
F6.5190000000000001
asg18
(lp1458
(lp1459
F1.0
aasg21
S'NE'
p1460
sbag0
(g10
g2
Ntp1461
Rp1462
(dp1463
g14
S'H'
p1464
sg16
(lp1465
F2.4470000000000001
asg18
(lp1466
(lp1467
F1.0
aasg21
S'NE'
p1468
sbag0
(g10
g2
Ntp1469
Rp1470
(dp1471
g14
S'I'
p1472
sg16
(lp1473
F4.4889999999999999
asg18
(lp1474
(lp1475
F1.0
aasg21
S'NE'
p1476
sbag0
(g10
g2
Ntp1477
Rp1478
(dp1479
g14
S'S'
p1480
sg16
(lp1481
F0.086900000000000005
asg18
(lp1482
(lp1483
F1.0
aasg21
S'NE'
p1484
sbag0
(g10
g2
Ntp1485
Rp1486
(dp1487
g14
S'P'
p1488
sg16
(lp1489
F0.056599999999999998
asg18
(lp1490
(lp1491
F1.0
aasg21
S'NE'
p1492
sbag0
(g10
g2
Ntp1493
Rp1494
(dp1495
g14
S'D'
p1496
sg16
(lp1497
F0.187
asg18
(lp1498
(lp1499
F1.0
aasg21
S'NE'
p1500
sbag0
(g10
g2
Ntp1501
Rp1502
(dp1503
g14
S'F'
p1504
sg16
(lp1505
F0.34920000000000001
asg18
(lp1506
(lp1507
F1.0
aasg21
S'NE'
p1508
sbag0
(g10
g2
Ntp1509
Rp1510
(dp1511
g14
S'G'
p1512
sg16
(lp1513
F0.63449999999999995
asg18
(lp1514
(lp1515
F1.0
aasg21
S'NE'
p1516
sbag0
(g10
g2
Ntp1517
Rp1518
(dp1519
g14
S'H'
p1520
sg16
(lp1521
F1.2093
asg18
(lp1522
(lp1523
F1.0
aasg21
S'NE'
p1524
sbag0
(g10
g2
Ntp1525
Rp1526
(dp1527
g14
S'I'
p1528
sg16
(lp1529
F2.1215000000000002
asg18
(lp1530
(lp1531
F1.0
aasg21
S'NE'
p1532
sbag0
(g10
g2
Ntp1533
Rp1534
(dp1535
g14
S'S'
p1536
sg16
(lp1537
F0.10000000000000001
asg18
(lp1538
(lp1539
F1.0
aasg21
S'NE'
p1540
sbag0
(g10
g2
Ntp1541
Rp1542
(dp1543
g14
S'P'
p1544
sg16
(lp1545
F0.050000000000000003
asg18
(lp1546
(lp1547
F1.0
aasg21
S'NE'
p1548
sbag0
(g10
g2
Ntp1549
Rp1550
(dp1551
g14
S'D'
p1552
sg16
(lp1553
F70.099999999999994
asg18
(lp1554
(lp1555
F1.0
aasg21
S'NE'
p1556
sbag0
(g10
g2
Ntp1557
Rp1558
(dp1559
g14
S'D'
p1560
sg16
(lp1561
F30.600000000000001
asg18
(lp1562
(lp1563
F1.0
aasg21
S'NE'
p1564
sbag0
(g10
g2
Ntp1565
Rp1566
(dp1567
g14
S'F'
p1568
sg16
(lp1569
F23.600000000000001
asg18
(lp1570
(lp1571
F1.0
aasg21
S'NE'
p1572
sbasS'O'
p1573
(lp1574
g0
(g10
g2
Ntp1575
Rp1576
(dp1577
g14
S'S'
p1578
sg16
(lp1579
F1678789.0
asg18
(lp1580
(lp1581
F1.0
aasg21
S'\nO'
p1582
sbag0
(g10
g2
Ntp1583
Rp1584
(dp1585
g14
S'S'
p1586
sg16
(lp1587
F251388.20000000001
asg18
(lp1588
(lp1589
F1.0
aasg21
S'\nO'
p1590
sbag0
(g10
g2
Ntp1591
Rp1592
(dp1593
g14
S'S'
p1594
sg16
(lp1595
F57213.730000000003
asg18
(lp1596
(lp1597
F1.0
aasg21
S'\nO'
p1598
sbag0
(g10
g2
Ntp1599
Rp1600
(dp1601
g14
S'S'
p1602
sg16
(lp1603
F16207.440000000001
asg18
(lp1604
(lp1605
F1.0
aasg21
S'\nO'
p1606
sbag0
(g10
g2
Ntp1607
Rp1608
(dp1609
g14
S'S'
p1610
sg16
(lp1611
F5288.2759999999998
asg18
(lp1612
(lp1613
F1.0
aasg21
S'\nO'
p1614
sbag0
(g10
g2
Ntp1615
Rp1616
(dp1617
g14
S'S'
p1618
sg16
(lp1619
F1909.4780000000001
asg18
(lp1620
(lp1621
F1.0
aasg21
S'\nO'
p1622
sbag0
(g10
g2
Ntp1623
Rp1624
(dp1625
g14
S'S'
p1626
sg16
(lp1627
F744.92309999999998
asg18
(lp1628
(lp1629
F1.0
aasg21
S'\nO'
p1630
sbag0
(g10
g2
Ntp1631
Rp1632
(dp1633
g14
S'S'
p1634
sg16
(lp1635
F309.07549999999998
asg18
(lp1636
(lp1637
F1.0
aasg21
S'\nO'
p1638
sbag0
(g10
g2
Ntp1639
Rp1640
(dp1641
g14
S'S'
p1642
sg16
(lp1643
F134.86449999999999
asg18
(lp1644
(lp1645
F1.0
aasg21
S'\nO'
p1646
sbag0
(g10
g2
Ntp1647
Rp1648
(dp1649
g14
S'S'
p1650
sg16
(lp1651
F61.331290000000003
asg18
(lp1652
(lp1653
F1.0
aasg21
S'\nO'
p1654
sbag0
(g10
g2
Ntp1655
Rp1656
(dp1657
g14
S'S'
p1658
sg16
(lp1659
F28.837959999999999
asg18
(lp1660
(lp1661
F1.0
aasg21
S'\nO'
p1662
sbag0
(g10
g2
Ntp1663
Rp1664
(dp1665
g14
S'S'
p1666
sg16
(lp1667
F13.945040000000001
asg18
(lp1668
(lp1669
F1.0
aasg21
S'\nO'
p1670
sbag0
(g10
g2
Ntp1671
Rp1672
(dp1673
g14
S'S'
p1674
sg16
(lp1675
F6.8990770000000001
asg18
(lp1676
(lp1677
F1.0
aasg21
S'\nO'
p1678
sbag0
(g10
g2
Ntp1679
Rp1680
(dp1681
g14
S'S'
p1682
sg16
(lp1683
F3.4315769999999999
asg18
(lp1684
(lp1685
F1.0
aasg21
S'\nO'
p1686
sbag0
(g10
g2
Ntp1687
Rp1688
(dp1689
g14
S'S'
p1690
sg16
(lp1691
F1.5398400000000001
asg18
(lp1692
(lp1693
F1.0
aasg21
S'\nO'
p1694
sbag0
(g10
g2
Ntp1695
Rp1696
(dp1697
g14
S'S'
p1698
sg16
(lp1699
F0.70975100000000002
asg18
(lp1700
(lp1701
F1.0
aasg21
S'\nO'
p1702
sbag0
(g10
g2
Ntp1703
Rp1704
(dp1705
g14
S'S'
p1706
sg16
(lp1707
F0.32304699999999997
asg18
(lp1708
(lp1709
F1.0
aasg21
S'\nO'
p1710
sbag0
(g10
g2
Ntp1711
Rp1712
(dp1713
g14
S'S'
p1714
sg16
(lp1715
F0.14422199999999999
asg18
(lp1716
(lp1717
F1.0
aasg21
S'\nO'
p1718
sbag0
(g10
g2
Ntp1719
Rp1720
(dp1721
g14
S'P'
p1722
sg16
(lp1723
F2113.5129999999999
asg18
(lp1724
(lp1725
F1.0
aasg21
S'\nO'
p1726
sbag0
(g10
g2
Ntp1727
Rp1728
(dp1729
g14
S'P'
p1730
sg16
(lp1731
F500.2799
asg18
(lp1732
(lp1733
F1.0
aasg21
S'\nO'
p1734
sbag0
(g10
g2
Ntp1735
Rp1736
(dp1737
g14
S'P'
p1738
sg16
(lp1739
F162.54480000000001
asg18
(lp1740
(lp1741
F1.0
aasg21
S'\nO'
p1742
sbag0
(g10
g2
Ntp1743
Rp1744
(dp1745
g14
S'P'
p1746
sg16
(lp1747
F62.213430000000002
asg18
(lp1748
(lp1749
F1.0
aasg21
S'\nO'
p1750
sbag0
(g10
g2
Ntp1751
Rp1752
(dp1753
g14
S'P'
p1754
sg16
(lp1755
F26.340140000000002
asg18
(lp1756
(lp1757
F1.0
aasg21
S'\nO'
p1758
sbag0
(g10
g2
Ntp1759
Rp1760
(dp1761
g14
S'P'
p1762
sg16
(lp1763
F11.90574
asg18
(lp1764
(lp1765
F1.0
aasg21
S'\nO'
p1766
sbag0
(g10
g2
Ntp1767
Rp1768
(dp1769
g14
S'P'
p1770
sg16
(lp1771
F5.6475939999999998
asg18
(lp1772
(lp1773
F1.0
aasg21
S'\nO'
p1774
sbag0
(g10
g2
Ntp1775
Rp1776
(dp1777
g14
S'P'
p1778
sg16
(lp1779
F2.7782140000000002
asg18
(lp1780
(lp1781
F1.0
aasg21
S'\nO'
p1782
sbag0
(g10
g2
Ntp1783
Rp1784
(dp1785
g14
S'P'
p1786
sg16
(lp1787
F1.39019
asg18
(lp1788
(lp1789
F1.0
aasg21
S'\nO'
p1790
sbag0
(g10
g2
Ntp1791
Rp1792
(dp1793
g14
S'P'
p1794
sg16
(lp1795
F0.69528100000000004
asg18
(lp1796
(lp1797
F1.0
aasg21
S'\nO'
p1798
sbag0
(g10
g2
Ntp1799
Rp1800
(dp1801
g14
S'P'
p1802
sg16
(lp1803
F0.344642
asg18
(lp1804
(lp1805
F1.0
aasg21
S'\nO'
p1806
sbag0
(g10
g2
Ntp1807
Rp1808
(dp1809
g14
S'P'
p1810
sg16
(lp1811
F0.16853799999999999
asg18
(lp1812
(lp1813
F1.0
aasg21
S'\nO'
p1814
sbag0
(g10
g2
Ntp1815
Rp1816
(dp1817
g14
S'P'
p1818
sg16
(lp1819
F0.079550999999999997
asg18
(lp1820
(lp1821
F1.0
aasg21
S'\nO'
p1822
sbag0
(g10
g2
Ntp1823
Rp1824
(dp1825
g14
S'D'
p1826
sg16
(lp1827
F8.2530000000000001
asg18
(lp1828
(lp1829
F1.0
aasg21
S'\nO'
p1830
sbag0
(g10
g2
Ntp1831
Rp1832
(dp1833
g14
S'D'
p1834
sg16
(lp1835
F3.597
asg18
(lp1836
(lp1837
F1.0
aasg21
S'\nO'
p1838
sbag0
(g10
g2
Ntp1839
Rp1840
(dp1841
g14
S'D'
p1842
sg16
(lp1843
F1.5680000000000001
asg18
(lp1844
(lp1845
F1.0
aasg21
S'\nO'
p1846
sbag0
(g10
g2
Ntp1847
Rp1848
(dp1849
g14
S'D'
p1850
sg16
(lp1851
F0.68400000000000005
asg18
(lp1852
(lp1853
F1.0
aasg21
S'\nO'
p1854
sbag0
(g10
g2
Ntp1855
Rp1856
(dp1857
g14
S'D'
p1858
sg16
(lp1859
F0.29799999999999999
asg18
(lp1860
(lp1861
F1.0
aasg21
S'\nO'
p1862
sbag0
(g10
g2
Ntp1863
Rp1864
(dp1865
g14
S'F'
p1866
sg16
(lp1867
F5.4299999999999997
asg18
(lp1868
(lp1869
F1.0
aasg21
S'\nO'
p1870
sbag0
(g10
g2
Ntp1871
Rp1872
(dp1873
g14
S'F'
p1874
sg16
(lp1875
F2.4159999999999999
asg18
(lp1876
(lp1877
F1.0
aasg21
S'\nO'
p1878
sbag0
(g10
g2
Ntp1879
Rp1880
(dp1881
g14
S'F'
p1882
sg16
(lp1883
F1.075
asg18
(lp1884
(lp1885
F1.0
aasg21
S'\nO'
p1886
sbag0
(g10
g2
Ntp1887
Rp1888
(dp1889
g14
S'F'
p1890
sg16
(lp1891
F0.47799999999999998
asg18
(lp1892
(lp1893
F1.0
aasg21
S'\nO'
p1894
sbag0
(g10
g2
Ntp1895
Rp1896
(dp1897
g14
S'G'
p1898
sg16
(lp1899
F5.2110000000000003
asg18
(lp1900
(lp1901
F1.0
aasg21
S'\nO'
p1902
sbag0
(g10
g2
Ntp1903
Rp1904
(dp1905
g14
S'G'
p1906
sg16
(lp1907
F2.1899999999999999
asg18
(lp1908
(lp1909
F1.0
aasg21
S'\nO'
p1910
sbag0
(g10
g2
Ntp1911
Rp1912
(dp1913
g14
S'G'
p1914
sg16
(lp1915
F0.92000000000000004
asg18
(lp1916
(lp1917
F1.0
aasg21
S'\nO'
p1918
sbag0
(g10
g2
Ntp1919
Rp1920
(dp1921
g14
S'H'
p1922
sg16
(lp1923
F3.8719999999999999
asg18
(lp1924
(lp1925
F1.0
aasg21
S'\nO'
p1926
sbag0
(g10
g2
Ntp1927
Rp1928
(dp1929
g14
S'H'
p1930
sg16
(lp1931
F1.5049999999999999
asg18
(lp1932
(lp1933
F1.0
aasg21
S'\nO'
p1934
sbag0
(g10
g2
Ntp1935
Rp1936
(dp1937
g14
S'I'
p1938
sg16
(lp1939
F2.7730000000000001
asg18
(lp1940
(lp1941
F1.0
aasg21
S'\nO'
p1942
sbag0
(g10
g2
Ntp1943
Rp1944
(dp1945
g14
S'D'
p1946
sg16
(lp1947
F0.115
asg18
(lp1948
(lp1949
F1.0
aasg21
S'\nO'
p1950
sbag0
(g10
g2
Ntp1951
Rp1952
(dp1953
g14
S'F'
p1954
sg16
(lp1955
F0.19500000000000001
asg18
(lp1956
(lp1957
F1.0
aasg21
S'\nO'
p1958
sbag0
(g10
g2
Ntp1959
Rp1960
(dp1961
g14
S'G'
p1962
sg16
(lp1963
F0.40600000000000003
asg18
(lp1964
(lp1965
F1.0
aasg21
S'\nO'
p1966
sbag0
(g10
g2
Ntp1967
Rp1968
(dp1969
g14
S'H'
p1970
sg16
(lp1971
F0.748
asg18
(lp1972
(lp1973
F1.0
aasg21
S'\nO'
p1974
sbag0
(g10
g2
Ntp1975
Rp1976
(dp1977
g14
S'I'
p1978
sg16
(lp1979
F1.345
asg18
(lp1980
(lp1981
F1.0
aasg21
S'\nO'
p1982
sbag0
(g10
g2
Ntp1983
Rp1984
(dp1985
g14
S'S'
p1986
sg16
(lp1987
F0.065000000000000002
asg18
(lp1988
(lp1989
F1.0
aasg21
S'\nO'
p1990
sbag0
(g10
g2
Ntp1991
Rp1992
(dp1993
g14
S'P'
p1994
sg16
(lp1995
F0.040000000000000001
asg18
(lp1996
(lp1997
F1.0
aasg21
S'\nO'
p1998
sbag0
(g10
g2
Ntp1999
Rp2000
(dp2001
g14
S'D'
p2002
sg16
(lp2003
F43.399999999999999
asg18
(lp2004
(lp2005
F1.0
aasg21
S'\nO'
p2006
sbag0
(g10
g2
Ntp2007
Rp2008
(dp2009
g14
S'D'
p2010
sg16
(lp2011
F18.899999999999999
asg18
(lp2012
(lp2013
F1.0
aasg21
S'\nO'
p2014
sbag0
(g10
g2
Ntp2015
Rp2016
(dp2017
g14
S'F'
p2018
sg16
(lp2019
F12.199999999999999
asg18
(lp2020
(lp2021
F1.0
aasg21
S'\nO'
p2022
sbasS'N'
p2023
(lp2024
g0
(g10
g2
Ntp2025
Rp2026
(dp2027
g14
S'S'
p2028
sg16
(lp2029
F1296296.0
asg18
(lp2030
(lp2031
F1.0
aasg21
S'\nN'
p2032
sbag0
(g10
g2
Ntp2033
Rp2034
(dp2035
g14
S'S'
p2036
sg16
(lp2037
F194068.60000000001
asg18
(lp2038
(lp2039
F1.0
aasg21
S'\nN'
p2040
sbag0
(g10
g2
Ntp2041
Rp2042
(dp2043
g14
S'S'
p2044
sg16
(lp2045
F44160.57
asg18
(lp2046
(lp2047
F1.0
aasg21
S'\nN'
p2048
sbag0
(g10
g2
Ntp2049
Rp2050
(dp2051
g14
S'S'
p2052
sg16
(lp2053
F12507.719999999999
asg18
(lp2054
(lp2055
F1.0
aasg21
S'\nN'
p2056
sbag0
(g10
g2
Ntp2057
Rp2058
(dp2059
g14
S'S'
p2060
sg16
(lp2061
F4080.4760000000001
asg18
(lp2062
(lp2063
F1.0
aasg21
S'\nN'
p2064
sbag0
(g10
g2
Ntp2065
Rp2066
(dp2067
g14
S'S'
p2068
sg16
(lp2069
F1473.1400000000001
asg18
(lp2070
(lp2071
F1.0
aasg21
S'\nN'
p2072
sbag0
(g10
g2
Ntp2073
Rp2074
(dp2075
g14
S'S'
p2076
sg16
(lp2077
F574.60659999999996
asg18
(lp2078
(lp2079
F1.0
aasg21
S'\nN'
p2080
sbag0
(g10
g2
Ntp2081
Rp2082
(dp2083
g14
S'S'
p2084
sg16
(lp2085
F238.37
asg18
(lp2086
(lp2087
F1.0
aasg21
S'\nN'
p2088
sbag0
(g10
g2
Ntp2089
Rp2090
(dp2091
g14
S'S'
p2092
sg16
(lp2093
F103.9936
asg18
(lp2094
(lp2095
F1.0
aasg21
S'\nN'
p2096
sbag0
(g10
g2
Ntp2097
Rp2098
(dp2099
g14
S'S'
p2100
sg16
(lp2101
F47.279440000000001
asg18
(lp2102
(lp2103
F1.0
aasg21
S'\nN'
p2104
sbag0
(g10
g2
Ntp2105
Rp2106
(dp2107
g14
S'S'
p2108
sg16
(lp2109
F22.218710000000002
asg18
(lp2110
(lp2111
F1.0
aasg21
S'\nN'
p2112
sbag0
(g10
g2
Ntp2113
Rp2114
(dp2115
g14
S'S'
p2116
sg16
(lp2117
F10.73569
asg18
(lp2118
(lp2119
F1.0
aasg21
S'\nN'
p2120
sbag0
(g10
g2
Ntp2121
Rp2122
(dp2123
g14
S'S'
p2124
sg16
(lp2125
F5.3088559999999996
asg18
(lp2126
(lp2127
F1.0
aasg21
S'\nN'
p2128
sbag0
(g10
g2
Ntp2129
Rp2130
(dp2131
g14
S'S'
p2132
sg16
(lp2133
F2.6391770000000001
asg18
(lp2134
(lp2135
F1.0
aasg21
S'\nN'
p2136
sbag0
(g10
g2
Ntp2137
Rp2138
(dp2139
g14
S'S'
p2140
sg16
(lp2141
F1.165764
asg18
(lp2142
(lp2143
F1.0
aasg21
S'\nN'
p2144
sbag0
(g10
g2
Ntp2145
Rp2146
(dp2147
g14
S'S'
p2148
sg16
(lp2149
F0.53709099999999999
asg18
(lp2150
(lp2151
F1.0
aasg21
S'\nN'
p2152
sbag0
(g10
g2
Ntp2153
Rp2154
(dp2155
g14
S'S'
p2156
sg16
(lp2157
F0.24490400000000001
asg18
(lp2158
(lp2159
F1.0
aasg21
S'\nN'
p2160
sbag0
(g10
g2
Ntp2161
Rp2162
(dp2163
g14
S'S'
p2164
sg16
(lp2165
F0.11027099999999999
asg18
(lp2166
(lp2167
F1.0
aasg21
S'\nN'
p2168
sbag0
(g10
g2
Ntp2169
Rp2170
(dp2171
g14
S'P'
p2172
sg16
(lp2173
F1570.277
asg18
(lp2174
(lp2175
F1.0
aasg21
S'\nN'
p2176
sbag0
(g10
g2
Ntp2177
Rp2178
(dp2179
g14
S'P'
p2180
sg16
(lp2181
F373.30399999999997
asg18
(lp2182
(lp2183
F1.0
aasg21
S'\nN'
p2184
sbag0
(g10
g2
Ntp2185
Rp2186
(dp2187
g14
S'P'
p2188
sg16
(lp2189
F121.9628
asg18
(lp2190
(lp2191
F1.0
aasg21
S'\nN'
p2192
sbag0
(g10
g2
Ntp2193
Rp2194
(dp2195
g14
S'P'
p2196
sg16
(lp2197
F46.960090000000001
asg18
(lp2198
(lp2199
F1.0
aasg21
S'\nN'
p2200
sbag0
(g10
g2
Ntp2201
Rp2202
(dp2203
g14
S'P'
p2204
sg16
(lp2205
F19.993230000000001
asg18
(lp2206
(lp2207
F1.0
aasg21
S'\nN'
p2208
sbag0
(g10
g2
Ntp2209
Rp2210
(dp2211
g14
S'P'
p2212
sg16
(lp2213
F9.0761430000000001
asg18
(lp2214
(lp2215
F1.0
aasg21
S'\nN'
p2216
sbag0
(g10
g2
Ntp2217
Rp2218
(dp2219
g14
S'P'
p2220
sg16
(lp2221
F4.318022
asg18
(lp2222
(lp2223
F1.0
aasg21
S'\nN'
p2224
sbag0
(g10
g2
Ntp2225
Rp2226
(dp2227
g14
S'P'
p2228
sg16
(lp2229
F2.1331790000000002
asg18
(lp2230
(lp2231
F1.0
aasg21
S'\nN'
p2232
sbag0
(g10
g2
Ntp2233
Rp2234
(dp2235
g14
S'P'
p2236
sg16
(lp2237
F1.076317
asg18
(lp2238
(lp2239
F1.0
aasg21
S'\nN'
p2240
sbag0
(g10
g2
Ntp2241
Rp2242
(dp2243
g14
S'P'
p2244
sg16
(lp2245
F0.54566400000000004
asg18
(lp2246
(lp2247
F1.0
aasg21
S'\nN'
p2248
sbag0
(g10
g2
Ntp2249
Rp2250
(dp2251
g14
S'P'
p2252
sg16
(lp2253
F0.27567799999999998
asg18
(lp2254
(lp2255
F1.0
aasg21
S'\nN'
p2256
sbag0
(g10
g2
Ntp2257
Rp2258
(dp2259
g14
S'P'
p2260
sg16
(lp2261
F0.13792599999999999
asg18
(lp2262
(lp2263
F1.0
aasg21
S'\nN'
p2264
sbag0
(g10
g2
Ntp2265
Rp2266
(dp2267
g14
S'P'
p2268
sg16
(lp2269
F0.066744999999999999
asg18
(lp2270
(lp2271
F1.0
aasg21
S'\nN'
p2272
sbag0
(g10
g2
Ntp2273
Rp2274
(dp2275
g14
S'D'
p2276
sg16
(lp2277
F6.7169999999999996
asg18
(lp2278
(lp2279
F1.0
aasg21
S'\nN'
p2280
sbag0
(g10
g2
Ntp2281
Rp2282
(dp2283
g14
S'D'
p2284
sg16
(lp2285
F2.8959999999999999
asg18
(lp2286
(lp2287
F1.0
aasg21
S'\nN'
p2288
sbag0
(g10
g2
Ntp2289
Rp2290
(dp2291
g14
S'D'
p2292
sg16
(lp2293
F1.2490000000000001
asg18
(lp2294
(lp2295
F1.0
aasg21
S'\nN'
p2296
sbag0
(g10
g2
Ntp2297
Rp2298
(dp2299
g14
S'D'
p2300
sg16
(lp2301
F0.53800000000000003
asg18
(lp2302
(lp2303
F1.0
aasg21
S'\nN'
p2304
sbag0
(g10
g2
Ntp2305
Rp2306
(dp2307
g14
S'D'
p2308
sg16
(lp2309
F0.23200000000000001
asg18
(lp2310
(lp2311
F1.0
aasg21
S'\nN'
p2312
sbag0
(g10
g2
Ntp2313
Rp2314
(dp2315
g14
S'F'
p2316
sg16
(lp2317
F3.8290000000000002
asg18
(lp2318
(lp2319
F1.0
aasg21
S'\nN'
p2320
sbag0
(g10
g2
Ntp2321
Rp2322
(dp2323
g14
S'F'
p2324
sg16
(lp2325
F1.7949999999999999
asg18
(lp2326
(lp2327
F1.0
aasg21
S'\nN'
p2328
sbag0
(g10
g2
Ntp2329
Rp2330
(dp2331
g14
S'F'
p2332
sg16
(lp2333
F0.84099999999999997
asg18
(lp2334
(lp2335
F1.0
aasg21
S'\nN'
p2336
sbag0
(g10
g2
Ntp2337
Rp2338
(dp2339
g14
S'F'
p2340
sg16
(lp2341
F0.39400000000000002
asg18
(lp2342
(lp2343
F1.0
aasg21
S'\nN'
p2344
sbag0
(g10
g2
Ntp2345
Rp2346
(dp2347
g14
S'G'
p2348
sg16
(lp2349
F3.8559999999999999
asg18
(lp2350
(lp2351
F1.0
aasg21
S'\nN'
p2352
sbag0
(g10
g2
Ntp2353
Rp2354
(dp2355
g14
S'G'
p2356
sg16
(lp2357
F1.702
asg18
(lp2358
(lp2359
F1.0
aasg21
S'\nN'
p2360
sbag0
(g10
g2
Ntp2361
Rp2362
(dp2363
g14
S'G'
p2364
sg16
(lp2365
F0.751
asg18
(lp2366
(lp2367
F1.0
aasg21
S'\nN'
p2368
sbag0
(g10
g2
Ntp2369
Rp2370
(dp2371
g14
S'H'
p2372
sg16
(lp2373
F2.875
asg18
(lp2374
(lp2375
F1.0
aasg21
S'\nN'
p2376
sbag0
(g10
g2
Ntp2377
Rp2378
(dp2379
g14
S'H'
p2380
sg16
(lp2381
F1.1699999999999999
asg18
(lp2382
(lp2383
F1.0
aasg21
S'\nN'
p2384
sbag0
(g10
g2
Ntp2385
Rp2386
(dp2387
g14
S'I'
p2388
sg16
(lp2389
F2.0990000000000002
asg18
(lp2390
(lp2391
F1.0
aasg21
S'\nN'
p2392
sbag0
(g10
g2
Ntp2393
Rp2394
(dp2395
g14
S'D'
p2396
sg16
(lp2397
F0.087400000000000005
asg18
(lp2398
(lp2399
F1.0
aasg21
S'\nN'
p2400
sbag0
(g10
g2
Ntp2401
Rp2402
(dp2403
g14
S'F'
p2404
sg16
(lp2405
F0.151
asg18
(lp2406
(lp2407
F1.0
aasg21
S'\nN'
p2408
sbag0
(g10
g2
Ntp2409
Rp2410
(dp2411
g14
S'G'
p2412
sg16
(lp2413
F0.32600000000000001
asg18
(lp2414
(lp2415
F1.0
aasg21
S'\nN'
p2416
sbag0
(g10
g2
Ntp2417
Rp2418
(dp2419
g14
S'H'
p2420
sg16
(lp2421
F0.58699999999999997
asg18
(lp2422
(lp2423
F1.0
aasg21
S'\nN'
p2424
sbag0
(g10
g2
Ntp2425
Rp2426
(dp2427
g14
S'I'
p2428
sg16
(lp2429
F1.0409999999999999
asg18
(lp2430
(lp2431
F1.0
aasg21
S'\nN'
p2432
sbag0
(g10
g2
Ntp2433
Rp2434
(dp2435
g14
S'S'
p2436
sg16
(lp2437
F0.050000000000000003
asg18
(lp2438
(lp2439
F1.0
aasg21
S'\nN'
p2440
sbag0
(g10
g2
Ntp2441
Rp2442
(dp2443
g14
S'P'
p2444
sg16
(lp2445
F0.029999999999999999
asg18
(lp2446
(lp2447
F1.0
aasg21
S'\nN'
p2448
sbag0
(g10
g2
Ntp2449
Rp2450
(dp2451
g14
S'D'
p2452
sg16
(lp2453
F36.100000000000001
asg18
(lp2454
(lp2455
F1.0
aasg21
S'\nN'
p2456
sbag0
(g10
g2
Ntp2457
Rp2458
(dp2459
g14
S'D'
p2460
sg16
(lp2461
F15.6
asg18
(lp2462
(lp2463
F1.0
aasg21
S'\nN'
p2464
sbag0
(g10
g2
Ntp2465
Rp2466
(dp2467
g14
S'F'
p2468
sg16
(lp2469
F8.1699999999999999
asg18
(lp2470
(lp2471
F1.0
aasg21
S'\nN'
p2472
sbassb.