ccopy_reg
_reconstructor
p0
(cbasisset
BasisSet
p1
c__builtin__
object
p2
Ntp3
Rp4
(dp5
S'basisDictionary'
p6
(dp7
S'H'
p8
(lp9
g0
(cbasisset
Shell
p10
g2
Ntp11
Rp12
(dp13
S'angularMomentum'
p14
S'S'
p15
sS'exponents'
p16
(lp17
F33.869999999999997
aF5.0949999999999998
aF1.159
asS'coefficients'
p18
(lp19
(lp20
F0.0060679999999999996
aF0.045308000000000001
aF0.202822
aasS'atom'
p21
S' H'
p22
sbag0
(g10
g2
Ntp23
Rp24
(dp25
g14
S'S'
p26
sg16
(lp27
F0.32579999999999998
asg18
(lp28
(lp29
F1.0
aasg21
S' H'
p30
sbag0
(g10
g2
Ntp31
Rp32
(dp33
g14
S'S'
p34
sg16
(lp35
F0.1027
asg18
(lp36
(lp37
F1.0
aasg21
S' H'
p38
sbag0
(g10
g2
Ntp39
Rp40
(dp41
g14
S'P'
p42
sg16
(lp43
F1.407
asg18
(lp44
(lp45
F1.0
aasg21
S' H'
p46
sbag0
(g10
g2
Ntp47
Rp48
(dp49
g14
S'P'
p50
sg16
(lp51
F0.38800000000000001
asg18
(lp52
(lp53
F1.0
aasg21
S' H'
p54
sbag0
(g10
g2
Ntp55
Rp56
(dp57
g14
S'D'
p58
sg16
(lp59
F1.0569999999999999
asg18
(lp60
(lp61
F1.0
aasg21
S' H'
p62
sbasS'C'
p63
(lp64
g0
(g10
g2
Ntp65
Rp66
(dp67
g14
S'S'
p68
sg16
(lp69
F8236.0
aF1235.0
aF280.80000000000001
aF79.269999999999996
aF25.59
aF8.9969999999999999
aF3.319
aF0.36430000000000001
asg18
(lp70
(lp71
F0.000531
aF0.0041079999999999997
aF0.021087000000000002
aF0.081852999999999995
aF0.234817
aF0.43440099999999998
aF0.34612900000000002
aF-0.0089829999999999997
aa(lp72
F-0.000113
aF-0.00087799999999999998
aF-0.0045399999999999998
aF-0.018133
aF-0.055759999999999997
aF-0.12689500000000001
aF-0.170352
aF0.59868399999999999
aasg21
S' C'
p73
sbag0
(g10
g2
Ntp74
Rp75
(dp76
g14
S'S'
p77
sg16
(lp78
F0.90590000000000004
asg18
(lp79
(lp80
F1.0
aasg21
S' C'
p81
sbag0
(g10
g2
Ntp82
Rp83
(dp84
g14
S'S'
p85
sg16
(lp86
F0.1285
asg18
(lp87
(lp88
F1.0
aasg21
S' C'
p89
sbag0
(g10
g2
Ntp90
Rp91
(dp92
g14
S'P'
p93
sg16
(lp94
F18.710000000000001
aF4.133
aF1.2
asg18
(lp95
(lp96
F0.014031
aF0.086865999999999999
aF0.29021599999999997
aasg21
S' C'
p97
sbag0
(g10
g2
Ntp98
Rp99
(dp100
g14
S'P'
p101
sg16
(lp102
F0.38269999999999998
asg18
(lp103
(lp104
F1.0
aasg21
S' C'
p105
sbag0
(g10
g2
Ntp106
Rp107
(dp108
g14
S'P'
p109
sg16
(lp110
F0.12089999999999999
asg18
(lp111
(lp112
F1.0
aasg21
S' C'
p113
sbag0
(g10
g2
Ntp114
Rp115
(dp116
g14
S'D'
p117
sg16
(lp118
F1.097
asg18
(lp119
(lp120
F1.0
aasg21
S' C'
p121
sbag0
(g10
g2
Ntp122
Rp123
(dp124
g14
S'D'
p125
sg16
(lp126
F0.318
asg18
(lp127
(lp128
F1.0
aasg21
S' C'
p129
sbag0
(g10
g2
Ntp130
Rp131
(dp132
g14
S'F'
p133
sg16
(lp134
F0.76100000000000001
asg18
(lp135
(lp136
F1.0
aasg21
S' C'
p137
sbasS'S'
p138
(lp139
g0
(g10
g2
Ntp140
Rp141
(dp142
g14
S'S'
p143
sg16
(lp144
F374100.0
aF56050.0
aF12760.0
aF3615.0
aF1183.0
aF428.80000000000001
aF167.80000000000001
aF69.469999999999999
aF29.84
aF12.720000000000001
aF5.2439999999999998
aF2.2189999999999999
aF0.34899999999999998
asg18
(lp145
(lp146
F5.4214e-05
aF0.00042085499999999998
aF0.0022069799999999999
aF0.0091925800000000005
aF0.032112300000000003
aF0.094668299999999997
aF0.22363
aF0.37439299999999998
aF0.32910800000000001
aF0.084703799999999996
aF0.00044085100000000002
aF0.0016482700000000001
aF0.00030130599999999999
aa(lp147
F-1.49837e-05
aF-0.000116198
aF-0.00061158299999999996
aF-0.0025536999999999999
aF-0.0090870800000000009
aF-0.0277045
aF-0.072001999999999997
aF-0.14643900000000001
aF-0.19514999999999999
aF0.00819193
aF0.51660099999999998
aF0.54217800000000005
aF-0.0091807199999999999
aa(lp148
F4.3506600000000003e-06
aF3.3714000000000003e-05
aF0.00017767400000000001
aF0.000741116
aF0.00264591
aF0.0080748699999999996
aF0.021227599999999999
aF0.043832299999999998
aF0.061271600000000002
aF-0.0036151
aF-0.20451
aF-0.38187100000000002
aF0.71414699999999998
aasg21
S' S'
p149
sbag0
(g10
g2
Ntp150
Rp151
(dp152
g14
S'S'
p153
sg16
(lp154
F0.77669999999999995
asg18
(lp155
(lp156
F1.0
aasg21
S' S'
p157
sbag0
(g10
g2
Ntp158
Rp159
(dp160
g14
S'S'
p161
sg16
(lp162
F0.13220000000000001
asg18
(lp163
(lp164
F1.0
aasg21
S' S'
p165
sbag0
(g10
g2
Ntp166
Rp167
(dp168
g14
S'P'
p169
sg16
(lp170
F574.39999999999998
aF135.80000000000001
aF43.189999999999998
aF15.869999999999999
aF6.2080000000000002
aF2.4830000000000001
aF0.32290000000000002
asg18
(lp171
(lp172
F0.0024226400000000002
aF0.019279600000000001
aF0.088540099999999997
aF0.25465399999999999
aF0.43398399999999998
aF0.35495300000000002
aF-0.0050297700000000002
aa(lp173
F-0.00062010199999999998
aF-0.00493882
aF-0.023264699999999999
aF-0.068519499999999997
aF-0.12389600000000001
aF-0.096949900000000006
aF0.56939399999999996
aasg21
S' S'
p174
sbag0
(g10
g2
Ntp175
Rp176
(dp177
g14
S'P'
p178
sg16
(lp179
F0.86880000000000002
asg18
(lp180
(lp181
F1.0
aasg21
S' S'
p182
sbag0
(g10
g2
Ntp183
Rp184
(dp185
g14
S'P'
p186
sg16
(lp187
F0.10979999999999999
asg18
(lp188
(lp189
F1.0
aasg21
S' S'
p190
sbag0
(g10
g2
Ntp191
Rp192
(dp193
g14
S'D'
p194
sg16
(lp195
F0.26900000000000002
asg18
(lp196
(lp197
F1.0
aasg21
S' S'
p198
sbag0
(g10
g2
Ntp199
Rp200
(dp201
g14
S'D'
p202
sg16
(lp203
F0.81899999999999995
asg18
(lp204
(lp205
F1.0
aasg21
S' S'
p206
sbag0
(g10
g2
Ntp207
Rp208
(dp209
g14
S'F'
p210
sg16
(lp211
F0.55700000000000005
asg18
(lp212
(lp213
F1.0
aasg21
S' S'
p214
sbasS'O'
p215
(lp216
g0
(g10
g2
Ntp217
Rp218
(dp219
g14
S'S'
p220
sg16
(lp221
F15330.0
aF2299.0
aF522.39999999999998
aF147.30000000000001
aF47.549999999999997
aF16.760000000000002
aF6.2069999999999999
aF0.68820000000000003
asg18
(lp222
(lp223
F0.00050799999999999999
aF0.0039290000000000002
aF0.020243000000000001
aF0.079181000000000001
aF0.230687
aF0.433118
aF0.35026000000000002
aF-0.0081539999999999998
aa(lp224
F-0.000115
aF-0.00089499999999999996
aF-0.0046360000000000004
aF-0.018724000000000001
aF-0.058463000000000001
aF-0.136463
aF-0.17574000000000001
aF0.60341800000000001
aasg21
S' O'
p225
sbag0
(g10
g2
Ntp226
Rp227
(dp228
g14
S'S'
p229
sg16
(lp230
F1.752
asg18
(lp231
(lp232
F1.0
aasg21
S' O'
p233
sbag0
(g10
g2
Ntp234
Rp235
(dp236
g14
S'S'
p237
sg16
(lp238
F0.2384
asg18
(lp239
(lp240
F1.0
aasg21
S' O'
p241
sbag0
(g10
g2
Ntp242
Rp243
(dp244
g14
S'P'
p245
sg16
(lp246
F34.460000000000001
aF7.7489999999999997
aF2.2799999999999998
asg18
(lp247
(lp248
F0.015928000000000001
aF0.099739999999999995
aF0.31049199999999999
aasg21
S' O'
p249
sbag0
(g10
g2
Ntp250
Rp251
(dp252
g14
S'P'
p253
sg16
(lp254
F0.71560000000000001
asg18
(lp255
(lp256
F1.0
aasg21
S' O'
p257
sbag0
(g10
g2
Ntp258
Rp259
(dp260
g14
S'P'
p261
sg16
(lp262
F0.214
asg18
(lp263
(lp264
F1.0
aasg21
S' O'
p265
sbag0
(g10
g2
Ntp266
Rp267
(dp268
g14
S'D'
p269
sg16
(lp270
F2.3140000000000001
asg18
(lp271
(lp272
F1.0
aasg21
S' O'
p273
sbag0
(g10
g2
Ntp274
Rp275
(dp276
g14
S'D'
p277
sg16
(lp278
F0.64500000000000002
asg18
(lp279
(lp280
F1.0
aasg21
S' O'
p281
sbag0
(g10
g2
Ntp282
Rp283
(dp284
g14
S'F'
p285
sg16
(lp286
F1.4279999999999999
asg18
(lp287
(lp288
F1.0
aasg21
S' O'
p289
sbasS'N'
p290
(lp291
g0
(g10
g2
Ntp292
Rp293
(dp294
S'angularMomentum'
p295
S'S'
p296
sS'exponents'
p297
(lp298
F11420.0
asS'coefficients'
p299
(lp300
(lp301
F1.0
aasS'atom'
p302
S' N'
p303
sbag0
(g10
g2
Ntp304
Rp305
(dp306
g295
S'S'
p307
sg297
(lp308
F1712.0
asg299
(lp309
(lp310
F1.0
aasg302
S' N'
p311
sbag0
(g10
g2
Ntp312
Rp313
(dp314
g295
S'S'
p315
sg297
(lp316
F389.30000000000001
asg299
(lp317
(lp318
F1.0
aasg302
S' N'
p319
sbag0
(g10
g2
Ntp320
Rp321
(dp322
g295
S'S'
p323
sg297
(lp324
F110.0
asg299
(lp325
(lp326
F1.0
aasg302
S' N'
p327
sbag0
(g10
g2
Ntp328
Rp329
(dp330
g295
S'S'
p331
sg297
(lp332
F35.57
asg299
(lp333
(lp334
F1.0
aasg302
S' N'
p335
sbag0
(g10
g2
Ntp336
Rp337
(dp338
g295
S'S'
p339
sg297
(lp340
F12.539999999999999
asg299
(lp341
(lp342
F1.0
aasg302
S' N'
p343
sbag0
(g10
g2
Ntp344
Rp345
(dp346
g295
S'S'
p347
sg297
(lp348
F4.6440000000000001
asg299
(lp349
(lp350
F1.0
aasg302
S' N'
p351
sbag0
(g10
g2
Ntp352
Rp353
(dp354
g295
S'S'
p355
sg297
(lp356
F0.51180000000000003
asg299
(lp357
(lp358
F1.0
aasg302
S' N'
p359
sbag0
(g10
g2
Ntp360
Rp361
(dp362
g295
S'S'
p363
sg297
(lp364
F1.2929999999999999
asg299
(lp365
(lp366
F1.0
aasg302
S' N'
p367
sbag0
(g10
g2
Ntp368
Rp369
(dp370
g295
S'S'
p371
sg297
(lp372
F0.1787
asg299
(lp373
(lp374
F1.0
aasg302
S' N'
p375
sbag0
(g10
g2
Ntp376
Rp377
(dp378
g295
S'P'
p379
sg297
(lp380
F26.629999999999999
asg299
(lp381
(lp382
F1.0
aasg302
S' N'
p383
sbag0
(g10
g2
Ntp384
Rp385
(dp386
g295
S'P'
p387
sg297
(lp388
F5.9480000000000004
asg299
(lp389
(lp390
F1.0
aasg302
S' N'
p391
sbag0
(g10
g2
Ntp392
Rp393
(dp394
g295
S'P'
p395
sg297
(lp396
F1.742
asg299
(lp397
(lp398
F1.0
aasg302
S' N'
p399
sbag0
(g10
g2
Ntp400
Rp401
(dp402
g295
S'P'
p403
sg297
(lp404
F0.55500000000000005
asg299
(lp405
(lp406
F1.0
aasg302
S' N'
p407
sbag0
(g10
g2
Ntp408
Rp409
(dp410
g295
S'P'
p411
sg297
(lp412
F0.17249999999999999
asg299
(lp413
(lp414
F1.0
aasg302
S' N'
p415
sbag0
(g10
g2
Ntp416
Rp417
(dp418
g295
S'D'
p419
sg297
(lp420
F1.6539999999999999
asg299
(lp421
(lp422
F1.0
aasg302
S' N'
p423
sbag0
(g10
g2
Ntp424
Rp425
(dp426
g295
S'D'
p427
sg297
(lp428
F0.46899999999999997
asg299
(lp429
(lp430
F1.0
aasg302
S' N'
p431
sbag0
(g10
g2
Ntp432
Rp433
(dp434
g295
S'F'
p435
sg297
(lp436
F1.093
asg299
(lp437
(lp438
F1.0
aasg302
S' N'
p439
sbag0
(g10
g2
Ntp440
Rp441
(dp442
g295
S'S'
p443
sg297
(lp444
F5.952
asg299
(lp445
(lp446
F1.0
aasg302
S' N'
p447
sbag0
(g10
g2
Ntp448
Rp449
(dp450
g295
S'S'
p451
sg297
(lp452
F16.201000000000001
asg299
(lp453
(lp454
F1.0
aasg302
S' N'
p455
sbag0
(g10
g2
Ntp456
Rp457
(dp458
g295
S'P'
p459
sg297
(lp460
F11.871
asg299
(lp461
(lp462
F1.0
aasg302
S' N'
p463
sbag0
(g10
g2
Ntp464
Rp465
(dp466
g295
S'P'
p467
sg297
(lp468
F44.848999999999997
asg299
(lp469
(lp470
F1.0
aasg302
S' N'
p471
sbag0
(g10
g2
Ntp472
Rp473
(dp474
g295
S'D'
p475
sg297
(lp476
F14.199999999999999
asg299
(lp477
(lp478
F1.0
aasg302
S' N'
p479
sbassb.