(ibasisset
BasisSet
p0
(dp1
S'basisDictionary'
p2
(dp3
S'LI'
p4
(iBasisSets
AtomBasis
p5
(dp6
S'basisDictionary'
p7
(dp8
S'S'
p9
(lp10
(iBasisSets
BasisFunction
p11
(dp12
S'coefficientList'
p13
(lp14
F1.0
asS'primitiveList'
p15
(lp16
(iBasisSets
PrimitiveFunction
p17
(dp18
S'exponent'
p19
F29493.0
sS'angularMomentum'
p20
S'S'
p21
sbasg20
S'S'
p22
sba(iBasisSets
BasisFunction
p23
(dp24
g13
(lp25
F1.0
asg15
(lp26
(iBasisSets
PrimitiveFunction
p27
(dp28
g19
F4417.1009999999997
sg20
S'S'
p29
sbasg20
S'S'
p30
sba(iBasisSets
BasisFunction
p31
(dp32
g13
(lp33
F1.0
asg15
(lp34
(iBasisSets
PrimitiveFunction
p35
(dp36
g19
F1005.223
sg20
S'S'
p37
sbasg20
S'S'
p38
sba(iBasisSets
BasisFunction
p39
(dp40
g13
(lp41
F1.0
asg15
(lp42
(iBasisSets
PrimitiveFunction
p43
(dp44
g19
F284.70089999999999
sg20
S'S'
p45
sbasg20
S'S'
p46
sba(iBasisSets
BasisFunction
p47
(dp48
g13
(lp49
F1.0
asg15
(lp50
(iBasisSets
PrimitiveFunction
p51
(dp52
g19
F92.865430000000003
sg20
S'S'
p53
sbasg20
S'S'
p54
sba(iBasisSets
BasisFunction
p55
(dp56
g13
(lp57
F1.0
asg15
(lp58
(iBasisSets
PrimitiveFunction
p59
(dp60
g19
F33.511789999999998
sg20
S'S'
p61
sbasg20
S'S'
p62
sba(iBasisSets
BasisFunction
p63
(dp64
g13
(lp65
F1.0
asg15
(lp66
(iBasisSets
PrimitiveFunction
p67
(dp68
g19
F13.0418
sg20
S'S'
p69
sbasg20
S'S'
p70
sba(iBasisSets
BasisFunction
p71
(dp72
g13
(lp73
F1.0
asg15
(lp74
(iBasisSets
PrimitiveFunction
p75
(dp76
g19
F5.3575359999999996
sg20
S'S'
p77
sbasg20
S'S'
p78
sba(iBasisSets
BasisFunction
p79
(dp80
g13
(lp81
F1.0
asg15
(lp82
(iBasisSets
PrimitiveFunction
p83
(dp84
g19
F2.2793380000000001
sg20
S'S'
p85
sbasg20
S'S'
p86
sba(iBasisSets
BasisFunction
p87
(dp88
g13
(lp89
F1.0
asg15
(lp90
(iBasisSets
PrimitiveFunction
p91
(dp92
g19
F0.99399000000000004
sg20
S'S'
p93
sbasg20
S'S'
p94
sba(iBasisSets
BasisFunction
p95
(dp96
g13
(lp97
F1.0
asg15
(lp98
(iBasisSets
PrimitiveFunction
p99
(dp100
g19
F0.433471
sg20
S'S'
p101
sbasg20
S'S'
p102
sba(iBasisSets
BasisFunction
p103
(dp104
g13
(lp105
F1.0
asg15
(lp106
(iBasisSets
PrimitiveFunction
p107
(dp108
g19
F0.095565999999999998
sg20
S'S'
p109
sbasg20
S'S'
p110
sba(iBasisSets
BasisFunction
p111
(dp112
g13
(lp113
F1.0
asg15
(lp114
(iBasisSets
PrimitiveFunction
p115
(dp116
g19
F0.044657000000000002
sg20
S'S'
p117
sbasg20
S'S'
p118
sba(iBasisSets
BasisFunction
p119
(dp120
g13
(lp121
F1.0
asg15
(lp122
(iBasisSets
PrimitiveFunction
p123
(dp124
g19
F0.020632999999999999
sg20
S'S'
p125
sbasg20
S'S'
p126
sbassbssb.