(ibasisset
BasisSet
p0
(dp1
S'basisDictionary'
p2
(dp3
S'LI'
p4
(iBasisSets
AtomBasis
p5
(dp6
S'basisDictionary'
p7
(dp8
S'S'
p9
(lp10
(iBasisSets
BasisFunction
p11
(dp12
S'coefficientList'
p13
(lp14
F1.0
asS'primitiveList'
p15
(lp16
(iBasisSets
PrimitiveFunction
p17
(dp18
S'exponent'
p19
F5988.0
sS'angularMomentum'
p20
S'S'
p21
sbasg20
S'S'
p22
sba(iBasisSets
BasisFunction
p23
(dp24
g13
(lp25
F1.0
asg15
(lp26
(iBasisSets
PrimitiveFunction
p27
(dp28
g19
F898.89999999999998
sg20
S'S'
p29
sbasg20
S'S'
p30
sba(iBasisSets
BasisFunction
p31
(dp32
g13
(lp33
F1.0
asg15
(lp34
(iBasisSets
PrimitiveFunction
p35
(dp36
g19
F205.90000000000001
sg20
S'S'
p37
sbasg20
S'S'
p38
sba(iBasisSets
BasisFunction
p39
(dp40
g13
(lp41
F1.0
asg15
(lp42
(iBasisSets
PrimitiveFunction
p43
(dp44
g19
F59.240000000000002
sg20
S'S'
p45
sbasg20
S'S'
p46
sba(iBasisSets
BasisFunction
p47
(dp48
g13
(lp49
F1.0
asg15
(lp50
(iBasisSets
PrimitiveFunction
p51
(dp52
g19
F19.870000000000001
sg20
S'S'
p53
sbasg20
S'S'
p54
sba(iBasisSets
BasisFunction
p55
(dp56
g13
(lp57
F1.0
asg15
(lp58
(iBasisSets
PrimitiveFunction
p59
(dp60
g19
F7.4059999999999997
sg20
S'S'
p61
sbasg20
S'S'
p62
sba(iBasisSets
BasisFunction
p63
(dp64
g13
(lp65
F1.0
asg15
(lp66
(iBasisSets
PrimitiveFunction
p67
(dp68
g19
F2.9300000000000002
sg20
S'S'
p69
sbasg20
S'S'
p70
sba(iBasisSets
BasisFunction
p71
(dp72
g13
(lp73
F1.0
asg15
(lp74
(iBasisSets
PrimitiveFunction
p75
(dp76
g19
F1.1890000000000001
sg20
S'S'
p77
sbasg20
S'S'
p78
sba(iBasisSets
BasisFunction
p79
(dp80
g13
(lp81
F1.0
asg15
(lp82
(iBasisSets
PrimitiveFunction
p83
(dp84
g19
F0.4798
sg20
S'S'
p85
sbasg20
S'S'
p86
sba(iBasisSets
BasisFunction
p87
(dp88
g13
(lp89
F1.0
asg15
(lp90
(iBasisSets
PrimitiveFunction
p91
(dp92
g19
F0.075090000000000004
sg20
S'S'
p93
sbasg20
S'S'
p94
sba(iBasisSets
BasisFunction
p95
(dp96
g13
(lp97
F1.0
asg15
(lp98
(iBasisSets
PrimitiveFunction
p99
(dp100
g19
F0.028320000000000001
sg20
S'S'
p101
sbasg20
S'S'
p102
sbassbsS'HE'
p103
(iBasisSets
AtomBasis
p104
(dp105
g7
(dp106
g9
(lp107
(iBasisSets
BasisFunction
p108
(dp109
g13
(lp110
F1.0
asg15
(lp111
(iBasisSets
PrimitiveFunction
p112
(dp113
g19
F234.0
sg20
S'S'
p114
sbasg20
S'S'
p115
sba(iBasisSets
BasisFunction
p116
(dp117
g13
(lp118
F1.0
asg15
(lp119
(iBasisSets
PrimitiveFunction
p120
(dp121
g19
F35.159999999999997
sg20
S'S'
p122
sbasg20
S'S'
p123
sba(iBasisSets
BasisFunction
p124
(dp125
g13
(lp126
F1.0
asg15
(lp127
(iBasisSets
PrimitiveFunction
p128
(dp129
g19
F7.9889999999999999
sg20
S'S'
p130
sbasg20
S'S'
p131
sba(iBasisSets
BasisFunction
p132
(dp133
g13
(lp134
F1.0
asg15
(lp135
(iBasisSets
PrimitiveFunction
p136
(dp137
g19
F2.2120000000000002
sg20
S'S'
p138
sbasg20
S'S'
p139
sba(iBasisSets
BasisFunction
p140
(dp141
g13
(lp142
F1.0
asg15
(lp143
(iBasisSets
PrimitiveFunction
p144
(dp145
g19
F0.66690000000000005
sg20
S'S'
p146
sbasg20
S'S'
p147
sba(iBasisSets
BasisFunction
p148
(dp149
g13
(lp150
F1.0
asg15
(lp151
(iBasisSets
PrimitiveFunction
p152
(dp153
g19
F0.2089
sg20
S'S'
p154
sbasg20
S'S'
p155
sba(iBasisSets
BasisFunction
p156
(dp157
g13
(lp158
F1.0
asg15
(lp159
(iBasisSets
PrimitiveFunction
p160
(dp161
g19
F0.051380000000000002
sg20
S'S'
p162
sbasg20
S'S'
p163
sbassbssb.