(ibasisset
BasisSet
p0
(dp1
S'basisDictionary'
p2
(dp3
S'H'
p4
(lp5
(ibasisset
Shell
p6
(dp7
S'angularMomentum'
p8
S'S'
p9
sS'exponents'
p10
(lp11
F33.869999999999997
aF5.0949999999999998
aF1.159
asS'coefficients'
p12
(lp13
(lp14
F0.0060679999999999996
aF0.045308000000000001
aF0.202822
aasS'atom'
p15
S' H'
p16
sba(ibasisset
Shell
p17
(dp18
g8
S'S'
p19
sg10
(lp20
F0.32579999999999998
asg12
(lp21
(lp22
F1.0
aasg15
S' H'
p23
sba(ibasisset
Shell
p24
(dp25
g8
S'S'
p26
sg10
(lp27
F0.1027
asg12
(lp28
(lp29
F1.0
aasg15
S' H'
p30
sba(ibasisset
Shell
p31
(dp32
g8
S'P'
p33
sg10
(lp34
F1.407
asg12
(lp35
(lp36
F1.0
aasg15
S' H'
p37
sba(ibasisset
Shell
p38
(dp39
g8
S'P'
p40
sg10
(lp41
F0.38800000000000001
asg12
(lp42
(lp43
F1.0
aasg15
S' H'
p44
sba(ibasisset
Shell
p45
(dp46
g8
S'D'
p47
sg10
(lp48
F1.0569999999999999
asg12
(lp49
(lp50
F1.0
aasg15
S' H'
p51
sba(ibasisset
Shell
p52
(dp53
g8
S'S'
p54
sg10
(lp55
F0.025260000000000001
asg12
(lp56
(lp57
F1.0
aasg15
S' H'
p58
sba(ibasisset
Shell
p59
(dp60
g8
S'P'
p61
sg10
(lp62
F0.10199999999999999
asg12
(lp63
(lp64
F1.0
aasg15
S' H'
p65
sba(ibasisset
Shell
p66
(dp67
g8
S'D'
p68
sg10
(lp69
F0.247
asg12
(lp70
(lp71
F1.0
aasg15
S' H'
p72
sbasS'C'
p73
(lp74
(ibasisset
Shell
p75
(dp76
g8
S'S'
p77
sg10
(lp78
F8236.0
aF1235.0
aF280.80000000000001
aF79.269999999999996
aF25.59
aF8.9969999999999999
aF3.319
aF0.36430000000000001
asg12
(lp79
(lp80
F0.000531
aF0.0041079999999999997
aF0.021087000000000002
aF0.081852999999999995
aF0.234817
aF0.43440099999999998
aF0.34612900000000002
aF-0.0089829999999999997
aa(lp81
F-0.000113
aF-0.00087799999999999998
aF-0.0045399999999999998
aF-0.018133
aF-0.055759999999999997
aF-0.12689500000000001
aF-0.170352
aF0.59868399999999999
aasg15
S' C'
p82
sba(ibasisset
Shell
p83
(dp84
g8
S'S'
p85
sg10
(lp86
F0.90590000000000004
asg12
(lp87
(lp88
F1.0
aasg15
S' C'
p89
sba(ibasisset
Shell
p90
(dp91
g8
S'S'
p92
sg10
(lp93
F0.1285
asg12
(lp94
(lp95
F1.0
aasg15
S' C'
p96
sba(ibasisset
Shell
p97
(dp98
g8
S'P'
p99
sg10
(lp100
F18.710000000000001
aF4.133
aF1.2
asg12
(lp101
(lp102
F0.014031
aF0.086865999999999999
aF0.29021599999999997
aasg15
S' C'
p103
sba(ibasisset
Shell
p104
(dp105
g8
S'P'
p106
sg10
(lp107
F0.38269999999999998
asg12
(lp108
(lp109
F1.0
aasg15
S' C'
p110
sba(ibasisset
Shell
p111
(dp112
g8
S'P'
p113
sg10
(lp114
F0.12089999999999999
asg12
(lp115
(lp116
F1.0
aasg15
S' C'
p117
sba(ibasisset
Shell
p118
(dp119
g8
S'D'
p120
sg10
(lp121
F1.097
asg12
(lp122
(lp123
F1.0
aasg15
S' C'
p124
sba(ibasisset
Shell
p125
(dp126
g8
S'D'
p127
sg10
(lp128
F0.318
asg12
(lp129
(lp130
F1.0
aasg15
S' C'
p131
sba(ibasisset
Shell
p132
(dp133
g8
S'F'
p134
sg10
(lp135
F0.76100000000000001
asg12
(lp136
(lp137
F1.0
aasg15
S' C'
p138
sba(ibasisset
Shell
p139
(dp140
g8
S'S'
p141
sg10
(lp142
F4.2919999999999998
asg12
(lp143
(lp144
F1.0
aasg15
S' C'
p145
sba(ibasisset
Shell
p146
(dp147
g8
S'S'
p148
sg10
(lp149
F11.875999999999999
asg12
(lp150
(lp151
F1.0
aasg15
S' C'
p152
sba(ibasisset
Shell
p153
(dp154
g8
S'P'
p155
sg10
(lp156
F8.7780000000000005
asg12
(lp157
(lp158
F1.0
aasg15
S' C'
p159
sba(ibasisset
Shell
p160
(dp161
g8
S'P'
p162
sg10
(lp163
F33.189999999999998
asg12
(lp164
(lp165
F1.0
aasg15
S' C'
p166
sba(ibasisset
Shell
p167
(dp168
g8
S'D'
p169
sg10
(lp170
F14.839
asg12
(lp171
(lp172
F1.0
aasg15
S' C'
p173
sba(ibasisset
Shell
p174
(dp175
g8
S'S'
p176
sg10
(lp177
F0.044019999999999997
asg12
(lp178
(lp179
F1.0
aasg15
S' C'
p180
sba(ibasisset
Shell
p181
(dp182
g8
S'P'
p183
sg10
(lp184
F0.03569
asg12
(lp185
(lp186
F1.0
aasg15
S' C'
p187
sba(ibasisset
Shell
p188
(dp189
g8
S'D'
p190
sg10
(lp191
F0.10000000000000001
asg12
(lp192
(lp193
F1.0
aasg15
S' C'
p194
sba(ibasisset
Shell
p195
(dp196
g8
S'F'
p197
sg10
(lp198
F0.26800000000000002
asg12
(lp199
(lp200
F1.0
aasg15
S' C'
p201
sbasS'S'
p202
(lp203
(ibasisset
Shell
p204
(dp205
g8
S'S'
p206
sg10
(lp207
F374100.0
aF56050.0
aF12760.0
aF3615.0
aF1183.0
aF428.80000000000001
aF167.80000000000001
aF69.469999999999999
aF29.84
aF12.720000000000001
aF5.2439999999999998
aF2.2189999999999999
aF0.34899999999999998
asg12
(lp208
(lp209
F5.4214e-05
aF0.00042085499999999998
aF0.0022069799999999999
aF0.0091925800000000005
aF0.032112300000000003
aF0.094668299999999997
aF0.22363
aF0.37439299999999998
aF0.32910800000000001
aF0.084703799999999996
aF0.00044085100000000002
aF0.0016482700000000001
aF0.00030130599999999999
aa(lp210
F-1.49837e-05
aF-0.000116198
aF-0.00061158299999999996
aF-0.0025536999999999999
aF-0.0090870800000000009
aF-0.0277045
aF-0.072001999999999997
aF-0.14643900000000001
aF-0.19514999999999999
aF0.00819193
aF0.51660099999999998
aF0.54217800000000005
aF-0.0091807199999999999
aa(lp211
F4.3506600000000003e-06
aF3.3714000000000003e-05
aF0.00017767400000000001
aF0.000741116
aF0.00264591
aF0.0080748699999999996
aF0.021227599999999999
aF0.043832299999999998
aF0.061271600000000002
aF-0.0036151
aF-0.20451
aF-0.38187100000000002
aF0.71414699999999998
aasg15
S' S'
p212
sba(ibasisset
Shell
p213
(dp214
g8
S'S'
p215
sg10
(lp216
F0.77669999999999995
asg12
(lp217
(lp218
F1.0
aasg15
S' S'
p219
sba(ibasisset
Shell
p220
(dp221
g8
S'S'
p222
sg10
(lp223
F0.13220000000000001
asg12
(lp224
(lp225
F1.0
aasg15
S' S'
p226
sba(ibasisset
Shell
p227
(dp228
g8
S'P'
p229
sg10
(lp230
F574.39999999999998
aF135.80000000000001
aF43.189999999999998
aF15.869999999999999
aF6.2080000000000002
aF2.4830000000000001
aF0.32290000000000002
asg12
(lp231
(lp232
F0.0024226400000000002
aF0.019279600000000001
aF0.088540099999999997
aF0.25465399999999999
aF0.43398399999999998
aF0.35495300000000002
aF-0.0050297700000000002
aa(lp233
F-0.00062010199999999998
aF-0.00493882
aF-0.023264699999999999
aF-0.068519499999999997
aF-0.12389600000000001
aF-0.096949900000000006
aF0.56939399999999996
aasg15
S' S'
p234
sba(ibasisset
Shell
p235
(dp236
g8
S'P'
p237
sg10
(lp238
F0.86880000000000002
asg12
(lp239
(lp240
F1.0
aasg15
S' S'
p241
sba(ibasisset
Shell
p242
(dp243
g8
S'P'
p244
sg10
(lp245
F0.10979999999999999
asg12
(lp246
(lp247
F1.0
aasg15
S' S'
p248
sba(ibasisset
Shell
p249
(dp250
g8
S'D'
p251
sg10
(lp252
F0.26900000000000002
asg12
(lp253
(lp254
F1.0
aasg15
S' S'
p255
sba(ibasisset
Shell
p256
(dp257
g8
S'D'
p258
sg10
(lp259
F0.81899999999999995
asg12
(lp260
(lp261
F1.0
aasg15
S' S'
p262
sba(ibasisset
Shell
p263
(dp264
g8
S'F'
p265
sg10
(lp266
F0.55700000000000005
asg12
(lp267
(lp268
F1.0
aasg15
S' S'
p269
sba(ibasisset
Shell
p270
(dp271
g8
S'S'
p272
sg10
(lp273
F12.928000000000001
asg12
(lp274
(lp275
F1.0
aasg15
S' S'
p276
sba(ibasisset
Shell
p277
(dp278
g8
S'S'
p279
sg10
(lp280
F2.4129999999999998
asg12
(lp281
(lp282
F1.0
aasg15
S' S'
p283
sba(ibasisset
Shell
p284
(dp285
g8
S'P'
p286
sg10
(lp287
F8.1140000000000008
asg12
(lp288
(lp289
F1.0
aasg15
S' S'
p290
sba(ibasisset
Shell
p291
(dp292
g8
S'P'
p293
sg10
(lp294
F3.1059999999999999
asg12
(lp295
(lp296
F1.0
aasg15
S' S'
p297
sba(ibasisset
Shell
p298
(dp299
g8
S'D'
p300
sg10
(lp301
F15.254
asg12
(lp302
(lp303
F1.0
aasg15
S' S'
p304
sba(ibasisset
Shell
p305
(dp306
g8
S'D'
p307
sg10
(lp308
F4.8449999999999998
asg12
(lp309
(lp310
F1.0
aasg15
S' S'
p311
sba(ibasisset
Shell
p312
(dp313
g8
S'F'
p314
sg10
(lp315
F10.052
asg12
(lp316
(lp317
F1.0
aasg15
S' S'
p318
sba(ibasisset
Shell
p319
(dp320
g8
S'S'
p321
sg10
(lp322
F0.049700000000000001
asg12
(lp323
(lp324
F1.0
aasg15
S' S'
p325
sba(ibasisset
Shell
p326
(dp327
g8
S'P'
p328
sg10
(lp329
F0.035099999999999999
asg12
(lp330
(lp331
F1.0
aasg15
S' S'
p332
sba(ibasisset
Shell
p333
(dp334
g8
S'D'
p335
sg10
(lp336
F0.10100000000000001
asg12
(lp337
(lp338
F1.0
aasg15
S' S'
p339
sba(ibasisset
Shell
p340
(dp341
g8
S'F'
p342
sg10
(lp343
F0.218
asg12
(lp344
(lp345
F1.0
aasg15
S' S'
p346
sbasS'O'
p347
(lp348
(ibasisset
Shell
p349
(dp350
g8
S'S'
p351
sg10
(lp352
F15330.0
aF2299.0
aF522.39999999999998
aF147.30000000000001
aF47.549999999999997
aF16.760000000000002
aF6.2069999999999999
aF0.68820000000000003
asg12
(lp353
(lp354
F0.00050799999999999999
aF0.0039290000000000002
aF0.020243000000000001
aF0.079181000000000001
aF0.230687
aF0.433118
aF0.35026000000000002
aF-0.0081539999999999998
aa(lp355
F-0.000115
aF-0.00089499999999999996
aF-0.0046360000000000004
aF-0.018724000000000001
aF-0.058463000000000001
aF-0.136463
aF-0.17574000000000001
aF0.60341800000000001
aasg15
S' O'
p356
sba(ibasisset
Shell
p357
(dp358
g8
S'S'
p359
sg10
(lp360
F1.752
asg12
(lp361
(lp362
F1.0
aasg15
S' O'
p363
sba(ibasisset
Shell
p364
(dp365
g8
S'S'
p366
sg10
(lp367
F0.2384
asg12
(lp368
(lp369
F1.0
aasg15
S' O'
p370
sba(ibasisset
Shell
p371
(dp372
g8
S'P'
p373
sg10
(lp374
F34.460000000000001
aF7.7489999999999997
aF2.2799999999999998
asg12
(lp375
(lp376
F0.015928000000000001
aF0.099739999999999995
aF0.31049199999999999
aasg15
S' O'
p377
sba(ibasisset
Shell
p378
(dp379
g8
S'P'
p380
sg10
(lp381
F0.71560000000000001
asg12
(lp382
(lp383
F1.0
aasg15
S' O'
p384
sba(ibasisset
Shell
p385
(dp386
g8
S'P'
p387
sg10
(lp388
F0.214
asg12
(lp389
(lp390
F1.0
aa(lp391
F1.0
aasg15
S' O'
p392
sba(ibasisset
Shell
p393
(dp394
g8
S'D'
p395
sg10
(lp396
F2.3140000000000001
asg12
(lp397
(lp398
F1.0
aasg15
S' O'
p399
sba(ibasisset
Shell
p400
(dp401
g8
S'D'
p402
sg10
(lp403
F0.64500000000000002
asg12
(lp404
(lp405
F1.0
aasg15
S' O'
p406
sba(ibasisset
Shell
p407
(dp408
g8
S'F'
p409
sg10
(lp410
F1.4279999999999999
asg12
(lp411
(lp412
F1.0
aasg15
S' O'
p413
sba(ibasisset
Shell
p414
(dp415
g8
S'S'
p416
sg10
(lp417
F7.8449999999999998
asg12
(lp418
(lp419
F1.0
aasg15
S' O'
p420
sba(ibasisset
Shell
p421
(dp422
g8
S'S'
p423
sg10
(lp424
F21.032
asg12
(lp425
(lp426
F1.0
aasg15
S' O'
p427
sba(ibasisset
Shell
p428
(dp429
g8
S'P'
p430
sg10
(lp431
F15.159000000000001
asg12
(lp432
(lp433
F1.0
aasg15
S' O'
p434
sba(ibasisset
Shell
p435
(dp436
g8
S'P'
p437
sg10
(lp438
F57.436999999999998
asg12
(lp439
(lp440
F1.0
aasg15
S' O'
p441
sba(ibasisset
Shell
p442
(dp443
g8
S'D'
p444
sg10
(lp445
F15.858000000000001
asg12
(lp446
(lp447
F1.0
aasg15
S' O'
p448
sba(ibasisset
Shell
p449
(dp450
g8
S'S'
p451
sg10
(lp452
F0.073760000000000006
asg12
(lp453
(lp454
F1.0
aasg15
S' O'
p455
sba(ibasisset
Shell
p456
(dp457
g8
S'P'
p458
sg10
(lp459
F0.059740000000000001
asg12
(lp460
(lp461
F1.0
aasg15
S' O'
p462
sba(ibasisset
Shell
p463
(dp464
g8
S'F'
p465
sg10
(lp466
F0.5
asg12
(lp467
(lp468
F1.0
aasg15
S' O'
p469
sbasS'N'
p470
(lp471
(ibasisset
Shell
p472
(dp473
g8
S'S'
p474
sg10
(lp475
F11420.0
aF1712.0
aF389.30000000000001
aF110.0
aF35.57
aF12.539999999999999
aF4.6440000000000001
aF0.51180000000000003
asg12
(lp476
(lp477
F0.00052300000000000003
aF0.004045
aF0.020774999999999998
aF0.080726999999999993
aF0.233074
aF0.43350100000000003
aF0.347472
aF-0.0085079999999999999
aa(lp478
F-0.000115
aF-0.00089499999999999996
aF-0.0046239999999999996
aF-0.018527999999999999
aF-0.057339000000000001
aF-0.132076
aF-0.17251
aF0.59994400000000003
aasg15
S' N'
p479
sba(ibasisset
Shell
p480
(dp481
g8
S'S'
p482
sg10
(lp483
F1.2929999999999999
asg12
(lp484
(lp485
F1.0
aasg15
S' N'
p486
sba(ibasisset
Shell
p487
(dp488
g8
S'S'
p489
sg10
(lp490
F0.1787
asg12
(lp491
(lp492
F1.0
aasg15
S' N'
p493
sba(ibasisset
Shell
p494
(dp495
g8
S'P'
p496
sg10
(lp497
F26.629999999999999
aF5.9480000000000004
aF1.742
asg12
(lp498
(lp499
F0.014670000000000001
aF0.091763999999999998
aF0.29868299999999998
aasg15
S' N'
p500
sba(ibasisset
Shell
p501
(dp502
g8
S'P'
p503
sg10
(lp504
F0.55500000000000005
asg12
(lp505
(lp506
F1.0
aasg15
S' N'
p507
sba(ibasisset
Shell
p508
(dp509
g8
S'P'
p510
sg10
(lp511
F0.17249999999999999
asg12
(lp512
(lp513
F1.0
aasg15
S' N'
p514
sba(ibasisset
Shell
p515
(dp516
g8
S'D'
p517
sg10
(lp518
F1.6539999999999999
asg12
(lp519
(lp520
F1.0
aasg15
S' N'
p521
sba(ibasisset
Shell
p522
(dp523
g8
S'D'
p524
sg10
(lp525
F0.46899999999999997
asg12
(lp526
(lp527
F1.0
aasg15
S' N'
p528
sba(ibasisset
Shell
p529
(dp530
g8
S'F'
p531
sg10
(lp532
F1.093
asg12
(lp533
(lp534
F1.0
aasg15
S' N'
p535
sba(ibasisset
Shell
p536
(dp537
g8
S'S'
p538
sg10
(lp539
F5.952
asg12
(lp540
(lp541
F1.0
aasg15
S' N'
p542
sba(ibasisset
Shell
p543
(dp544
g8
S'S'
p545
sg10
(lp546
F16.201000000000001
asg12
(lp547
(lp548
F1.0
aasg15
S' N'
p549
sba(ibasisset
Shell
p550
(dp551
g8
S'P'
p552
sg10
(lp553
F11.871
asg12
(lp554
(lp555
F1.0
aasg15
S' N'
p556
sba(ibasisset
Shell
p557
(dp558
g8
S'P'
p559
sg10
(lp560
F44.848999999999997
asg12
(lp561
(lp562
F1.0
aasg15
S' N'
p563
sba(ibasisset
Shell
p564
(dp565
g8
S'D'
p566
sg10
(lp567
F14.199999999999999
asg12
(lp568
(lp569
F1.0
aasg15
S' N'
p570
sba(ibasisset
Shell
p571
(dp572
g8
S'S'
p573
sg10
(lp574
F0.057599999999999998
asg12
(lp575
(lp576
F1.0
aasg15
S' N'
p577
sba(ibasisset
Shell
p578
(dp579
g8
S'P'
p580
sg10
(lp581
F0.049099999999999998
asg12
(lp582
(lp583
F1.0
aasg15
S' N'
p584
sba(ibasisset
Shell
p585
(dp586
g8
S'D'
p587
sg10
(lp588
F0.151
asg12
(lp589
(lp590
F1.0
aasg15
S' N'
p591
sba(ibasisset
Shell
p592
(dp593
g8
S'F'
p594
sg10
(lp595
F0.36399999999999999
asg12
(lp596
(lp597
F1.0
aasg15
S' N'
p598
sbassb.