ccopy_reg
_reconstructor
p0
(cbasisset
BasisSet
p1
c__builtin__
object
p2
Ntp3
Rp4
(dp5
S'basisDictionary'
p6
(dp7
S'H'
p8
(lp9
g0
(cbasisset
Shell
p10
g2
Ntp11
Rp12
(dp13
S'angularMomentum'
p14
S'S'
p15
sS'exponents'
p16
(lp17
F33.869999999999997
aF5.0949999999999998
aF1.159
asS'coefficients'
p18
(lp19
(lp20
F0.0060679999999999996
aF0.045308000000000001
aF0.202822
aasS'atom'
p21
S' H'
p22
sbag0
(g10
g2
Ntp23
Rp24
(dp25
g14
S'S'
p26
sg16
(lp27
F0.32579999999999998
asg18
(lp28
(lp29
F1.0
aasg21
S' H'
p30
sbag0
(g10
g2
Ntp31
Rp32
(dp33
g14
S'S'
p34
sg16
(lp35
F0.1027
asg18
(lp36
(lp37
F1.0
aasg21
S' H'
p38
sbag0
(g10
g2
Ntp39
Rp40
(dp41
g14
S'P'
p42
sg16
(lp43
F1.407
asg18
(lp44
(lp45
F1.0
aasg21
S' H'
p46
sbag0
(g10
g2
Ntp47
Rp48
(dp49
g14
S'P'
p50
sg16
(lp51
F0.38800000000000001
asg18
(lp52
(lp53
F1.0
aasg21
S' H'
p54
sbag0
(g10
g2
Ntp55
Rp56
(dp57
g14
S'D'
p58
sg16
(lp59
F1.0569999999999999
asg18
(lp60
(lp61
F1.0
aasg21
S' H'
p62
sbasS'C'
p63
(lp64
g0
(g10
g2
Ntp65
Rp66
(dp67
g14
S'S'
p68
sg16
(lp69
F8236.0
aF1235.0
aF280.80000000000001
aF79.269999999999996
aF25.59
aF8.9969999999999999
aF3.319
aF0.36430000000000001
asg18
(lp70
(lp71
F0.000531
aF0.0041079999999999997
aF0.021087000000000002
aF0.081852999999999995
aF0.234817
aF0.43440099999999998
aF0.34612900000000002
aF-0.0089829999999999997
aa(lp72
F-0.000113
aF-0.00087799999999999998
aF-0.0045399999999999998
aF-0.018133
aF-0.055759999999999997
aF-0.12689500000000001
aF-0.170352
aF0.59868399999999999
aasg21
S' C'
p73
sbag0
(g10
g2
Ntp74
Rp75
(dp76
g14
S'S'
p77
sg16
(lp78
F0.90590000000000004
asg18
(lp79
(lp80
F1.0
aasg21
S' C'
p81
sbag0
(g10
g2
Ntp82
Rp83
(dp84
g14
S'S'
p85
sg16
(lp86
F0.1285
asg18
(lp87
(lp88
F1.0
aasg21
S' C'
p89
sbag0
(g10
g2
Ntp90
Rp91
(dp92
g14
S'P'
p93
sg16
(lp94
F18.710000000000001
aF4.133
aF1.2
asg18
(lp95
(lp96
F0.014031
aF0.086865999999999999
aF0.29021599999999997
aasg21
S' C'
p97
sbag0
(g10
g2
Ntp98
Rp99
(dp100
g14
S'P'
p101
sg16
(lp102
F0.38269999999999998
asg18
(lp103
(lp104
F1.0
aasg21
S' C'
p105
sbag0
(g10
g2
Ntp106
Rp107
(dp108
g14
S'P'
p109
sg16
(lp110
F0.12089999999999999
asg18
(lp111
(lp112
F1.0
aasg21
S' C'
p113
sbag0
(g10
g2
Ntp114
Rp115
(dp116
g14
S'D'
p117
sg16
(lp118
F1.097
asg18
(lp119
(lp120
F1.0
aasg21
S' C'
p121
sbag0
(g10
g2
Ntp122
Rp123
(dp124
g14
S'D'
p125
sg16
(lp126
F0.318
asg18
(lp127
(lp128
F1.0
aasg21
S' C'
p129
sbag0
(g10
g2
Ntp130
Rp131
(dp132
g14
S'F'
p133
sg16
(lp134
F0.76100000000000001
asg18
(lp135
(lp136
F1.0
aasg21
S' C'
p137
sbasS'S'
p138
(lp139
g0
(g10
g2
Ntp140
Rp141
(dp142
g14
S'S'
p143
sg16
(lp144
F374100.0
aF56050.0
aF12760.0
aF3615.0
aF1183.0
aF428.80000000000001
aF167.80000000000001
aF69.469999999999999
aF29.84
aF12.720000000000001
aF5.2439999999999998
aF2.2189999999999999
aF0.34899999999999998
asg18
(lp145
(lp146
F5.4214e-05
aF0.00042085499999999998
aF0.0022069799999999999
aF0.0091925800000000005
aF0.032112300000000003
aF0.094668299999999997
aF0.22363
aF0.37439299999999998
aF0.32910800000000001
aF0.084703799999999996
aF0.00044085100000000002
aF0.0016482700000000001
aF0.00030130599999999999
aa(lp147
F-1.49837e-05
aF-0.000116198
aF-0.00061158299999999996
aF-0.0025536999999999999
aF-0.0090870800000000009
aF-0.0277045
aF-0.072001999999999997
aF-0.14643900000000001
aF-0.19514999999999999
aF0.00819193
aF0.51660099999999998
aF0.54217800000000005
aF-0.0091807199999999999
aa(lp148
F4.3506600000000003e-06
aF3.3714000000000003e-05
aF0.00017767400000000001
aF0.000741116
aF0.00264591
aF0.0080748699999999996
aF0.021227599999999999
aF0.043832299999999998
aF0.061271600000000002
aF-0.0036151
aF-0.20451
aF-0.38187100000000002
aF0.71414699999999998
aasg21
S' S'
p149
sbag0
(g10
g2
Ntp150
Rp151
(dp152
g14
S'S'
p153
sg16
(lp154
F0.77669999999999995
asg18
(lp155
(lp156
F1.0
aasg21
S' S'
p157
sbag0
(g10
g2
Ntp158
Rp159
(dp160
g14
S'S'
p161
sg16
(lp162
F0.13220000000000001
asg18
(lp163
(lp164
F1.0
aasg21
S' S'
p165
sbag0
(g10
g2
Ntp166
Rp167
(dp168
g14
S'P'
p169
sg16
(lp170
F574.39999999999998
aF135.80000000000001
aF43.189999999999998
aF15.869999999999999
aF6.2080000000000002
aF2.4830000000000001
aF0.32290000000000002
asg18
(lp171
(lp172
F0.0024226400000000002
aF0.019279600000000001
aF0.088540099999999997
aF0.25465399999999999
aF0.43398399999999998
aF0.35495300000000002
aF-0.0050297700000000002
aa(lp173
F-0.00062010199999999998
aF-0.00493882
aF-0.023264699999999999
aF-0.068519499999999997
aF-0.12389600000000001
aF-0.096949900000000006
aF0.56939399999999996
aasg21
S' S'
p174
sbag0
(g10
g2
Ntp175
Rp176
(dp177
g14
S'P'
p178
sg16
(lp179
F0.86880000000000002
asg18
(lp180
(lp181
F1.0
aasg21
S' S'
p182
sbag0
(g10
g2
Ntp183
Rp184
(dp185
g14
S'P'
p186
sg16
(lp187
F0.10979999999999999
asg18
(lp188
(lp189
F1.0
aasg21
S' S'
p190
sbag0
(g10
g2
Ntp191
Rp192
(dp193
g14
S'D'
p194
sg16
(lp195
F0.26900000000000002
asg18
(lp196
(lp197
F1.0
aasg21
S' S'
p198
sbag0
(g10
g2
Ntp199
Rp200
(dp201
g14
S'D'
p202
sg16
(lp203
F0.81899999999999995
asg18
(lp204
(lp205
F1.0
aasg21
S' S'
p206
sbag0
(g10
g2
Ntp207
Rp208
(dp209
g14
S'F'
p210
sg16
(lp211
F0.55700000000000005
asg18
(lp212
(lp213
F1.0
aasg21
S' S'
p214
sbasS'O'
p215
(lp216
g0
(g10
g2
Ntp217
Rp218
(dp219
g14
S'S'
p220
sg16
(lp221
F15330.0
aF2299.0
aF522.39999999999998
aF147.30000000000001
aF47.549999999999997
aF16.760000000000002
aF6.2069999999999999
aF0.68820000000000003
asg18
(lp222
(lp223
F0.00050799999999999999
aF0.0039290000000000002
aF0.020243000000000001
aF0.079181000000000001
aF0.230687
aF0.433118
aF0.35026000000000002
aF-0.0081539999999999998
aa(lp224
F-0.000115
aF-0.00089499999999999996
aF-0.0046360000000000004
aF-0.018724000000000001
aF-0.058463000000000001
aF-0.136463
aF-0.17574000000000001
aF0.60341800000000001
aasg21
S' O'
p225
sbag0
(g10
g2
Ntp226
Rp227
(dp228
g14
S'S'
p229
sg16
(lp230
F1.752
asg18
(lp231
(lp232
F1.0
aasg21
S' O'
p233
sbag0
(g10
g2
Ntp234
Rp235
(dp236
g14
S'S'
p237
sg16
(lp238
F0.2384
asg18
(lp239
(lp240
F1.0
aasg21
S' O'
p241
sbag0
(g10
g2
Ntp242
Rp243
(dp244
g14
S'P'
p245
sg16
(lp246
F34.460000000000001
aF7.7489999999999997
aF2.2799999999999998
asg18
(lp247
(lp248
F0.015928000000000001
aF0.099739999999999995
aF0.31049199999999999
aasg21
S' O'
p249
sbag0
(g10
g2
Ntp250
Rp251
(dp252
g14
S'P'
p253
sg16
(lp254
F0.71560000000000001
asg18
(lp255
(lp256
F1.0
aasg21
S' O'
p257
sbag0
(g10
g2
Ntp258
Rp259
(dp260
g14
S'P'
p261
sg16
(lp262
F0.214
asg18
(lp263
(lp264
F1.0
aasg21
S' O'
p265
sbag0
(g10
g2
Ntp266
Rp267
(dp268
g14
S'D'
p269
sg16
(lp270
F2.3140000000000001
asg18
(lp271
(lp272
F1.0
aasg21
S' O'
p273
sbag0
(g10
g2
Ntp274
Rp275
(dp276
g14
S'D'
p277
sg16
(lp278
F0.64500000000000002
asg18
(lp279
(lp280
F1.0
aasg21
S' O'
p281
sbag0
(g10
g2
Ntp282
Rp283
(dp284
g14
S'F'
p285
sg16
(lp286
F1.4279999999999999
asg18
(lp287
(lp288
F1.0
aasg21
S' O'
p289
sbasS'N'
p290
(lp291
g0
(g10
g2
Ntp292
Rp293
(dp294
S'angularMomentum'
p295
S'S'
p296
sS'exponents'
p297
(lp298
F129200.0
aF19350.0
aF4404.0
aF1248.0
aF408.0
aF148.19999999999999
aF58.5
aF24.59
aF10.81
aF4.8819999999999997
asS'coefficients'
p299
(lp300
(lp301
F2.5000000000000001e-05
aF0.00019699999999999999
aF0.0010319999999999999
aF0.0043249999999999999
aF0.01538
aF0.046866999999999999
aF0.120116
aF0.245695
aF0.36137900000000001
aF0.28728300000000001
aa(lp302
F-6.0000000000000002e-06
aF-4.3000000000000002e-05
aF-0.00022699999999999999
aF-0.00095799999999999998
aF-0.0034160000000000002
aF-0.010666999999999999
aF-0.028278999999999999
aF-0.064019999999999994
aF-0.11393200000000001
aF-0.14699499999999999
aasS'atom'
p303
S' N'
p304
sbag0
(g10
g2
Ntp305
Rp306
(dp307
g295
S'S'
p308
sg297
(lp309
F2.1949999999999998
asg299
(lp310
(lp311
F1.0
aasg303
S' N'
p312
sbag0
(g10
g2
Ntp313
Rp314
(dp315
g295
S'S'
p316
sg297
(lp317
F0.87150000000000005
asg299
(lp318
(lp319
F1.0
aasg303
S' N'
p320
sbag0
(g10
g2
Ntp321
Rp322
(dp323
g295
S'S'
p324
sg297
(lp325
F0.35039999999999999
asg299
(lp326
(lp327
F1.0
aasg303
S' N'
p328
sbag0
(g10
g2
Ntp329
Rp330
(dp331
g295
S'S'
p332
sg297
(lp333
F0.13969999999999999
asg299
(lp334
(lp335
F1.0
aasg303
S' N'
p336
sbag0
(g10
g2
Ntp337
Rp338
(dp339
g295
S'P'
p340
sg297
(lp341
F147.0
aF34.759999999999998
aF11.0
aF3.9950000000000001
asg299
(lp342
(lp343
F0.000892
aF0.0070819999999999998
aF0.032815999999999998
aF0.108209
aasg303
S' N'
p344
sbag0
(g10
g2
Ntp345
Rp346
(dp347
g295
S'P'
p348
sg297
(lp349
F1.587
asg299
(lp350
(lp351
F1.0
aasg303
S' N'
p352
sbag0
(g10
g2
Ntp353
Rp354
(dp355
g295
S'P'
p356
sg297
(lp357
F0.65329999999999999
asg299
(lp358
(lp359
F1.0
aasg303
S' N'
p360
sbag0
(g10
g2
Ntp361
Rp362
(dp363
g295
S'P'
p364
sg297
(lp365
F0.26860000000000001
asg299
(lp366
(lp367
F1.0
aasg303
S' N'
p368
sbag0
(g10
g2
Ntp369
Rp370
(dp371
g295
S'P'
p372
sg297
(lp373
F0.1067
asg299
(lp374
(lp375
F1.0
aasg303
S' N'
p376
sbag0
(g10
g2
Ntp377
Rp378
(dp379
g295
S'D'
p380
sg297
(lp381
F4.6470000000000002
asg299
(lp382
(lp383
F1.0
aasg303
S' N'
p384
sbag0
(g10
g2
Ntp385
Rp386
(dp387
g295
S'D'
p388
sg297
(lp389
F1.8129999999999999
asg299
(lp390
(lp391
F1.0
aasg303
S' N'
p392
sbag0
(g10
g2
Ntp393
Rp394
(dp395
g295
S'D'
p396
sg297
(lp397
F0.70699999999999996
asg299
(lp398
(lp399
F1.0
aasg303
S' N'
p400
sbag0
(g10
g2
Ntp401
Rp402
(dp403
g295
S'D'
p404
sg297
(lp405
F0.27600000000000002
asg299
(lp406
(lp407
F1.0
aasg303
S' N'
p408
sbag0
(g10
g2
Ntp409
Rp410
(dp411
g295
S'F'
p412
sg297
(lp413
F2.9420000000000002
asg299
(lp414
(lp415
F1.0
aasg303
S' N'
p416
sbag0
(g10
g2
Ntp417
Rp418
(dp419
g295
S'F'
p420
sg297
(lp421
F1.204
asg299
(lp422
(lp423
F1.0
aasg303
S' N'
p424
sbag0
(g10
g2
Ntp425
Rp426
(dp427
g295
S'F'
p428
sg297
(lp429
F0.49299999999999999
asg299
(lp430
(lp431
F1.0
aasg303
S' N'
p432
sbag0
(g10
g2
Ntp433
Rp434
(dp435
g295
S'G'
p436
sg297
(lp437
F2.5110000000000001
asg299
(lp438
(lp439
F1.0
aasg303
S' N'
p440
sbag0
(g10
g2
Ntp441
Rp442
(dp443
g295
S'G'
p444
sg297
(lp445
F0.94199999999999995
asg299
(lp446
(lp447
F1.0
aasg303
S' N'
p448
sbag0
(g10
g2
Ntp449
Rp450
(dp451
g295
S'H'
p452
sg297
(lp453
F1.768
asg299
(lp454
(lp455
F1.0
aasg303
S' N'
p456
sbag0
(g10
g2
Ntp457
Rp458
(dp459
g295
S'S'
p460
sg297
(lp461
F12.275
asg299
(lp462
(lp463
F1.0
aasg303
S' N'
p464
sbag0
(g10
g2
Ntp465
Rp466
(dp467
g295
S'S'
p468
sg297
(lp469
F27.827000000000002
asg299
(lp470
(lp471
F1.0
aasg303
S' N'
p472
sbag0
(g10
g2
Ntp473
Rp474
(dp475
g295
S'S'
p476
sg297
(lp477
F63.085000000000001
asg299
(lp478
(lp479
F1.0
aasg303
S' N'
p480
sbag0
(g10
g2
Ntp481
Rp482
(dp483
g295
S'S'
p484
sg297
(lp485
F143.01300000000001
asg299
(lp486
(lp487
F1.0
aasg303
S' N'
p488
sbag0
(g10
g2
Ntp489
Rp490
(dp491
g295
S'P'
p492
sg297
(lp493
F10.76
asg299
(lp494
(lp495
F1.0
aasg303
S' N'
p496
sbag0
(g10
g2
Ntp497
Rp498
(dp499
g295
S'P'
p500
sg297
(lp501
F27.18
asg299
(lp502
(lp503
F1.0
aasg303
S' N'
p504
sbag0
(g10
g2
Ntp505
Rp506
(dp507
g295
S'P'
p508
sg297
(lp509
F68.656000000000006
asg299
(lp510
(lp511
F1.0
aasg303
S' N'
p512
sbag0
(g10
g2
Ntp513
Rp514
(dp515
g295
S'P'
p516
sg297
(lp517
F173.42500000000001
asg299
(lp518
(lp519
F1.0
aasg303
S' N'
p520
sbag0
(g10
g2
Ntp521
Rp522
(dp523
g295
S'D'
p524
sg297
(lp525
F14.053000000000001
asg299
(lp526
(lp527
F1.0
aasg303
S' N'
p528
sbag0
(g10
g2
Ntp529
Rp530
(dp531
g295
S'D'
p532
sg297
(lp533
F39.081000000000003
asg299
(lp534
(lp535
F1.0
aasg303
S' N'
p536
sbag0
(g10
g2
Ntp537
Rp538
(dp539
g295
S'D'
p540
sg297
(lp541
F108.685
asg299
(lp542
(lp543
F1.0
aasg303
S' N'
p544
sbag0
(g10
g2
Ntp545
Rp546
(dp547
g295
S'F'
p548
sg297
(lp549
F14.356999999999999
asg299
(lp550
(lp551
F1.0
aasg303
S' N'
p552
sbag0
(g10
g2
Ntp553
Rp554
(dp555
g295
S'F'
p556
sg297
(lp557
F52.689999999999998
asg299
(lp558
(lp559
F1.0
aasg303
S' N'
p560
sbag0
(g10
g2
Ntp561
Rp562
(dp563
g295
S'G'
p564
sg297
(lp565
F41.119999999999997
asg299
(lp566
(lp567
F1.0
aasg303
S' N'
p568
sbassb.