(ibasisset
BasisSet
p0
(dp1
S'basisDictionary'
p2
(dp3
S'C'
p4
(iBasisSets
AtomBasis
p5
(dp6
S'basisDictionary'
p7
(dp8
S'P'
p9
(lp10
(iBasisSets
BasisFunction
p11
(dp12
S'coefficientList'
p13
(lp14
F0.038108999999999997
aF0.20948
aF0.50855700000000004
aF0.46884199999999998
asS'primitiveList'
p15
(lp16
(iBasisSets
PrimitiveFunction
p17
(dp18
S'exponent'
p19
F9.4390000000000001
sS'angularMomentum'
p20
S'P'
p21
sba(iBasisSets
PrimitiveFunction
p22
(dp23
g19
F2.0019999999999998
sg20
S'P'
p24
sba(iBasisSets
PrimitiveFunction
p25
(dp26
g19
F0.54559999999999997
sg20
S'P'
p27
sba(iBasisSets
PrimitiveFunction
p28
(dp29
g19
F0.1517
sg20
S'P'
p30
sbasg20
S'P'
p31
sba(iBasisSets
BasisFunction
p32
(dp33
g13
(lp34
F1.0
asg15
(lp35
(iBasisSets
PrimitiveFunction
p36
(dp37
g19
F0.1517
sg20
S'P'
p38
sbasg20
S'P'
p39
sbasS'S'
p40
(lp41
(iBasisSets
BasisFunction
p42
(dp43
g13
(lp44
F0.00069200000000000002
aF0.0053290000000000004
aF0.027077
aF0.101718
aF0.27473999999999998
aF0.44856400000000002
aF0.28507399999999999
aF0.015204000000000001
aF-0.0031909999999999998
asg15
(lp45
(iBasisSets
PrimitiveFunction
p46
(dp47
g19
F6665.0
sg20
S'S'
p48
sba(iBasisSets
PrimitiveFunction
p49
(dp50
g19
F1000.0
sg20
S'S'
p51
sba(iBasisSets
PrimitiveFunction
p52
(dp53
g19
F228.0
sg20
S'S'
p54
sba(iBasisSets
PrimitiveFunction
p55
(dp56
g19
F64.709999999999994
sg20
S'S'
p57
sba(iBasisSets
PrimitiveFunction
p58
(dp59
g19
F21.059999999999999
sg20
S'S'
p60
sba(iBasisSets
PrimitiveFunction
p61
(dp62
g19
F7.4950000000000001
sg20
S'S'
p63
sba(iBasisSets
PrimitiveFunction
p64
(dp65
g19
F2.7970000000000002
sg20
S'S'
p66
sba(iBasisSets
PrimitiveFunction
p67
(dp68
g19
F0.52149999999999996
sg20
S'S'
p69
sba(iBasisSets
PrimitiveFunction
p70
(dp71
g19
F0.15959999999999999
sg20
S'S'
p72
sbasg20
S'S'
p73
sba(iBasisSets
BasisFunction
p74
(dp75
g13
(lp76
F-0.000146
aF-0.0011540000000000001
aF-0.0057250000000000001
aF-0.023311999999999999
aF-0.063954999999999998
aF-0.149981
aF-0.12726199999999999
aF0.54452900000000004
aF0.58049600000000001
asg15
(lp77
(iBasisSets
PrimitiveFunction
p78
(dp79
g19
F6665.0
sg20
S'S'
p80
sba(iBasisSets
PrimitiveFunction
p81
(dp82
g19
F1000.0
sg20
S'S'
p83
sba(iBasisSets
PrimitiveFunction
p84
(dp85
g19
F228.0
sg20
S'S'
p86
sba(iBasisSets
PrimitiveFunction
p87
(dp88
g19
F64.709999999999994
sg20
S'S'
p89
sba(iBasisSets
PrimitiveFunction
p90
(dp91
g19
F21.059999999999999
sg20
S'S'
p92
sba(iBasisSets
PrimitiveFunction
p93
(dp94
g19
F7.4950000000000001
sg20
S'S'
p95
sba(iBasisSets
PrimitiveFunction
p96
(dp97
g19
F2.7970000000000002
sg20
S'S'
p98
sba(iBasisSets
PrimitiveFunction
p99
(dp100
g19
F0.52149999999999996
sg20
S'S'
p101
sba(iBasisSets
PrimitiveFunction
p102
(dp103
g19
F0.15959999999999999
sg20
S'S'
p104
sbasg20
S'S'
p105
sba(iBasisSets
BasisFunction
p106
(dp107
g13
(lp108
F1.0
asg15
(lp109
(iBasisSets
PrimitiveFunction
p110
(dp111
g19
F0.15959999999999999
sg20
S'S'
p112
sbasg20
S'S'
p113
sbasS'D'
p114
(lp115
(iBasisSets
BasisFunction
p116
(dp117
g13
(lp118
F1.0
asg15
(lp119
(iBasisSets
PrimitiveFunction
p120
(dp121
g19
F0.55000000000000004
sg20
S'D'
p122
sbasg20
S'D'
p123
sbassbsS'B'
p124
(iBasisSets
AtomBasis
p125
(dp126
g7
(dp127
g9
(lp128
(iBasisSets
BasisFunction
p129
(dp130
g13
(lp131
F0.035480999999999999
aF0.198072
aF0.50522999999999996
aF0.47949900000000001
asg15
(lp132
(iBasisSets
PrimitiveFunction
p133
(dp134
g19
F6.0010000000000003
sg20
S'P'
p135
sba(iBasisSets
PrimitiveFunction
p136
(dp137
g19
F1.2410000000000001
sg20
S'P'
p138
sba(iBasisSets
PrimitiveFunction
p139
(dp140
g19
F0.33639999999999998
sg20
S'P'
p141
sba(iBasisSets
PrimitiveFunction
p142
(dp143
g19
F0.095380000000000006
sg20
S'P'
p144
sbasg20
S'P'
p145
sba(iBasisSets
BasisFunction
p146
(dp147
g13
(lp148
F1.0
asg15
(lp149
(iBasisSets
PrimitiveFunction
p150
(dp151
g19
F0.095380000000000006
sg20
S'P'
p152
sbasg20
S'P'
p153
sbasg40
(lp154
(iBasisSets
BasisFunction
p155
(dp156
g13
(lp157
F0.000696
aF0.0053530000000000001
aF0.027133999999999998
aF0.10138
aF0.27205499999999999
aF0.448403
aF0.29012300000000002
aF0.014322
aF-0.0034859999999999999
asg15
(lp158
(iBasisSets
PrimitiveFunction
p159
(dp160
g19
F4570.0
sg20
S'S'
p161
sba(iBasisSets
PrimitiveFunction
p162
(dp163
g19
F685.89999999999998
sg20
S'S'
p164
sba(iBasisSets
PrimitiveFunction
p165
(dp166
g19
F156.5
sg20
S'S'
p167
sba(iBasisSets
PrimitiveFunction
p168
(dp169
g19
F44.469999999999999
sg20
S'S'
p170
sba(iBasisSets
PrimitiveFunction
p171
(dp172
g19
F14.48
sg20
S'S'
p173
sba(iBasisSets
PrimitiveFunction
p174
(dp175
g19
F5.1310000000000002
sg20
S'S'
p176
sba(iBasisSets
PrimitiveFunction
p177
(dp178
g19
F1.8979999999999999
sg20
S'S'
p179
sba(iBasisSets
PrimitiveFunction
p180
(dp181
g19
F0.33289999999999997
sg20
S'S'
p182
sba(iBasisSets
PrimitiveFunction
p183
(dp184
g19
F0.1043
sg20
S'S'
p185
sbasg20
S'S'
p186
sba(iBasisSets
BasisFunction
p187
(dp188
g13
(lp189
F-0.00013899999999999999
aF-0.0010970000000000001
aF-0.0054440000000000001
aF-0.021916000000000001
aF-0.059750999999999999
aF-0.13873199999999999
aF-0.13148199999999999
aF0.53952599999999995
aF0.58077400000000001
asg15
(lp190
(iBasisSets
PrimitiveFunction
p191
(dp192
g19
F4570.0
sg20
S'S'
p193
sba(iBasisSets
PrimitiveFunction
p194
(dp195
g19
F685.89999999999998
sg20
S'S'
p196
sba(iBasisSets
PrimitiveFunction
p197
(dp198
g19
F156.5
sg20
S'S'
p199
sba(iBasisSets
PrimitiveFunction
p200
(dp201
g19
F44.469999999999999
sg20
S'S'
p202
sba(iBasisSets
PrimitiveFunction
p203
(dp204
g19
F14.48
sg20
S'S'
p205
sba(iBasisSets
PrimitiveFunction
p206
(dp207
g19
F5.1310000000000002
sg20
S'S'
p208
sba(iBasisSets
PrimitiveFunction
p209
(dp210
g19
F1.8979999999999999
sg20
S'S'
p211
sba(iBasisSets
PrimitiveFunction
p212
(dp213
g19
F0.33289999999999997
sg20
S'S'
p214
sba(iBasisSets
PrimitiveFunction
p215
(dp216
g19
F0.1043
sg20
S'S'
p217
sbasg20
S'S'
p218
sba(iBasisSets
BasisFunction
p219
(dp220
g13
(lp221
F1.0
asg15
(lp222
(iBasisSets
PrimitiveFunction
p223
(dp224
g19
F0.1043
sg20
S'S'
p225
sbasg20
S'S'
p226
sbasg114
(lp227
(iBasisSets
BasisFunction
p228
(dp229
g13
(lp230
F1.0
asg15
(lp231
(iBasisSets
PrimitiveFunction
p232
(dp233
g19
F0.34300000000000003
sg20
S'D'
p234
sbasg20
S'D'
p235
sbassbsS'F'
p236
(iBasisSets
AtomBasis
p237
(dp238
g7
(dp239
g9
(lp240
(iBasisSets
BasisFunction
p241
(dp242
g13
(lp243
F0.044878000000000001
aF0.23571800000000001
aF0.508521
aF0.45812000000000003
asg15
(lp244
(iBasisSets
PrimitiveFunction
p245
(dp246
g19
F22.670000000000002
sg20
S'P'
p247
sba(iBasisSets
PrimitiveFunction
p248
(dp249
g19
F4.9770000000000003
sg20
S'P'
p250
sba(iBasisSets
PrimitiveFunction
p251
(dp252
g19
F1.347
sg20
S'P'
p253
sba(iBasisSets
PrimitiveFunction
p254
(dp255
g19
F0.34710000000000002
sg20
S'P'
p256
sbasg20
S'P'
p257
sba(iBasisSets
BasisFunction
p258
(dp259
g13
(lp260
F1.0
asg15
(lp261
(iBasisSets
PrimitiveFunction
p262
(dp263
g19
F0.34710000000000002
sg20
S'P'
p264
sbasg20
S'P'
p265
sbasg40
(lp266
(iBasisSets
BasisFunction
p267
(dp268
g13
(lp269
F0.00072099999999999996
aF0.0055529999999999998
aF0.028267
aF0.106444
aF0.28681400000000001
aF0.44864100000000001
aF0.26476100000000002
aF0.015332999999999999
aF-0.0023319999999999999
asg15
(lp270
(iBasisSets
PrimitiveFunction
p271
(dp272
g19
F14710.0
sg20
S'S'
p273
sba(iBasisSets
PrimitiveFunction
p274
(dp275
g19
F2207.0
sg20
S'S'
p276
sba(iBasisSets
PrimitiveFunction
p277
(dp278
g19
F502.80000000000001
sg20
S'S'
p279
sba(iBasisSets
PrimitiveFunction
p280
(dp281
g19
F142.59999999999999
sg20
S'S'
p282
sba(iBasisSets
PrimitiveFunction
p283
(dp284
g19
F46.469999999999999
sg20
S'S'
p285
sba(iBasisSets
PrimitiveFunction
p286
(dp287
g19
F16.699999999999999
sg20
S'S'
p288
sba(iBasisSets
PrimitiveFunction
p289
(dp290
g19
F6.3559999999999999
sg20
S'S'
p291
sba(iBasisSets
PrimitiveFunction
p292
(dp293
g19
F1.3160000000000001
sg20
S'S'
p294
sba(iBasisSets
PrimitiveFunction
p295
(dp296
g19
F0.38969999999999999
sg20
S'S'
p297
sbasg20
S'S'
p298
sba(iBasisSets
BasisFunction
p299
(dp300
g13
(lp301
F-0.000165
aF-0.0013079999999999999
aF-0.0064949999999999999
aF-0.026690999999999999
aF-0.073690000000000005
aF-0.17077600000000001
aF-0.112327
aF0.56281400000000004
aF0.56877800000000001
asg15
(lp302
(iBasisSets
PrimitiveFunction
p303
(dp304
g19
F14710.0
sg20
S'S'
p305
sba(iBasisSets
PrimitiveFunction
p306
(dp307
g19
F2207.0
sg20
S'S'
p308
sba(iBasisSets
PrimitiveFunction
p309
(dp310
g19
F502.80000000000001
sg20
S'S'
p311
sba(iBasisSets
PrimitiveFunction
p312
(dp313
g19
F142.59999999999999
sg20
S'S'
p314
sba(iBasisSets
PrimitiveFunction
p315
(dp316
g19
F46.469999999999999
sg20
S'S'
p317
sba(iBasisSets
PrimitiveFunction
p318
(dp319
g19
F16.699999999999999
sg20
S'S'
p320
sba(iBasisSets
PrimitiveFunction
p321
(dp322
g19
F6.3559999999999999
sg20
S'S'
p323
sba(iBasisSets
PrimitiveFunction
p324
(dp325
g19
F1.3160000000000001
sg20
S'S'
p326
sba(iBasisSets
PrimitiveFunction
p327
(dp328
g19
F0.38969999999999999
sg20
S'S'
p329
sbasg20
S'S'
p330
sba(iBasisSets
BasisFunction
p331
(dp332
g13
(lp333
F1.0
asg15
(lp334
(iBasisSets
PrimitiveFunction
p335
(dp336
g19
F0.38969999999999999
sg20
S'S'
p337
sbasg20
S'S'
p338
sbasg114
(lp339
(iBasisSets
BasisFunction
p340
(dp341
g13
(lp342
F1.0
asg15
(lp343
(iBasisSets
PrimitiveFunction
p344
(dp345
g19
F1.6399999999999999
sg20
S'D'
p346
sbasg20
S'D'
p347
sbassbsS'H'
p348
(iBasisSets
AtomBasis
p349
(dp350
g7
(dp351
g9
(lp352
(iBasisSets
BasisFunction
p353
(dp354
g13
(lp355
F1.0
asg15
(lp356
(iBasisSets
PrimitiveFunction
p357
(dp358
g19
F0.72699999999999998
sg20
S'P'
p359
sbasg20
S'P'
p360
sbasg40
(lp361
(iBasisSets
BasisFunction
p362
(dp363
g13
(lp364
F0.019685000000000001
aF0.13797699999999999
aF0.47814800000000002
aF0.50124000000000002
asg15
(lp365
(iBasisSets
PrimitiveFunction
p366
(dp367
g19
F13.01
sg20
S'S'
p368
sba(iBasisSets
PrimitiveFunction
p369
(dp370
g19
F1.962
sg20
S'S'
p371
sba(iBasisSets
PrimitiveFunction
p372
(dp373
g19
F0.4446
sg20
S'S'
p374
sba(iBasisSets
PrimitiveFunction
p375
(dp376
g19
F0.122
sg20
S'S'
p377
sbasg20
S'S'
p378
sba(iBasisSets
BasisFunction
p379
(dp380
g13
(lp381
F1.0
asg15
(lp382
(iBasisSets
PrimitiveFunction
p383
(dp384
g19
F0.122
sg20
S'S'
p385
sbasg20
S'S'
p386
sbassbsS'NE'
p387
(iBasisSets
AtomBasis
p388
(dp389
g7
(dp390
g9
(lp391
(iBasisSets
BasisFunction
p392
(dp393
g13
(lp394
F0.046087000000000003
aF0.24018100000000001
aF0.50874399999999997
aF0.45566000000000001
asg15
(lp395
(iBasisSets
PrimitiveFunction
p396
(dp397
g19
F28.390000000000001
sg20
S'P'
p398
sba(iBasisSets
PrimitiveFunction
p399
(dp400
g19
F6.2699999999999996
sg20
S'P'
p401
sba(iBasisSets
PrimitiveFunction
p402
(dp403
g19
F1.6950000000000001
sg20
S'P'
p404
sba(iBasisSets
PrimitiveFunction
p405
(dp406
g19
F0.43169999999999997
sg20
S'P'
p407
sbasg20
S'P'
p408
sba(iBasisSets
BasisFunction
p409
(dp410
g13
(lp411
F1.0
asg15
(lp412
(iBasisSets
PrimitiveFunction
p413
(dp414
g19
F0.43169999999999997
sg20
S'P'
p415
sbasg20
S'P'
p416
sbasg40
(lp417
(iBasisSets
BasisFunction
p418
(dp419
g13
(lp420
F0.00073800000000000005
aF0.0056769999999999998
aF0.028882999999999999
aF0.10854
aF0.29090700000000003
aF0.448324
aF0.25802599999999998
aF0.015063
aF-0.0020999999999999999
asg15
(lp421
(iBasisSets
PrimitiveFunction
p422
(dp423
g19
F17880.0
sg20
S'S'
p424
sba(iBasisSets
PrimitiveFunction
p425
(dp426
g19
F2683.0
sg20
S'S'
p427
sba(iBasisSets
PrimitiveFunction
p428
(dp429
g19
F611.5
sg20
S'S'
p430
sba(iBasisSets
PrimitiveFunction
p431
(dp432
g19
F173.5
sg20
S'S'
p433
sba(iBasisSets
PrimitiveFunction
p434
(dp435
g19
F56.640000000000001
sg20
S'S'
p436
sba(iBasisSets
PrimitiveFunction
p437
(dp438
g19
F20.420000000000002
sg20
S'S'
p439
sba(iBasisSets
PrimitiveFunction
p440
(dp441
g19
F7.8099999999999996
sg20
S'S'
p442
sba(iBasisSets
PrimitiveFunction
p443
(dp444
g19
F1.653
sg20
S'S'
p445
sba(iBasisSets
PrimitiveFunction
p446
(dp447
g19
F0.4869
sg20
S'S'
p448
sbasg20
S'S'
p449
sba(iBasisSets
BasisFunction
p450
(dp451
g13
(lp452
F-0.00017200000000000001
aF-0.0013569999999999999
aF-0.0067369999999999999
aF-0.027663
aF-0.076207999999999998
aF-0.17522699999999999
aF-0.10703799999999999
aF0.56705000000000005
aF0.56521600000000005
asg15
(lp453
(iBasisSets
PrimitiveFunction
p454
(dp455
g19
F17880.0
sg20
S'S'
p456
sba(iBasisSets
PrimitiveFunction
p457
(dp458
g19
F2683.0
sg20
S'S'
p459
sba(iBasisSets
PrimitiveFunction
p460
(dp461
g19
F611.5
sg20
S'S'
p462
sba(iBasisSets
PrimitiveFunction
p463
(dp464
g19
F173.5
sg20
S'S'
p465
sba(iBasisSets
PrimitiveFunction
p466
(dp467
g19
F56.640000000000001
sg20
S'S'
p468
sba(iBasisSets
PrimitiveFunction
p469
(dp470
g19
F20.420000000000002
sg20
S'S'
p471
sba(iBasisSets
PrimitiveFunction
p472
(dp473
g19
F7.8099999999999996
sg20
S'S'
p474
sba(iBasisSets
PrimitiveFunction
p475
(dp476
g19
F1.653
sg20
S'S'
p477
sba(iBasisSets
PrimitiveFunction
p478
(dp479
g19
F0.4869
sg20
S'S'
p480
sbasg20
S'S'
p481
sba(iBasisSets
BasisFunction
p482
(dp483
g13
(lp484
F1.0
asg15
(lp485
(iBasisSets
PrimitiveFunction
p486
(dp487
g19
F0.4869
sg20
S'S'
p488
sbasg20
S'S'
p489
sbasg114
(lp490
(iBasisSets
BasisFunction
p491
(dp492
g13
(lp493
F1.0
asg15
(lp494
(iBasisSets
PrimitiveFunction
p495
(dp496
g19
F2.202
sg20
S'D'
p497
sbasg20
S'D'
p498
sbassbsS'O'
p499
(iBasisSets
AtomBasis
p500
(dp501
g7
(dp502
g9
(lp503
(iBasisSets
BasisFunction
p504
(dp505
g13
(lp506
F0.043018000000000001
aF0.22891300000000001
aF0.50872799999999996
aF0.46053100000000002
asg15
(lp507
(iBasisSets
PrimitiveFunction
p508
(dp509
g19
F17.699999999999999
sg20
S'P'
p510
sba(iBasisSets
PrimitiveFunction
p511
(dp512
g19
F3.8540000000000001
sg20
S'P'
p513
sba(iBasisSets
PrimitiveFunction
p514
(dp515
g19
F1.046
sg20
S'P'
p516
sba(iBasisSets
PrimitiveFunction
p517
(dp518
g19
F0.27529999999999999
sg20
S'P'
p519
sbasg20
S'P'
p520
sba(iBasisSets
BasisFunction
p521
(dp522
g13
(lp523
F1.0
asg15
(lp524
(iBasisSets
PrimitiveFunction
p525
(dp526
g19
F0.27529999999999999
sg20
S'P'
p527
sbasg20
S'P'
p528
sbasg40
(lp529
(iBasisSets
BasisFunction
p530
(dp531
g13
(lp532
F0.00071000000000000002
aF0.00547
aF0.027837000000000001
aF0.1048
aF0.28306199999999998
aF0.44871899999999998
aF0.27095200000000003
aF0.015458
aF-0.0025850000000000001
asg15
(lp533
(iBasisSets
PrimitiveFunction
p534
(dp535
g19
F11720.0
sg20
S'S'
p536
sba(iBasisSets
PrimitiveFunction
p537
(dp538
g19
F1759.0
sg20
S'S'
p539
sba(iBasisSets
PrimitiveFunction
p540
(dp541
g19
F400.80000000000001
sg20
S'S'
p542
sba(iBasisSets
PrimitiveFunction
p543
(dp544
g19
F113.7
sg20
S'S'
p545
sba(iBasisSets
PrimitiveFunction
p546
(dp547
g19
F37.030000000000001
sg20
S'S'
p548
sba(iBasisSets
PrimitiveFunction
p549
(dp550
g19
F13.27
sg20
S'S'
p551
sba(iBasisSets
PrimitiveFunction
p552
(dp553
g19
F5.0250000000000004
sg20
S'S'
p554
sba(iBasisSets
PrimitiveFunction
p555
(dp556
g19
F1.0129999999999999
sg20
S'S'
p557
sba(iBasisSets
PrimitiveFunction
p558
(dp559
g19
F0.30230000000000001
sg20
S'S'
p560
sbasg20
S'S'
p561
sba(iBasisSets
BasisFunction
p562
(dp563
g13
(lp564
F-0.00016000000000000001
aF-0.001263
aF-0.006267
aF-0.025715999999999999
aF-0.070924000000000001
aF-0.165411
aF-0.116955
aF0.55736799999999997
aF0.57275900000000002
asg15
(lp565
(iBasisSets
PrimitiveFunction
p566
(dp567
g19
F11720.0
sg20
S'S'
p568
sba(iBasisSets
PrimitiveFunction
p569
(dp570
g19
F1759.0
sg20
S'S'
p571
sba(iBasisSets
PrimitiveFunction
p572
(dp573
g19
F400.80000000000001
sg20
S'S'
p574
sba(iBasisSets
PrimitiveFunction
p575
(dp576
g19
F113.7
sg20
S'S'
p577
sba(iBasisSets
PrimitiveFunction
p578
(dp579
g19
F37.030000000000001
sg20
S'S'
p580
sba(iBasisSets
PrimitiveFunction
p581
(dp582
g19
F13.27
sg20
S'S'
p583
sba(iBasisSets
PrimitiveFunction
p584
(dp585
g19
F5.0250000000000004
sg20
S'S'
p586
sba(iBasisSets
PrimitiveFunction
p587
(dp588
g19
F1.0129999999999999
sg20
S'S'
p589
sba(iBasisSets
PrimitiveFunction
p590
(dp591
g19
F0.30230000000000001
sg20
S'S'
p592
sbasg20
S'S'
p593
sba(iBasisSets
BasisFunction
p594
(dp595
g13
(lp596
F1.0
asg15
(lp597
(iBasisSets
PrimitiveFunction
p598
(dp599
g19
F0.30230000000000001
sg20
S'S'
p600
sbasg20
S'S'
p601
sbasg114
(lp602
(iBasisSets
BasisFunction
p603
(dp604
g13
(lp605
F1.0
asg15
(lp606
(iBasisSets
PrimitiveFunction
p607
(dp608
g19
F1.1850000000000001
sg20
S'D'
p609
sbasg20
S'D'
p610
sbassbsS'N'
p611
(iBasisSets
AtomBasis
p612
(dp613
g7
(dp614
g9
(lp615
(iBasisSets
BasisFunction
p616
(dp617
g13
(lp618
F0.039919000000000003
aF0.217169
aF0.51031899999999997
aF0.46221400000000001
asg15
(lp619
(iBasisSets
PrimitiveFunction
p620
(dp621
g19
F13.550000000000001
sg20
S'P'
p622
sba(iBasisSets
PrimitiveFunction
p623
(dp624
g19
F2.9169999999999998
sg20
S'P'
p625
sba(iBasisSets
PrimitiveFunction
p626
(dp627
g19
F0.79730000000000001
sg20
S'P'
p628
sba(iBasisSets
PrimitiveFunction
p629
(dp630
g19
F0.2185
sg20
S'P'
p631
sbasg20
S'P'
p632
sba(iBasisSets
BasisFunction
p633
(dp634
g13
(lp635
F1.0
asg15
(lp636
(iBasisSets
PrimitiveFunction
p637
(dp638
g19
F0.2185
sg20
S'P'
p639
sbasg20
S'P'
p640
sbasg40
(lp641
(iBasisSets
BasisFunction
p642
(dp643
g13
(lp644
F0.00069999999999999999
aF0.0053889999999999997
aF0.027406
aF0.10320699999999999
aF0.278723
aF0.44853999999999999
aF0.27823799999999999
aF0.015440000000000001
aF-0.0028639999999999998
asg15
(lp645
(iBasisSets
PrimitiveFunction
p646
(dp647
g19
F9046.0
sg20
S'S'
p648
sba(iBasisSets
PrimitiveFunction
p649
(dp650
g19
F1357.0
sg20
S'S'
p651
sba(iBasisSets
PrimitiveFunction
p652
(dp653
g19
F309.30000000000001
sg20
S'S'
p654
sba(iBasisSets
PrimitiveFunction
p655
(dp656
g19
F87.730000000000004
sg20
S'S'
p657
sba(iBasisSets
PrimitiveFunction
p658
(dp659
g19
F28.559999999999999
sg20
S'S'
p660
sba(iBasisSets
PrimitiveFunction
p661
(dp662
g19
F10.210000000000001
sg20
S'S'
p663
sba(iBasisSets
PrimitiveFunction
p664
(dp665
g19
F3.8380000000000001
sg20
S'S'
p666
sba(iBasisSets
PrimitiveFunction
p667
(dp668
g19
F0.74660000000000004
sg20
S'S'
p669
sba(iBasisSets
PrimitiveFunction
p670
(dp671
g19
F0.2248
sg20
S'S'
p672
sbasg20
S'S'
p673
sba(iBasisSets
BasisFunction
p674
(dp675
g13
(lp676
F-0.00015300000000000001
aF-0.0012080000000000001
aF-0.0059919999999999999
aF-0.024544
aF-0.067459000000000005
aF-0.158078
aF-0.12183099999999999
aF0.54900300000000002
aF0.57881499999999997
asg15
(lp677
(iBasisSets
PrimitiveFunction
p678
(dp679
g19
F9046.0
sg20
S'S'
p680
sba(iBasisSets
PrimitiveFunction
p681
(dp682
g19
F1357.0
sg20
S'S'
p683
sba(iBasisSets
PrimitiveFunction
p684
(dp685
g19
F309.30000000000001
sg20
S'S'
p686
sba(iBasisSets
PrimitiveFunction
p687
(dp688
g19
F87.730000000000004
sg20
S'S'
p689
sba(iBasisSets
PrimitiveFunction
p690
(dp691
g19
F28.559999999999999
sg20
S'S'
p692
sba(iBasisSets
PrimitiveFunction
p693
(dp694
g19
F10.210000000000001
sg20
S'S'
p695
sba(iBasisSets
PrimitiveFunction
p696
(dp697
g19
F3.8380000000000001
sg20
S'S'
p698
sba(iBasisSets
PrimitiveFunction
p699
(dp700
g19
F0.74660000000000004
sg20
S'S'
p701
sba(iBasisSets
PrimitiveFunction
p702
(dp703
g19
F0.2248
sg20
S'S'
p704
sbasg20
S'S'
p705
sba(iBasisSets
BasisFunction
p706
(dp707
g13
(lp708
F1.0
asg15
(lp709
(iBasisSets
PrimitiveFunction
p710
(dp711
g19
F0.2248
sg20
S'S'
p712
sbasg20
S'S'
p713
sbasg114
(lp714
(iBasisSets
BasisFunction
p715
(dp716
g13
(lp717
F1.0
asg15
(lp718
(iBasisSets
PrimitiveFunction
p719
(dp720
g19
F0.81699999999999995
sg20
S'D'
p721
sbasg20
S'D'
p722
sbassbsS'HE'
p723
(iBasisSets
AtomBasis
p724
(dp725
g7
(dp726
g9
(lp727
(iBasisSets
BasisFunction
p728
(dp729
g13
(lp730
F1.0
asg15
(lp731
(iBasisSets
PrimitiveFunction
p732
(dp733
g19
F1.2749999999999999
sg20
S'P'
p734
sbasg20
S'P'
p735
sbasg40
(lp736
(iBasisSets
BasisFunction
p737
(dp738
g13
(lp739
F0.023809
aF0.154891
aF0.46998699999999999
aF0.51302700000000001
asg15
(lp740
(iBasisSets
PrimitiveFunction
p741
(dp742
g19
F38.359999999999999
sg20
S'S'
p743
sba(iBasisSets
PrimitiveFunction
p744
(dp745
g19
F5.7699999999999996
sg20
S'S'
p746
sba(iBasisSets
PrimitiveFunction
p747
(dp748
g19
F1.24
sg20
S'S'
p749
sba(iBasisSets
PrimitiveFunction
p750
(dp751
g19
F0.29759999999999998
sg20
S'S'
p752
sbasg20
S'S'
p753
sba(iBasisSets
BasisFunction
p754
(dp755
g13
(lp756
F1.0
asg15
(lp757
(iBasisSets
PrimitiveFunction
p758
(dp759
g19
F0.29759999999999998
sg20
S'S'
p760
sbasg20
S'S'
p761
sbassbssb.