(ibasisset
BasisSet
p0
(dp1
S'basisDictionary'
p2
(dp3
S'C'
p4
(iBasisSets
AtomBasis
p5
(dp6
S'basisDictionary'
p7
(dp8
S'P'
p9
(lp10
(iBasisSets
BasisFunction
p11
(dp12
S'coefficientList'
p13
(lp14
F1.0
asS'primitiveList'
p15
(lp16
(iBasisSets
PrimitiveFunction
p17
(dp18
S'exponent'
p19
F18.710000000000001
sS'angularMomentum'
p20
S'P'
p21
sbasg20
S'P'
p22
sba(iBasisSets
BasisFunction
p23
(dp24
g13
(lp25
F1.0
asg15
(lp26
(iBasisSets
PrimitiveFunction
p27
(dp28
g19
F4.133
sg20
S'P'
p29
sbasg20
S'P'
p30
sba(iBasisSets
BasisFunction
p31
(dp32
g13
(lp33
F1.0
asg15
(lp34
(iBasisSets
PrimitiveFunction
p35
(dp36
g19
F1.2
sg20
S'P'
p37
sbasg20
S'P'
p38
sba(iBasisSets
BasisFunction
p39
(dp40
g13
(lp41
F1.0
asg15
(lp42
(iBasisSets
PrimitiveFunction
p43
(dp44
g19
F0.38269999999999998
sg20
S'P'
p45
sbasg20
S'P'
p46
sba(iBasisSets
BasisFunction
p47
(dp48
g13
(lp49
F1.0
asg15
(lp50
(iBasisSets
PrimitiveFunction
p51
(dp52
g19
F0.12089999999999999
sg20
S'P'
p53
sbasg20
S'P'
p54
sbasS'S'
p55
(lp56
(iBasisSets
BasisFunction
p57
(dp58
g13
(lp59
F1.0
asg15
(lp60
(iBasisSets
PrimitiveFunction
p61
(dp62
g19
F8236.0
sg20
S'S'
p63
sbasg20
S'S'
p64
sba(iBasisSets
BasisFunction
p65
(dp66
g13
(lp67
F1.0
asg15
(lp68
(iBasisSets
PrimitiveFunction
p69
(dp70
g19
F1235.0
sg20
S'S'
p71
sbasg20
S'S'
p72
sba(iBasisSets
BasisFunction
p73
(dp74
g13
(lp75
F1.0
asg15
(lp76
(iBasisSets
PrimitiveFunction
p77
(dp78
g19
F280.80000000000001
sg20
S'S'
p79
sbasg20
S'S'
p80
sba(iBasisSets
BasisFunction
p81
(dp82
g13
(lp83
F1.0
asg15
(lp84
(iBasisSets
PrimitiveFunction
p85
(dp86
g19
F79.269999999999996
sg20
S'S'
p87
sbasg20
S'S'
p88
sba(iBasisSets
BasisFunction
p89
(dp90
g13
(lp91
F1.0
asg15
(lp92
(iBasisSets
PrimitiveFunction
p93
(dp94
g19
F25.59
sg20
S'S'
p95
sbasg20
S'S'
p96
sba(iBasisSets
BasisFunction
p97
(dp98
g13
(lp99
F1.0
asg15
(lp100
(iBasisSets
PrimitiveFunction
p101
(dp102
g19
F8.9969999999999999
sg20
S'S'
p103
sbasg20
S'S'
p104
sba(iBasisSets
BasisFunction
p105
(dp106
g13
(lp107
F1.0
asg15
(lp108
(iBasisSets
PrimitiveFunction
p109
(dp110
g19
F3.319
sg20
S'S'
p111
sbasg20
S'S'
p112
sba(iBasisSets
BasisFunction
p113
(dp114
g13
(lp115
F1.0
asg15
(lp116
(iBasisSets
PrimitiveFunction
p117
(dp118
g19
F0.90590000000000004
sg20
S'S'
p119
sbasg20
S'S'
p120
sba(iBasisSets
BasisFunction
p121
(dp122
g13
(lp123
F1.0
asg15
(lp124
(iBasisSets
PrimitiveFunction
p125
(dp126
g19
F0.36430000000000001
sg20
S'S'
p127
sbasg20
S'S'
p128
sba(iBasisSets
BasisFunction
p129
(dp130
g13
(lp131
F1.0
asg15
(lp132
(iBasisSets
PrimitiveFunction
p133
(dp134
g19
F0.1285
sg20
S'S'
p135
sbasg20
S'S'
p136
sbasS'D'
p137
(lp138
(iBasisSets
BasisFunction
p139
(dp140
g13
(lp141
F1.0
asg15
(lp142
(iBasisSets
PrimitiveFunction
p143
(dp144
g19
F1.097
sg20
S'D'
p145
sbasg20
S'D'
p146
sba(iBasisSets
BasisFunction
p147
(dp148
g13
(lp149
F1.0
asg15
(lp150
(iBasisSets
PrimitiveFunction
p151
(dp152
g19
F0.318
sg20
S'D'
p153
sbasg20
S'D'
p154
sbasS'F'
p155
(lp156
(iBasisSets
BasisFunction
p157
(dp158
g13
(lp159
F1.0
asg15
(lp160
(iBasisSets
PrimitiveFunction
p161
(dp162
g19
F0.76100000000000001
sg20
S'F'
p163
sbasg20
S'F'
p164
sbassbsS'B'
p165
(iBasisSets
AtomBasis
p166
(dp167
g7
(dp168
g9
(lp169
(iBasisSets
BasisFunction
p170
(dp171
g13
(lp172
F1.0
asg15
(lp173
(iBasisSets
PrimitiveFunction
p174
(dp175
g19
F12.050000000000001
sg20
S'P'
p176
sbasg20
S'P'
p177
sba(iBasisSets
BasisFunction
p178
(dp179
g13
(lp180
F1.0
asg15
(lp181
(iBasisSets
PrimitiveFunction
p182
(dp183
g19
F2.613
sg20
S'P'
p184
sbasg20
S'P'
p185
sba(iBasisSets
BasisFunction
p186
(dp187
g13
(lp188
F1.0
asg15
(lp189
(iBasisSets
PrimitiveFunction
p190
(dp191
g19
F0.74750000000000005
sg20
S'P'
p192
sbasg20
S'P'
p193
sba(iBasisSets
BasisFunction
p194
(dp195
g13
(lp196
F1.0
asg15
(lp197
(iBasisSets
PrimitiveFunction
p198
(dp199
g19
F0.23849999999999999
sg20
S'P'
p200
sbasg20
S'P'
p201
sba(iBasisSets
BasisFunction
p202
(dp203
g13
(lp204
F1.0
asg15
(lp205
(iBasisSets
PrimitiveFunction
p206
(dp207
g19
F0.076980000000000007
sg20
S'P'
p208
sbasg20
S'P'
p209
sbasg55
(lp210
(iBasisSets
BasisFunction
p211
(dp212
g13
(lp213
F1.0
asg15
(lp214
(iBasisSets
PrimitiveFunction
p215
(dp216
g19
F5473.0
sg20
S'S'
p217
sbasg20
S'S'
p218
sba(iBasisSets
BasisFunction
p219
(dp220
g13
(lp221
F1.0
asg15
(lp222
(iBasisSets
PrimitiveFunction
p223
(dp224
g19
F820.89999999999998
sg20
S'S'
p225
sbasg20
S'S'
p226
sba(iBasisSets
BasisFunction
p227
(dp228
g13
(lp229
F1.0
asg15
(lp230
(iBasisSets
PrimitiveFunction
p231
(dp232
g19
F186.80000000000001
sg20
S'S'
p233
sbasg20
S'S'
p234
sba(iBasisSets
BasisFunction
p235
(dp236
g13
(lp237
F1.0
asg15
(lp238
(iBasisSets
PrimitiveFunction
p239
(dp240
g19
F52.829999999999998
sg20
S'S'
p241
sbasg20
S'S'
p242
sba(iBasisSets
BasisFunction
p243
(dp244
g13
(lp245
F1.0
asg15
(lp246
(iBasisSets
PrimitiveFunction
p247
(dp248
g19
F17.079999999999998
sg20
S'S'
p249
sbasg20
S'S'
p250
sba(iBasisSets
BasisFunction
p251
(dp252
g13
(lp253
F1.0
asg15
(lp254
(iBasisSets
PrimitiveFunction
p255
(dp256
g19
F5.9989999999999997
sg20
S'S'
p257
sbasg20
S'S'
p258
sba(iBasisSets
BasisFunction
p259
(dp260
g13
(lp261
F1.0
asg15
(lp262
(iBasisSets
PrimitiveFunction
p263
(dp264
g19
F2.2080000000000002
sg20
S'S'
p265
sbasg20
S'S'
p266
sba(iBasisSets
BasisFunction
p267
(dp268
g13
(lp269
F1.0
asg15
(lp270
(iBasisSets
PrimitiveFunction
p271
(dp272
g19
F0.58789999999999998
sg20
S'S'
p273
sbasg20
S'S'
p274
sba(iBasisSets
BasisFunction
p275
(dp276
g13
(lp277
F1.0
asg15
(lp278
(iBasisSets
PrimitiveFunction
p279
(dp280
g19
F0.24149999999999999
sg20
S'S'
p281
sbasg20
S'S'
p282
sba(iBasisSets
BasisFunction
p283
(dp284
g13
(lp285
F1.0
asg15
(lp286
(iBasisSets
PrimitiveFunction
p287
(dp288
g19
F0.086099999999999996
sg20
S'S'
p289
sbasg20
S'S'
p290
sbasg137
(lp291
(iBasisSets
BasisFunction
p292
(dp293
g13
(lp294
F1.0
asg15
(lp295
(iBasisSets
PrimitiveFunction
p296
(dp297
g19
F0.66100000000000003
sg20
S'D'
p298
sbasg20
S'D'
p299
sba(iBasisSets
BasisFunction
p300
(dp301
g13
(lp302
F1.0
asg15
(lp303
(iBasisSets
PrimitiveFunction
p304
(dp305
g19
F0.19900000000000001
sg20
S'D'
p306
sbasg20
S'D'
p307
sbasg155
(lp308
(iBasisSets
BasisFunction
p309
(dp310
g13
(lp311
F1.0
asg15
(lp312
(iBasisSets
PrimitiveFunction
p313
(dp314
g19
F0.48999999999999999
sg20
S'F'
p315
sbasg20
S'F'
p316
sbassbsg155
(iBasisSets
AtomBasis
p317
(dp318
g7
(dp319
g9
(lp320
(iBasisSets
BasisFunction
p321
(dp322
g13
(lp323
F1.0
asg15
(lp324
(iBasisSets
PrimitiveFunction
p325
(dp326
g19
F43.880000000000003
sg20
S'P'
p327
sbasg20
S'P'
p328
sba(iBasisSets
BasisFunction
p329
(dp330
g13
(lp331
F1.0
asg15
(lp332
(iBasisSets
PrimitiveFunction
p333
(dp334
g19
F9.9260000000000002
sg20
S'P'
p335
sbasg20
S'P'
p336
sba(iBasisSets
BasisFunction
p337
(dp338
g13
(lp339
F1.0
asg15
(lp340
(iBasisSets
PrimitiveFunction
p341
(dp342
g19
F2.9300000000000002
sg20
S'P'
p343
sbasg20
S'P'
p344
sba(iBasisSets
BasisFunction
p345
(dp346
g13
(lp347
F1.0
asg15
(lp348
(iBasisSets
PrimitiveFunction
p349
(dp350
g19
F0.91320000000000001
sg20
S'P'
p351
sbasg20
S'P'
p352
sba(iBasisSets
BasisFunction
p353
(dp354
g13
(lp355
F1.0
asg15
(lp356
(iBasisSets
PrimitiveFunction
p357
(dp358
g19
F0.26719999999999999
sg20
S'P'
p359
sbasg20
S'P'
p360
sbasg55
(lp361
(iBasisSets
BasisFunction
p362
(dp363
g13
(lp364
F1.0
asg15
(lp365
(iBasisSets
PrimitiveFunction
p366
(dp367
g19
F19500.0
sg20
S'S'
p368
sbasg20
S'S'
p369
sba(iBasisSets
BasisFunction
p370
(dp371
g13
(lp372
F1.0
asg15
(lp373
(iBasisSets
PrimitiveFunction
p374
(dp375
g19
F2923.0
sg20
S'S'
p376
sbasg20
S'S'
p377
sba(iBasisSets
BasisFunction
p378
(dp379
g13
(lp380
F1.0
asg15
(lp381
(iBasisSets
PrimitiveFunction
p382
(dp383
g19
F664.5
sg20
S'S'
p384
sbasg20
S'S'
p385
sba(iBasisSets
BasisFunction
p386
(dp387
g13
(lp388
F1.0
asg15
(lp389
(iBasisSets
PrimitiveFunction
p390
(dp391
g19
F187.5
sg20
S'S'
p392
sbasg20
S'S'
p393
sba(iBasisSets
BasisFunction
p394
(dp395
g13
(lp396
F1.0
asg15
(lp397
(iBasisSets
PrimitiveFunction
p398
(dp399
g19
F60.619999999999997
sg20
S'S'
p400
sbasg20
S'S'
p401
sba(iBasisSets
BasisFunction
p402
(dp403
g13
(lp404
F1.0
asg15
(lp405
(iBasisSets
PrimitiveFunction
p406
(dp407
g19
F21.420000000000002
sg20
S'S'
p408
sbasg20
S'S'
p409
sba(iBasisSets
BasisFunction
p410
(dp411
g13
(lp412
F1.0
asg15
(lp413
(iBasisSets
PrimitiveFunction
p414
(dp415
g19
F7.9500000000000002
sg20
S'S'
p416
sbasg20
S'S'
p417
sba(iBasisSets
BasisFunction
p418
(dp419
g13
(lp420
F1.0
asg15
(lp421
(iBasisSets
PrimitiveFunction
p422
(dp423
g19
F2.2570000000000001
sg20
S'S'
p424
sbasg20
S'S'
p425
sba(iBasisSets
BasisFunction
p426
(dp427
g13
(lp428
F1.0
asg15
(lp429
(iBasisSets
PrimitiveFunction
p430
(dp431
g19
F0.88149999999999995
sg20
S'S'
p432
sbasg20
S'S'
p433
sba(iBasisSets
BasisFunction
p434
(dp435
g13
(lp436
F1.0
asg15
(lp437
(iBasisSets
PrimitiveFunction
p438
(dp439
g19
F0.30409999999999998
sg20
S'S'
p440
sbasg20
S'S'
p441
sbasg137
(lp442
(iBasisSets
BasisFunction
p443
(dp444
g13
(lp445
F1.0
asg15
(lp446
(iBasisSets
PrimitiveFunction
p447
(dp448
g19
F3.1070000000000002
sg20
S'D'
p449
sbasg20
S'D'
p450
sba(iBasisSets
BasisFunction
p451
(dp452
g13
(lp453
F1.0
asg15
(lp454
(iBasisSets
PrimitiveFunction
p455
(dp456
g19
F0.85499999999999998
sg20
S'D'
p457
sbasg20
S'D'
p458
sbasg155
(lp459
(iBasisSets
BasisFunction
p460
(dp461
g13
(lp462
F1.0
asg15
(lp463
(iBasisSets
PrimitiveFunction
p464
(dp465
g19
F1.917
sg20
S'F'
p466
sbasg20
S'F'
p467
sbassbsS'H'
p468
(iBasisSets
AtomBasis
p469
(dp470
g7
(dp471
g9
(lp472
(iBasisSets
BasisFunction
p473
(dp474
g13
(lp475
F1.0
asg15
(lp476
(iBasisSets
PrimitiveFunction
p477
(dp478
g19
F1.407
sg20
S'P'
p479
sbasg20
S'P'
p480
sba(iBasisSets
BasisFunction
p481
(dp482
g13
(lp483
F1.0
asg15
(lp484
(iBasisSets
PrimitiveFunction
p485
(dp486
g19
F0.38800000000000001
sg20
S'P'
p487
sbasg20
S'P'
p488
sbasg55
(lp489
(iBasisSets
BasisFunction
p490
(dp491
g13
(lp492
F1.0
asg15
(lp493
(iBasisSets
PrimitiveFunction
p494
(dp495
g19
F33.869999999999997
sg20
S'S'
p496
sbasg20
S'S'
p497
sba(iBasisSets
BasisFunction
p498
(dp499
g13
(lp500
F1.0
asg15
(lp501
(iBasisSets
PrimitiveFunction
p502
(dp503
g19
F5.0949999999999998
sg20
S'S'
p504
sbasg20
S'S'
p505
sba(iBasisSets
BasisFunction
p506
(dp507
g13
(lp508
F1.0
asg15
(lp509
(iBasisSets
PrimitiveFunction
p510
(dp511
g19
F1.159
sg20
S'S'
p512
sbasg20
S'S'
p513
sba(iBasisSets
BasisFunction
p514
(dp515
g13
(lp516
F1.0
asg15
(lp517
(iBasisSets
PrimitiveFunction
p518
(dp519
g19
F0.32579999999999998
sg20
S'S'
p520
sbasg20
S'S'
p521
sba(iBasisSets
BasisFunction
p522
(dp523
g13
(lp524
F1.0
asg15
(lp525
(iBasisSets
PrimitiveFunction
p526
(dp527
g19
F0.1027
sg20
S'S'
p528
sbasg20
S'S'
p529
sbasg137
(lp530
(iBasisSets
BasisFunction
p531
(dp532
g13
(lp533
F1.0
asg15
(lp534
(iBasisSets
PrimitiveFunction
p535
(dp536
g19
F1.0569999999999999
sg20
S'D'
p537
sbasg20
S'D'
p538
sbassbsS'NE'
p539
(iBasisSets
AtomBasis
p540
(dp541
g7
(dp542
g9
(lp543
(iBasisSets
BasisFunction
p544
(dp545
g13
(lp546
F1.0
asg15
(lp547
(iBasisSets
PrimitiveFunction
p548
(dp549
g19
F54.700000000000003
sg20
S'P'
p550
sbasg20
S'P'
p551
sba(iBasisSets
BasisFunction
p552
(dp553
g13
(lp554
F1.0
asg15
(lp555
(iBasisSets
PrimitiveFunction
p556
(dp557
g19
F12.43
sg20
S'P'
p558
sbasg20
S'P'
p559
sba(iBasisSets
BasisFunction
p560
(dp561
g13
(lp562
F1.0
asg15
(lp563
(iBasisSets
PrimitiveFunction
p564
(dp565
g19
F3.6789999999999998
sg20
S'P'
p566
sbasg20
S'P'
p567
sba(iBasisSets
BasisFunction
p568
(dp569
g13
(lp570
F1.0
asg15
(lp571
(iBasisSets
PrimitiveFunction
p572
(dp573
g19
F1.143
sg20
S'P'
p574
sbasg20
S'P'
p575
sba(iBasisSets
BasisFunction
p576
(dp577
g13
(lp578
F1.0
asg15
(lp579
(iBasisSets
PrimitiveFunction
p580
(dp581
g19
F0.33000000000000002
sg20
S'P'
p582
sbasg20
S'P'
p583
sbasg55
(lp584
(iBasisSets
BasisFunction
p585
(dp586
g13
(lp587
F1.0
asg15
(lp588
(iBasisSets
PrimitiveFunction
p589
(dp590
g19
F24350.0
sg20
S'S'
p591
sbasg20
S'S'
p592
sba(iBasisSets
BasisFunction
p593
(dp594
g13
(lp595
F1.0
asg15
(lp596
(iBasisSets
PrimitiveFunction
p597
(dp598
g19
F3650.0
sg20
S'S'
p599
sbasg20
S'S'
p600
sba(iBasisSets
BasisFunction
p601
(dp602
g13
(lp603
F1.0
asg15
(lp604
(iBasisSets
PrimitiveFunction
p605
(dp606
g19
F829.60000000000002
sg20
S'S'
p607
sbasg20
S'S'
p608
sba(iBasisSets
BasisFunction
p609
(dp610
g13
(lp611
F1.0
asg15
(lp612
(iBasisSets
PrimitiveFunction
p613
(dp614
g19
F234.0
sg20
S'S'
p615
sbasg20
S'S'
p616
sba(iBasisSets
BasisFunction
p617
(dp618
g13
(lp619
F1.0
asg15
(lp620
(iBasisSets
PrimitiveFunction
p621
(dp622
g19
F75.609999999999999
sg20
S'S'
p623
sbasg20
S'S'
p624
sba(iBasisSets
BasisFunction
p625
(dp626
g13
(lp627
F1.0
asg15
(lp628
(iBasisSets
PrimitiveFunction
p629
(dp630
g19
F26.73
sg20
S'S'
p631
sbasg20
S'S'
p632
sba(iBasisSets
BasisFunction
p633
(dp634
g13
(lp635
F1.0
asg15
(lp636
(iBasisSets
PrimitiveFunction
p637
(dp638
g19
F9.9269999999999996
sg20
S'S'
p639
sbasg20
S'S'
p640
sba(iBasisSets
BasisFunction
p641
(dp642
g13
(lp643
F1.0
asg15
(lp644
(iBasisSets
PrimitiveFunction
p645
(dp646
g19
F2.8359999999999999
sg20
S'S'
p647
sbasg20
S'S'
p648
sba(iBasisSets
BasisFunction
p649
(dp650
g13
(lp651
F1.0
asg15
(lp652
(iBasisSets
PrimitiveFunction
p653
(dp654
g19
F1.1020000000000001
sg20
S'S'
p655
sbasg20
S'S'
p656
sba(iBasisSets
BasisFunction
p657
(dp658
g13
(lp659
F1.0
asg15
(lp660
(iBasisSets
PrimitiveFunction
p661
(dp662
g19
F0.37819999999999998
sg20
S'S'
p663
sbasg20
S'S'
p664
sbasg137
(lp665
(iBasisSets
BasisFunction
p666
(dp667
g13
(lp668
F1.0
asg15
(lp669
(iBasisSets
PrimitiveFunction
p670
(dp671
g19
F4.0140000000000002
sg20
S'D'
p672
sbasg20
S'D'
p673
sba(iBasisSets
BasisFunction
p674
(dp675
g13
(lp676
F1.0
asg15
(lp677
(iBasisSets
PrimitiveFunction
p678
(dp679
g19
F1.0960000000000001
sg20
S'D'
p680
sbasg20
S'D'
p681
sbasg155
(lp682
(iBasisSets
BasisFunction
p683
(dp684
g13
(lp685
F1.0
asg15
(lp686
(iBasisSets
PrimitiveFunction
p687
(dp688
g19
F2.544
sg20
S'F'
p689
sbasg20
S'F'
p690
sbassbsS'O'
p691
(iBasisSets
AtomBasis
p692
(dp693
g7
(dp694
g9
(lp695
(iBasisSets
BasisFunction
p696
(dp697
g13
(lp698
F1.0
asg15
(lp699
(iBasisSets
PrimitiveFunction
p700
(dp701
g19
F34.460000000000001
sg20
S'P'
p702
sbasg20
S'P'
p703
sba(iBasisSets
BasisFunction
p704
(dp705
g13
(lp706
F1.0
asg15
(lp707
(iBasisSets
PrimitiveFunction
p708
(dp709
g19
F7.7489999999999997
sg20
S'P'
p710
sbasg20
S'P'
p711
sba(iBasisSets
BasisFunction
p712
(dp713
g13
(lp714
F1.0
asg15
(lp715
(iBasisSets
PrimitiveFunction
p716
(dp717
g19
F2.2799999999999998
sg20
S'P'
p718
sbasg20
S'P'
p719
sba(iBasisSets
BasisFunction
p720
(dp721
g13
(lp722
F1.0
asg15
(lp723
(iBasisSets
PrimitiveFunction
p724
(dp725
g19
F0.71560000000000001
sg20
S'P'
p726
sbasg20
S'P'
p727
sba(iBasisSets
BasisFunction
p728
(dp729
g13
(lp730
F1.0
asg15
(lp731
(iBasisSets
PrimitiveFunction
p732
(dp733
g19
F0.214
sg20
S'P'
p734
sbasg20
S'P'
p735
sbasg55
(lp736
(iBasisSets
BasisFunction
p737
(dp738
g13
(lp739
F1.0
asg15
(lp740
(iBasisSets
PrimitiveFunction
p741
(dp742
g19
F15330.0
sg20
S'S'
p743
sbasg20
S'S'
p744
sba(iBasisSets
BasisFunction
p745
(dp746
g13
(lp747
F1.0
asg15
(lp748
(iBasisSets
PrimitiveFunction
p749
(dp750
g19
F2299.0
sg20
S'S'
p751
sbasg20
S'S'
p752
sba(iBasisSets
BasisFunction
p753
(dp754
g13
(lp755
F1.0
asg15
(lp756
(iBasisSets
PrimitiveFunction
p757
(dp758
g19
F522.39999999999998
sg20
S'S'
p759
sbasg20
S'S'
p760
sba(iBasisSets
BasisFunction
p761
(dp762
g13
(lp763
F1.0
asg15
(lp764
(iBasisSets
PrimitiveFunction
p765
(dp766
g19
F147.30000000000001
sg20
S'S'
p767
sbasg20
S'S'
p768
sba(iBasisSets
BasisFunction
p769
(dp770
g13
(lp771
F1.0
asg15
(lp772
(iBasisSets
PrimitiveFunction
p773
(dp774
g19
F47.549999999999997
sg20
S'S'
p775
sbasg20
S'S'
p776
sba(iBasisSets
BasisFunction
p777
(dp778
g13
(lp779
F1.0
asg15
(lp780
(iBasisSets
PrimitiveFunction
p781
(dp782
g19
F16.760000000000002
sg20
S'S'
p783
sbasg20
S'S'
p784
sba(iBasisSets
BasisFunction
p785
(dp786
g13
(lp787
F1.0
asg15
(lp788
(iBasisSets
PrimitiveFunction
p789
(dp790
g19
F6.2069999999999999
sg20
S'S'
p791
sbasg20
S'S'
p792
sba(iBasisSets
BasisFunction
p793
(dp794
g13
(lp795
F1.0
asg15
(lp796
(iBasisSets
PrimitiveFunction
p797
(dp798
g19
F1.752
sg20
S'S'
p799
sbasg20
S'S'
p800
sba(iBasisSets
BasisFunction
p801
(dp802
g13
(lp803
F1.0
asg15
(lp804
(iBasisSets
PrimitiveFunction
p805
(dp806
g19
F0.68820000000000003
sg20
S'S'
p807
sbasg20
S'S'
p808
sba(iBasisSets
BasisFunction
p809
(dp810
g13
(lp811
F1.0
asg15
(lp812
(iBasisSets
PrimitiveFunction
p813
(dp814
g19
F0.2384
sg20
S'S'
p815
sbasg20
S'S'
p816
sbasg137
(lp817
(iBasisSets
BasisFunction
p818
(dp819
g13
(lp820
F1.0
asg15
(lp821
(iBasisSets
PrimitiveFunction
p822
(dp823
g19
F2.3140000000000001
sg20
S'D'
p824
sbasg20
S'D'
p825
sba(iBasisSets
BasisFunction
p826
(dp827
g13
(lp828
F1.0
asg15
(lp829
(iBasisSets
PrimitiveFunction
p830
(dp831
g19
F0.64500000000000002
sg20
S'D'
p832
sbasg20
S'D'
p833
sbasg155
(lp834
(iBasisSets
BasisFunction
p835
(dp836
g13
(lp837
F1.0
asg15
(lp838
(iBasisSets
PrimitiveFunction
p839
(dp840
g19
F1.4279999999999999
sg20
S'F'
p841
sbasg20
S'F'
p842
sbassbsS'N'
p843
(iBasisSets
AtomBasis
p844
(dp845
g7
(dp846
g9
(lp847
(iBasisSets
BasisFunction
p848
(dp849
g13
(lp850
F1.0
asg15
(lp851
(iBasisSets
PrimitiveFunction
p852
(dp853
g19
F26.629999999999999
sg20
S'P'
p854
sbasg20
S'P'
p855
sba(iBasisSets
BasisFunction
p856
(dp857
g13
(lp858
F1.0
asg15
(lp859
(iBasisSets
PrimitiveFunction
p860
(dp861
g19
F5.9480000000000004
sg20
S'P'
p862
sbasg20
S'P'
p863
sba(iBasisSets
BasisFunction
p864
(dp865
g13
(lp866
F1.0
asg15
(lp867
(iBasisSets
PrimitiveFunction
p868
(dp869
g19
F1.742
sg20
S'P'
p870
sbasg20
S'P'
p871
sba(iBasisSets
BasisFunction
p872
(dp873
g13
(lp874
F1.0
asg15
(lp875
(iBasisSets
PrimitiveFunction
p876
(dp877
g19
F0.55500000000000005
sg20
S'P'
p878
sbasg20
S'P'
p879
sba(iBasisSets
BasisFunction
p880
(dp881
g13
(lp882
F1.0
asg15
(lp883
(iBasisSets
PrimitiveFunction
p884
(dp885
g19
F0.17249999999999999
sg20
S'P'
p886
sbasg20
S'P'
p887
sbasg55
(lp888
(iBasisSets
BasisFunction
p889
(dp890
g13
(lp891
F1.0
asg15
(lp892
(iBasisSets
PrimitiveFunction
p893
(dp894
g19
F11420.0
sg20
S'S'
p895
sbasg20
S'S'
p896
sba(iBasisSets
BasisFunction
p897
(dp898
g13
(lp899
F1.0
asg15
(lp900
(iBasisSets
PrimitiveFunction
p901
(dp902
g19
F1712.0
sg20
S'S'
p903
sbasg20
S'S'
p904
sba(iBasisSets
BasisFunction
p905
(dp906
g13
(lp907
F1.0
asg15
(lp908
(iBasisSets
PrimitiveFunction
p909
(dp910
g19
F389.30000000000001
sg20
S'S'
p911
sbasg20
S'S'
p912
sba(iBasisSets
BasisFunction
p913
(dp914
g13
(lp915
F1.0
asg15
(lp916
(iBasisSets
PrimitiveFunction
p917
(dp918
g19
F110.0
sg20
S'S'
p919
sbasg20
S'S'
p920
sba(iBasisSets
BasisFunction
p921
(dp922
g13
(lp923
F1.0
asg15
(lp924
(iBasisSets
PrimitiveFunction
p925
(dp926
g19
F35.57
sg20
S'S'
p927
sbasg20
S'S'
p928
sba(iBasisSets
BasisFunction
p929
(dp930
g13
(lp931
F1.0
asg15
(lp932
(iBasisSets
PrimitiveFunction
p933
(dp934
g19
F12.539999999999999
sg20
S'S'
p935
sbasg20
S'S'
p936
sba(iBasisSets
BasisFunction
p937
(dp938
g13
(lp939
F1.0
asg15
(lp940
(iBasisSets
PrimitiveFunction
p941
(dp942
g19
F4.6440000000000001
sg20
S'S'
p943
sbasg20
S'S'
p944
sba(iBasisSets
BasisFunction
p945
(dp946
g13
(lp947
F1.0
asg15
(lp948
(iBasisSets
PrimitiveFunction
p949
(dp950
g19
F1.2929999999999999
sg20
S'S'
p951
sbasg20
S'S'
p952
sba(iBasisSets
BasisFunction
p953
(dp954
g13
(lp955
F1.0
asg15
(lp956
(iBasisSets
PrimitiveFunction
p957
(dp958
g19
F0.51180000000000003
sg20
S'S'
p959
sbasg20
S'S'
p960
sba(iBasisSets
BasisFunction
p961
(dp962
g13
(lp963
F1.0
asg15
(lp964
(iBasisSets
PrimitiveFunction
p965
(dp966
g19
F0.1787
sg20
S'S'
p967
sbasg20
S'S'
p968
sbasg137
(lp969
(iBasisSets
BasisFunction
p970
(dp971
g13
(lp972
F1.0
asg15
(lp973
(iBasisSets
PrimitiveFunction
p974
(dp975
g19
F1.6539999999999999
sg20
S'D'
p976
sbasg20
S'D'
p977
sba(iBasisSets
BasisFunction
p978
(dp979
g13
(lp980
F1.0
asg15
(lp981
(iBasisSets
PrimitiveFunction
p982
(dp983
g19
F0.46899999999999997
sg20
S'D'
p984
sbasg20
S'D'
p985
sbasg155
(lp986
(iBasisSets
BasisFunction
p987
(dp988
g13
(lp989
F1.0
asg15
(lp990
(iBasisSets
PrimitiveFunction
p991
(dp992
g19
F1.093
sg20
S'F'
p993
sbasg20
S'F'
p994
sbassbsS'HE'
p995
(iBasisSets
AtomBasis
p996
(dp997
g7
(dp998
g9
(lp999
(iBasisSets
BasisFunction
p1000
(dp1001
g13
(lp1002
F1.0
asg15
(lp1003
(iBasisSets
PrimitiveFunction
p1004
(dp1005
g19
F3.044
sg20
S'P'
p1006
sbasg20
S'P'
p1007
sba(iBasisSets
BasisFunction
p1008
(dp1009
g13
(lp1010
F1.0
asg15
(lp1011
(iBasisSets
PrimitiveFunction
p1012
(dp1013
g19
F0.75800000000000001
sg20
S'P'
p1014
sbasg20
S'P'
p1015
sbasg55
(lp1016
(iBasisSets
BasisFunction
p1017
(dp1018
g13
(lp1019
F1.0
asg15
(lp1020
(iBasisSets
PrimitiveFunction
p1021
(dp1022
g19
F234.0
sg20
S'S'
p1023
sbasg20
S'S'
p1024
sba(iBasisSets
BasisFunction
p1025
(dp1026
g13
(lp1027
F1.0
asg15
(lp1028
(iBasisSets
PrimitiveFunction
p1029
(dp1030
g19
F35.159999999999997
sg20
S'S'
p1031
sbasg20
S'S'
p1032
sba(iBasisSets
BasisFunction
p1033
(dp1034
g13
(lp1035
F1.0
asg15
(lp1036
(iBasisSets
PrimitiveFunction
p1037
(dp1038
g19
F7.9889999999999999
sg20
S'S'
p1039
sbasg20
S'S'
p1040
sba(iBasisSets
BasisFunction
p1041
(dp1042
g13
(lp1043
F1.0
asg15
(lp1044
(iBasisSets
PrimitiveFunction
p1045
(dp1046
g19
F2.2120000000000002
sg20
S'S'
p1047
sbasg20
S'S'
p1048
sba(iBasisSets
BasisFunction
p1049
(dp1050
g13
(lp1051
F1.0
asg15
(lp1052
(iBasisSets
PrimitiveFunction
p1053
(dp1054
g19
F0.66690000000000005
sg20
S'S'
p1055
sbasg20
S'S'
p1056
sba(iBasisSets
BasisFunction
p1057
(dp1058
g13
(lp1059
F1.0
asg15
(lp1060
(iBasisSets
PrimitiveFunction
p1061
(dp1062
g19
F0.2089
sg20
S'S'
p1063
sbasg20
S'S'
p1064
sbasg137
(lp1065
(iBasisSets
BasisFunction
p1066
(dp1067
g13
(lp1068
F1.0
asg15
(lp1069
(iBasisSets
PrimitiveFunction
p1070
(dp1071
g19
F1.9650000000000001
sg20
S'D'
p1072
sbasg20
S'D'
p1073
sbassbssb.