(ibasisset
BasisSet
p0
(dp1
S'basisDictionary'
p2
(dp3
S'C'
p4
(iBasisSets
AtomBasis
p5
(dp6
S'basisDictionary'
p7
(dp8
S'P'
p9
(lp10
(iBasisSets
BasisFunction
p11
(dp12
S'coefficientList'
p13
(lp14
F0.014031
aF0.086865999999999999
aF0.29021599999999997
aF0.50100800000000001
aF0.34340599999999999
asS'primitiveList'
p15
(lp16
(iBasisSets
PrimitiveFunction
p17
(dp18
S'exponent'
p19
F18.710000000000001
sS'angularMomentum'
p20
S'P'
p21
sba(iBasisSets
PrimitiveFunction
p22
(dp23
g19
F4.133
sg20
S'P'
p24
sba(iBasisSets
PrimitiveFunction
p25
(dp26
g19
F1.2
sg20
S'P'
p27
sba(iBasisSets
PrimitiveFunction
p28
(dp29
g19
F0.38269999999999998
sg20
S'P'
p30
sba(iBasisSets
PrimitiveFunction
p31
(dp32
g19
F0.12089999999999999
sg20
S'P'
p33
sbasg20
S'P'
p34
sba(iBasisSets
BasisFunction
p35
(dp36
g13
(lp37
F1.0
asg15
(lp38
(iBasisSets
PrimitiveFunction
p39
(dp40
g19
F0.38269999999999998
sg20
S'P'
p41
sbasg20
S'P'
p42
sba(iBasisSets
BasisFunction
p43
(dp44
g13
(lp45
F1.0
asg15
(lp46
(iBasisSets
PrimitiveFunction
p47
(dp48
g19
F0.12089999999999999
sg20
S'P'
p49
sbasg20
S'P'
p50
sbasS'S'
p51
(lp52
(iBasisSets
BasisFunction
p53
(dp54
g13
(lp55
F0.000531
aF0.0041079999999999997
aF0.021087000000000002
aF0.081852999999999995
aF0.234817
aF0.43440099999999998
aF0.34612900000000002
aF0.039378000000000003
aF-0.0089829999999999997
aF0.002385
asg15
(lp56
(iBasisSets
PrimitiveFunction
p57
(dp58
g19
F8236.0
sg20
S'S'
p59
sba(iBasisSets
PrimitiveFunction
p60
(dp61
g19
F1235.0
sg20
S'S'
p62
sba(iBasisSets
PrimitiveFunction
p63
(dp64
g19
F280.80000000000001
sg20
S'S'
p65
sba(iBasisSets
PrimitiveFunction
p66
(dp67
g19
F79.269999999999996
sg20
S'S'
p68
sba(iBasisSets
PrimitiveFunction
p69
(dp70
g19
F25.59
sg20
S'S'
p71
sba(iBasisSets
PrimitiveFunction
p72
(dp73
g19
F8.9969999999999999
sg20
S'S'
p74
sba(iBasisSets
PrimitiveFunction
p75
(dp76
g19
F3.319
sg20
S'S'
p77
sba(iBasisSets
PrimitiveFunction
p78
(dp79
g19
F0.90590000000000004
sg20
S'S'
p80
sba(iBasisSets
PrimitiveFunction
p81
(dp82
g19
F0.36430000000000001
sg20
S'S'
p83
sba(iBasisSets
PrimitiveFunction
p84
(dp85
g19
F0.1285
sg20
S'S'
p86
sbasg20
S'S'
p87
sba(iBasisSets
BasisFunction
p88
(dp89
g13
(lp90
F-0.000113
aF-0.00087799999999999998
aF-0.0045399999999999998
aF-0.018133
aF-0.055759999999999997
aF-0.12689500000000001
aF-0.170352
aF0.14038200000000001
aF0.59868399999999999
aF0.39538899999999999
asg15
(lp91
(iBasisSets
PrimitiveFunction
p92
(dp93
g19
F8236.0
sg20
S'S'
p94
sba(iBasisSets
PrimitiveFunction
p95
(dp96
g19
F1235.0
sg20
S'S'
p97
sba(iBasisSets
PrimitiveFunction
p98
(dp99
g19
F280.80000000000001
sg20
S'S'
p100
sba(iBasisSets
PrimitiveFunction
p101
(dp102
g19
F79.269999999999996
sg20
S'S'
p103
sba(iBasisSets
PrimitiveFunction
p104
(dp105
g19
F25.59
sg20
S'S'
p106
sba(iBasisSets
PrimitiveFunction
p107
(dp108
g19
F8.9969999999999999
sg20
S'S'
p109
sba(iBasisSets
PrimitiveFunction
p110
(dp111
g19
F3.319
sg20
S'S'
p112
sba(iBasisSets
PrimitiveFunction
p113
(dp114
g19
F0.90590000000000004
sg20
S'S'
p115
sba(iBasisSets
PrimitiveFunction
p116
(dp117
g19
F0.36430000000000001
sg20
S'S'
p118
sba(iBasisSets
PrimitiveFunction
p119
(dp120
g19
F0.1285
sg20
S'S'
p121
sbasg20
S'S'
p122
sba(iBasisSets
BasisFunction
p123
(dp124
g13
(lp125
F1.0
asg15
(lp126
(iBasisSets
PrimitiveFunction
p127
(dp128
g19
F0.90590000000000004
sg20
S'S'
p129
sbasg20
S'S'
p130
sba(iBasisSets
BasisFunction
p131
(dp132
g13
(lp133
F1.0
asg15
(lp134
(iBasisSets
PrimitiveFunction
p135
(dp136
g19
F0.1285
sg20
S'S'
p137
sbasg20
S'S'
p138
sbasS'D'
p139
(lp140
(iBasisSets
BasisFunction
p141
(dp142
g13
(lp143
F1.0
asg15
(lp144
(iBasisSets
PrimitiveFunction
p145
(dp146
g19
F1.097
sg20
S'D'
p147
sbasg20
S'D'
p148
sba(iBasisSets
BasisFunction
p149
(dp150
g13
(lp151
F1.0
asg15
(lp152
(iBasisSets
PrimitiveFunction
p153
(dp154
g19
F0.318
sg20
S'D'
p155
sbasg20
S'D'
p156
sbasS'F'
p157
(lp158
(iBasisSets
BasisFunction
p159
(dp160
g13
(lp161
F1.0
asg15
(lp162
(iBasisSets
PrimitiveFunction
p163
(dp164
g19
F0.76100000000000001
sg20
S'F'
p165
sbasg20
S'F'
p166
sbassbsS'B'
p167
(iBasisSets
AtomBasis
p168
(dp169
g7
(dp170
g9
(lp171
(iBasisSets
BasisFunction
p172
(dp173
g13
(lp174
F0.013117999999999999
aF0.079895999999999995
aF0.27727499999999999
aF0.50427
aF0.35367999999999999
asg15
(lp175
(iBasisSets
PrimitiveFunction
p176
(dp177
g19
F12.050000000000001
sg20
S'P'
p178
sba(iBasisSets
PrimitiveFunction
p179
(dp180
g19
F2.613
sg20
S'P'
p181
sba(iBasisSets
PrimitiveFunction
p182
(dp183
g19
F0.74750000000000005
sg20
S'P'
p184
sba(iBasisSets
PrimitiveFunction
p185
(dp186
g19
F0.23849999999999999
sg20
S'P'
p187
sba(iBasisSets
PrimitiveFunction
p188
(dp189
g19
F0.076980000000000007
sg20
S'P'
p190
sbasg20
S'P'
p191
sba(iBasisSets
BasisFunction
p192
(dp193
g13
(lp194
F1.0
asg15
(lp195
(iBasisSets
PrimitiveFunction
p196
(dp197
g19
F0.23849999999999999
sg20
S'P'
p198
sbasg20
S'P'
p199
sba(iBasisSets
BasisFunction
p200
(dp201
g13
(lp202
F1.0
asg15
(lp203
(iBasisSets
PrimitiveFunction
p204
(dp205
g19
F0.076980000000000007
sg20
S'P'
p206
sbasg20
S'P'
p207
sbasg51
(lp208
(iBasisSets
BasisFunction
p209
(dp210
g13
(lp211
F0.00055500000000000005
aF0.0042909999999999997
aF0.021949
aF0.084441000000000002
aF0.23855699999999999
aF0.43507200000000001
aF0.34195500000000001
aF0.036856
aF-0.0095449999999999997
aF0.0023679999999999999
asg15
(lp212
(iBasisSets
PrimitiveFunction
p213
(dp214
g19
F5473.0
sg20
S'S'
p215
sba(iBasisSets
PrimitiveFunction
p216
(dp217
g19
F820.89999999999998
sg20
S'S'
p218
sba(iBasisSets
PrimitiveFunction
p219
(dp220
g19
F186.80000000000001
sg20
S'S'
p221
sba(iBasisSets
PrimitiveFunction
p222
(dp223
g19
F52.829999999999998
sg20
S'S'
p224
sba(iBasisSets
PrimitiveFunction
p225
(dp226
g19
F17.079999999999998
sg20
S'S'
p227
sba(iBasisSets
PrimitiveFunction
p228
(dp229
g19
F5.9989999999999997
sg20
S'S'
p230
sba(iBasisSets
PrimitiveFunction
p231
(dp232
g19
F2.2080000000000002
sg20
S'S'
p233
sba(iBasisSets
PrimitiveFunction
p234
(dp235
g19
F0.58789999999999998
sg20
S'S'
p236
sba(iBasisSets
PrimitiveFunction
p237
(dp238
g19
F0.24149999999999999
sg20
S'S'
p239
sba(iBasisSets
PrimitiveFunction
p240
(dp241
g19
F0.086099999999999996
sg20
S'S'
p242
sbasg20
S'S'
p243
sba(iBasisSets
BasisFunction
p244
(dp245
g13
(lp246
F-0.000112
aF-0.00086799999999999996
aF-0.0044840000000000001
aF-0.017683000000000001
aF-0.053638999999999999
aF-0.119005
aF-0.165824
aF0.12010700000000001
aF0.59598099999999998
aF0.41102100000000003
asg15
(lp247
(iBasisSets
PrimitiveFunction
p248
(dp249
g19
F5473.0
sg20
S'S'
p250
sba(iBasisSets
PrimitiveFunction
p251
(dp252
g19
F820.89999999999998
sg20
S'S'
p253
sba(iBasisSets
PrimitiveFunction
p254
(dp255
g19
F186.80000000000001
sg20
S'S'
p256
sba(iBasisSets
PrimitiveFunction
p257
(dp258
g19
F52.829999999999998
sg20
S'S'
p259
sba(iBasisSets
PrimitiveFunction
p260
(dp261
g19
F17.079999999999998
sg20
S'S'
p262
sba(iBasisSets
PrimitiveFunction
p263
(dp264
g19
F5.9989999999999997
sg20
S'S'
p265
sba(iBasisSets
PrimitiveFunction
p266
(dp267
g19
F2.2080000000000002
sg20
S'S'
p268
sba(iBasisSets
PrimitiveFunction
p269
(dp270
g19
F0.58789999999999998
sg20
S'S'
p271
sba(iBasisSets
PrimitiveFunction
p272
(dp273
g19
F0.24149999999999999
sg20
S'S'
p274
sba(iBasisSets
PrimitiveFunction
p275
(dp276
g19
F0.086099999999999996
sg20
S'S'
p277
sbasg20
S'S'
p278
sba(iBasisSets
BasisFunction
p279
(dp280
g13
(lp281
F1.0
asg15
(lp282
(iBasisSets
PrimitiveFunction
p283
(dp284
g19
F0.58789999999999998
sg20
S'S'
p285
sbasg20
S'S'
p286
sba(iBasisSets
BasisFunction
p287
(dp288
g13
(lp289
F1.0
asg15
(lp290
(iBasisSets
PrimitiveFunction
p291
(dp292
g19
F0.086099999999999996
sg20
S'S'
p293
sbasg20
S'S'
p294
sbasg139
(lp295
(iBasisSets
BasisFunction
p296
(dp297
g13
(lp298
F1.0
asg15
(lp299
(iBasisSets
PrimitiveFunction
p300
(dp301
g19
F0.66100000000000003
sg20
S'D'
p302
sbasg20
S'D'
p303
sba(iBasisSets
BasisFunction
p304
(dp305
g13
(lp306
F1.0
asg15
(lp307
(iBasisSets
PrimitiveFunction
p308
(dp309
g19
F0.19900000000000001
sg20
S'D'
p310
sbasg20
S'D'
p311
sbasg157
(lp312
(iBasisSets
BasisFunction
p313
(dp314
g13
(lp315
F1.0
asg15
(lp316
(iBasisSets
PrimitiveFunction
p317
(dp318
g19
F0.48999999999999999
sg20
S'F'
p319
sbasg20
S'F'
p320
sbassbsg157
(iBasisSets
AtomBasis
p321
(dp322
g7
(dp323
g9
(lp324
(iBasisSets
BasisFunction
p325
(dp326
g13
(lp327
F0.016664999999999999
aF0.104472
aF0.31725999999999999
aF0.48734300000000003
aF0.33460400000000001
asg15
(lp328
(iBasisSets
PrimitiveFunction
p329
(dp330
g19
F43.880000000000003
sg20
S'P'
p331
sba(iBasisSets
PrimitiveFunction
p332
(dp333
g19
F9.9260000000000002
sg20
S'P'
p334
sba(iBasisSets
PrimitiveFunction
p335
(dp336
g19
F2.9300000000000002
sg20
S'P'
p337
sba(iBasisSets
PrimitiveFunction
p338
(dp339
g19
F0.91320000000000001
sg20
S'P'
p340
sba(iBasisSets
PrimitiveFunction
p341
(dp342
g19
F0.26719999999999999
sg20
S'P'
p343
sbasg20
S'P'
p344
sba(iBasisSets
BasisFunction
p345
(dp346
g13
(lp347
F1.0
asg15
(lp348
(iBasisSets
PrimitiveFunction
p349
(dp350
g19
F0.91320000000000001
sg20
S'P'
p351
sbasg20
S'P'
p352
sba(iBasisSets
BasisFunction
p353
(dp354
g13
(lp355
F1.0
asg15
(lp356
(iBasisSets
PrimitiveFunction
p357
(dp358
g19
F0.26719999999999999
sg20
S'P'
p359
sbasg20
S'P'
p360
sbasg51
(lp361
(iBasisSets
BasisFunction
p362
(dp363
g13
(lp364
F0.00050699999999999996
aF0.0039230000000000003
aF0.020199999999999999
aF0.079009999999999997
aF0.230439
aF0.43287199999999998
aF0.349964
aF0.043233000000000001
aF-0.0078919999999999997
aF0.0023839999999999998
asg15
(lp365
(iBasisSets
PrimitiveFunction
p366
(dp367
g19
F19500.0
sg20
S'S'
p368
sba(iBasisSets
PrimitiveFunction
p369
(dp370
g19
F2923.0
sg20
S'S'
p371
sba(iBasisSets
PrimitiveFunction
p372
(dp373
g19
F664.5
sg20
S'S'
p374
sba(iBasisSets
PrimitiveFunction
p375
(dp376
g19
F187.5
sg20
S'S'
p377
sba(iBasisSets
PrimitiveFunction
p378
(dp379
g19
F60.619999999999997
sg20
S'S'
p380
sba(iBasisSets
PrimitiveFunction
p381
(dp382
g19
F21.420000000000002
sg20
S'S'
p383
sba(iBasisSets
PrimitiveFunction
p384
(dp385
g19
F7.9500000000000002
sg20
S'S'
p386
sba(iBasisSets
PrimitiveFunction
p387
(dp388
g19
F2.2570000000000001
sg20
S'S'
p389
sba(iBasisSets
PrimitiveFunction
p390
(dp391
g19
F0.88149999999999995
sg20
S'S'
p392
sba(iBasisSets
PrimitiveFunction
p393
(dp394
g19
F0.30409999999999998
sg20
S'S'
p395
sbasg20
S'S'
p396
sba(iBasisSets
BasisFunction
p397
(dp398
g13
(lp399
F-0.000117
aF-0.00091200000000000005
aF-0.0047169999999999998
aF-0.019085999999999999
aF-0.059655
aF-0.14001
aF-0.17678199999999999
aF0.171625
aF0.605043
aF0.36951200000000001
asg15
(lp400
(iBasisSets
PrimitiveFunction
p401
(dp402
g19
F19500.0
sg20
S'S'
p403
sba(iBasisSets
PrimitiveFunction
p404
(dp405
g19
F2923.0
sg20
S'S'
p406
sba(iBasisSets
PrimitiveFunction
p407
(dp408
g19
F664.5
sg20
S'S'
p409
sba(iBasisSets
PrimitiveFunction
p410
(dp411
g19
F187.5
sg20
S'S'
p412
sba(iBasisSets
PrimitiveFunction
p413
(dp414
g19
F60.619999999999997
sg20
S'S'
p415
sba(iBasisSets
PrimitiveFunction
p416
(dp417
g19
F21.420000000000002
sg20
S'S'
p418
sba(iBasisSets
PrimitiveFunction
p419
(dp420
g19
F7.9500000000000002
sg20
S'S'
p421
sba(iBasisSets
PrimitiveFunction
p422
(dp423
g19
F2.2570000000000001
sg20
S'S'
p424
sba(iBasisSets
PrimitiveFunction
p425
(dp426
g19
F0.88149999999999995
sg20
S'S'
p427
sba(iBasisSets
PrimitiveFunction
p428
(dp429
g19
F0.30409999999999998
sg20
S'S'
p430
sbasg20
S'S'
p431
sba(iBasisSets
BasisFunction
p432
(dp433
g13
(lp434
F1.0
asg15
(lp435
(iBasisSets
PrimitiveFunction
p436
(dp437
g19
F2.2570000000000001
sg20
S'S'
p438
sbasg20
S'S'
p439
sba(iBasisSets
BasisFunction
p440
(dp441
g13
(lp442
F1.0
asg15
(lp443
(iBasisSets
PrimitiveFunction
p444
(dp445
g19
F0.30409999999999998
sg20
S'S'
p446
sbasg20
S'S'
p447
sbasg139
(lp448
(iBasisSets
BasisFunction
p449
(dp450
g13
(lp451
F1.0
asg15
(lp452
(iBasisSets
PrimitiveFunction
p453
(dp454
g19
F3.1070000000000002
sg20
S'D'
p455
sbasg20
S'D'
p456
sba(iBasisSets
BasisFunction
p457
(dp458
g13
(lp459
F1.0
asg15
(lp460
(iBasisSets
PrimitiveFunction
p461
(dp462
g19
F0.85499999999999998
sg20
S'D'
p463
sbasg20
S'D'
p464
sbasg157
(lp465
(iBasisSets
BasisFunction
p466
(dp467
g13
(lp468
F1.0
asg15
(lp469
(iBasisSets
PrimitiveFunction
p470
(dp471
g19
F1.917
sg20
S'F'
p472
sbasg20
S'F'
p473
sbassbsS'H'
p474
(iBasisSets
AtomBasis
p475
(dp476
g7
(dp477
g9
(lp478
(iBasisSets
BasisFunction
p479
(dp480
g13
(lp481
F1.0
asg15
(lp482
(iBasisSets
PrimitiveFunction
p483
(dp484
g19
F1.407
sg20
S'P'
p485
sbasg20
S'P'
p486
sba(iBasisSets
BasisFunction
p487
(dp488
g13
(lp489
F1.0
asg15
(lp490
(iBasisSets
PrimitiveFunction
p491
(dp492
g19
F0.38800000000000001
sg20
S'P'
p493
sbasg20
S'P'
p494
sbasg51
(lp495
(iBasisSets
BasisFunction
p496
(dp497
g13
(lp498
F0.0060679999999999996
aF0.045308000000000001
aF0.202822
aF0.50390299999999999
aF0.38342100000000001
asg15
(lp499
(iBasisSets
PrimitiveFunction
p500
(dp501
g19
F33.869999999999997
sg20
S'S'
p502
sba(iBasisSets
PrimitiveFunction
p503
(dp504
g19
F5.0949999999999998
sg20
S'S'
p505
sba(iBasisSets
PrimitiveFunction
p506
(dp507
g19
F1.159
sg20
S'S'
p508
sba(iBasisSets
PrimitiveFunction
p509
(dp510
g19
F0.32579999999999998
sg20
S'S'
p511
sba(iBasisSets
PrimitiveFunction
p512
(dp513
g19
F0.1027
sg20
S'S'
p514
sbasg20
S'S'
p515
sba(iBasisSets
BasisFunction
p516
(dp517
g13
(lp518
F1.0
asg15
(lp519
(iBasisSets
PrimitiveFunction
p520
(dp521
g19
F0.32579999999999998
sg20
S'S'
p522
sbasg20
S'S'
p523
sba(iBasisSets
BasisFunction
p524
(dp525
g13
(lp526
F1.0
asg15
(lp527
(iBasisSets
PrimitiveFunction
p528
(dp529
g19
F0.1027
sg20
S'S'
p530
sbasg20
S'S'
p531
sbasg139
(lp532
(iBasisSets
BasisFunction
p533
(dp534
g13
(lp535
F1.0
asg15
(lp536
(iBasisSets
PrimitiveFunction
p537
(dp538
g19
F1.0569999999999999
sg20
S'D'
p539
sbasg20
S'D'
p540
sbassbsS'NE'
p541
(iBasisSets
AtomBasis
p542
(dp543
g7
(dp544
g9
(lp545
(iBasisSets
BasisFunction
p546
(dp547
g13
(lp548
F0.017151
aF0.107656
aF0.32168099999999999
aF0.485232
aF0.33258399999999999
asg15
(lp549
(iBasisSets
PrimitiveFunction
p550
(dp551
g19
F54.700000000000003
sg20
S'P'
p552
sba(iBasisSets
PrimitiveFunction
p553
(dp554
g19
F12.43
sg20
S'P'
p555
sba(iBasisSets
PrimitiveFunction
p556
(dp557
g19
F3.6789999999999998
sg20
S'P'
p558
sba(iBasisSets
PrimitiveFunction
p559
(dp560
g19
F1.143
sg20
S'P'
p561
sba(iBasisSets
PrimitiveFunction
p562
(dp563
g19
F0.33000000000000002
sg20
S'P'
p564
sbasg20
S'P'
p565
sba(iBasisSets
BasisFunction
p566
(dp567
g13
(lp568
F1.0
asg15
(lp569
(iBasisSets
PrimitiveFunction
p570
(dp571
g19
F1.143
sg20
S'P'
p572
sbasg20
S'P'
p573
sba(iBasisSets
BasisFunction
p574
(dp575
g13
(lp576
F1.0
asg15
(lp577
(iBasisSets
PrimitiveFunction
p578
(dp579
g19
F0.33000000000000002
sg20
S'P'
p580
sbasg20
S'P'
p581
sbasg51
(lp582
(iBasisSets
BasisFunction
p583
(dp584
g13
(lp585
F0.00050199999999999995
aF0.0038809999999999999
aF0.019997000000000001
aF0.078418000000000002
aF0.22967599999999999
aF0.432722
aF0.35064200000000001
aF0.043910999999999999
aF-0.0076449999999999999
aF0.0023749999999999999
asg15
(lp586
(iBasisSets
PrimitiveFunction
p587
(dp588
g19
F24350.0
sg20
S'S'
p589
sba(iBasisSets
PrimitiveFunction
p590
(dp591
g19
F3650.0
sg20
S'S'
p592
sba(iBasisSets
PrimitiveFunction
p593
(dp594
g19
F829.60000000000002
sg20
S'S'
p595
sba(iBasisSets
PrimitiveFunction
p596
(dp597
g19
F234.0
sg20
S'S'
p598
sba(iBasisSets
PrimitiveFunction
p599
(dp600
g19
F75.609999999999999
sg20
S'S'
p601
sba(iBasisSets
PrimitiveFunction
p602
(dp603
g19
F26.73
sg20
S'S'
p604
sba(iBasisSets
PrimitiveFunction
p605
(dp606
g19
F9.9269999999999996
sg20
S'S'
p607
sba(iBasisSets
PrimitiveFunction
p608
(dp609
g19
F2.8359999999999999
sg20
S'S'
p610
sba(iBasisSets
PrimitiveFunction
p611
(dp612
g19
F1.1020000000000001
sg20
S'S'
p613
sba(iBasisSets
PrimitiveFunction
p614
(dp615
g19
F0.37819999999999998
sg20
S'S'
p616
sbasg20
S'S'
p617
sba(iBasisSets
BasisFunction
p618
(dp619
g13
(lp620
F-0.000118
aF-0.00091500000000000001
aF-0.0047369999999999999
aF-0.019233
aF-0.060368999999999999
aF-0.142508
aF-0.17771000000000001
aF0.17735200000000001
aF0.60583600000000004
aF0.36510900000000002
asg15
(lp621
(iBasisSets
PrimitiveFunction
p622
(dp623
g19
F24350.0
sg20
S'S'
p624
sba(iBasisSets
PrimitiveFunction
p625
(dp626
g19
F3650.0
sg20
S'S'
p627
sba(iBasisSets
PrimitiveFunction
p628
(dp629
g19
F829.60000000000002
sg20
S'S'
p630
sba(iBasisSets
PrimitiveFunction
p631
(dp632
g19
F234.0
sg20
S'S'
p633
sba(iBasisSets
PrimitiveFunction
p634
(dp635
g19
F75.609999999999999
sg20
S'S'
p636
sba(iBasisSets
PrimitiveFunction
p637
(dp638
g19
F26.73
sg20
S'S'
p639
sba(iBasisSets
PrimitiveFunction
p640
(dp641
g19
F9.9269999999999996
sg20
S'S'
p642
sba(iBasisSets
PrimitiveFunction
p643
(dp644
g19
F2.8359999999999999
sg20
S'S'
p645
sba(iBasisSets
PrimitiveFunction
p646
(dp647
g19
F1.1020000000000001
sg20
S'S'
p648
sba(iBasisSets
PrimitiveFunction
p649
(dp650
g19
F0.37819999999999998
sg20
S'S'
p651
sbasg20
S'S'
p652
sba(iBasisSets
BasisFunction
p653
(dp654
g13
(lp655
F1.0
asg15
(lp656
(iBasisSets
PrimitiveFunction
p657
(dp658
g19
F2.8359999999999999
sg20
S'S'
p659
sbasg20
S'S'
p660
sba(iBasisSets
BasisFunction
p661
(dp662
g13
(lp663
F1.0
asg15
(lp664
(iBasisSets
PrimitiveFunction
p665
(dp666
g19
F0.37819999999999998
sg20
S'S'
p667
sbasg20
S'S'
p668
sbasg139
(lp669
(iBasisSets
BasisFunction
p670
(dp671
g13
(lp672
F1.0
asg15
(lp673
(iBasisSets
PrimitiveFunction
p674
(dp675
g19
F4.0140000000000002
sg20
S'D'
p676
sbasg20
S'D'
p677
sba(iBasisSets
BasisFunction
p678
(dp679
g13
(lp680
F1.0
asg15
(lp681
(iBasisSets
PrimitiveFunction
p682
(dp683
g19
F1.0960000000000001
sg20
S'D'
p684
sbasg20
S'D'
p685
sbasg157
(lp686
(iBasisSets
BasisFunction
p687
(dp688
g13
(lp689
F1.0
asg15
(lp690
(iBasisSets
PrimitiveFunction
p691
(dp692
g19
F2.544
sg20
S'F'
p693
sbasg20
S'F'
p694
sbassbsS'O'
p695
(iBasisSets
AtomBasis
p696
(dp697
g7
(dp698
g9
(lp699
(iBasisSets
BasisFunction
p700
(dp701
g13
(lp702
F0.015928000000000001
aF0.099739999999999995
aF0.31049199999999999
aF0.49102600000000002
aF0.336337
asg15
(lp703
(iBasisSets
PrimitiveFunction
p704
(dp705
g19
F34.460000000000001
sg20
S'P'
p706
sba(iBasisSets
PrimitiveFunction
p707
(dp708
g19
F7.7489999999999997
sg20
S'P'
p709
sba(iBasisSets
PrimitiveFunction
p710
(dp711
g19
F2.2799999999999998
sg20
S'P'
p712
sba(iBasisSets
PrimitiveFunction
p713
(dp714
g19
F0.71560000000000001
sg20
S'P'
p715
sba(iBasisSets
PrimitiveFunction
p716
(dp717
g19
F0.214
sg20
S'P'
p718
sbasg20
S'P'
p719
sba(iBasisSets
BasisFunction
p720
(dp721
g13
(lp722
F1.0
asg15
(lp723
(iBasisSets
PrimitiveFunction
p724
(dp725
g19
F0.71560000000000001
sg20
S'P'
p726
sbasg20
S'P'
p727
sba(iBasisSets
BasisFunction
p728
(dp729
g13
(lp730
F1.0
asg15
(lp731
(iBasisSets
PrimitiveFunction
p732
(dp733
g19
F0.214
sg20
S'P'
p734
sbasg20
S'P'
p735
sbasg51
(lp736
(iBasisSets
BasisFunction
p737
(dp738
g13
(lp739
F0.00050799999999999999
aF0.0039290000000000002
aF0.020243000000000001
aF0.079181000000000001
aF0.230687
aF0.433118
aF0.35026000000000002
aF0.042728000000000002
aF-0.0081539999999999998
aF0.0023809999999999999
asg15
(lp740
(iBasisSets
PrimitiveFunction
p741
(dp742
g19
F15330.0
sg20
S'S'
p743
sba(iBasisSets
PrimitiveFunction
p744
(dp745
g19
F2299.0
sg20
S'S'
p746
sba(iBasisSets
PrimitiveFunction
p747
(dp748
g19
F522.39999999999998
sg20
S'S'
p749
sba(iBasisSets
PrimitiveFunction
p750
(dp751
g19
F147.30000000000001
sg20
S'S'
p752
sba(iBasisSets
PrimitiveFunction
p753
(dp754
g19
F47.549999999999997
sg20
S'S'
p755
sba(iBasisSets
PrimitiveFunction
p756
(dp757
g19
F16.760000000000002
sg20
S'S'
p758
sba(iBasisSets
PrimitiveFunction
p759
(dp760
g19
F6.2069999999999999
sg20
S'S'
p761
sba(iBasisSets
PrimitiveFunction
p762
(dp763
g19
F1.752
sg20
S'S'
p764
sba(iBasisSets
PrimitiveFunction
p765
(dp766
g19
F0.68820000000000003
sg20
S'S'
p767
sba(iBasisSets
PrimitiveFunction
p768
(dp769
g19
F0.2384
sg20
S'S'
p770
sbasg20
S'S'
p771
sba(iBasisSets
BasisFunction
p772
(dp773
g13
(lp774
F-0.000115
aF-0.00089499999999999996
aF-0.0046360000000000004
aF-0.018724000000000001
aF-0.058463000000000001
aF-0.136463
aF-0.17574000000000001
aF0.16093399999999999
aF0.60341800000000001
aF0.37876500000000002
asg15
(lp775
(iBasisSets
PrimitiveFunction
p776
(dp777
g19
F15330.0
sg20
S'S'
p778
sba(iBasisSets
PrimitiveFunction
p779
(dp780
g19
F2299.0
sg20
S'S'
p781
sba(iBasisSets
PrimitiveFunction
p782
(dp783
g19
F522.39999999999998
sg20
S'S'
p784
sba(iBasisSets
PrimitiveFunction
p785
(dp786
g19
F147.30000000000001
sg20
S'S'
p787
sba(iBasisSets
PrimitiveFunction
p788
(dp789
g19
F47.549999999999997
sg20
S'S'
p790
sba(iBasisSets
PrimitiveFunction
p791
(dp792
g19
F16.760000000000002
sg20
S'S'
p793
sba(iBasisSets
PrimitiveFunction
p794
(dp795
g19
F6.2069999999999999
sg20
S'S'
p796
sba(iBasisSets
PrimitiveFunction
p797
(dp798
g19
F1.752
sg20
S'S'
p799
sba(iBasisSets
PrimitiveFunction
p800
(dp801
g19
F0.68820000000000003
sg20
S'S'
p802
sba(iBasisSets
PrimitiveFunction
p803
(dp804
g19
F0.2384
sg20
S'S'
p805
sbasg20
S'S'
p806
sba(iBasisSets
BasisFunction
p807
(dp808
g13
(lp809
F1.0
asg15
(lp810
(iBasisSets
PrimitiveFunction
p811
(dp812
g19
F1.752
sg20
S'S'
p813
sbasg20
S'S'
p814
sba(iBasisSets
BasisFunction
p815
(dp816
g13
(lp817
F1.0
asg15
(lp818
(iBasisSets
PrimitiveFunction
p819
(dp820
g19
F0.2384
sg20
S'S'
p821
sbasg20
S'S'
p822
sbasg139
(lp823
(iBasisSets
BasisFunction
p824
(dp825
g13
(lp826
F1.0
asg15
(lp827
(iBasisSets
PrimitiveFunction
p828
(dp829
g19
F2.3140000000000001
sg20
S'D'
p830
sbasg20
S'D'
p831
sba(iBasisSets
BasisFunction
p832
(dp833
g13
(lp834
F1.0
asg15
(lp835
(iBasisSets
PrimitiveFunction
p836
(dp837
g19
F0.64500000000000002
sg20
S'D'
p838
sbasg20
S'D'
p839
sbasg157
(lp840
(iBasisSets
BasisFunction
p841
(dp842
g13
(lp843
F1.0
asg15
(lp844
(iBasisSets
PrimitiveFunction
p845
(dp846
g19
F1.4279999999999999
sg20
S'F'
p847
sbasg20
S'F'
p848
sbassbsS'N'
p849
(iBasisSets
AtomBasis
p850
(dp851
g7
(dp852
g9
(lp853
(iBasisSets
BasisFunction
p854
(dp855
g13
(lp856
F0.014670000000000001
aF0.091763999999999998
aF0.29868299999999998
aF0.49848700000000001
aF0.33702300000000002
asg15
(lp857
(iBasisSets
PrimitiveFunction
p858
(dp859
g19
F26.629999999999999
sg20
S'P'
p860
sba(iBasisSets
PrimitiveFunction
p861
(dp862
g19
F5.9480000000000004
sg20
S'P'
p863
sba(iBasisSets
PrimitiveFunction
p864
(dp865
g19
F1.742
sg20
S'P'
p866
sba(iBasisSets
PrimitiveFunction
p867
(dp868
g19
F0.55500000000000005
sg20
S'P'
p869
sba(iBasisSets
PrimitiveFunction
p870
(dp871
g19
F0.17249999999999999
sg20
S'P'
p872
sbasg20
S'P'
p873
sba(iBasisSets
BasisFunction
p874
(dp875
g13
(lp876
F1.0
asg15
(lp877
(iBasisSets
PrimitiveFunction
p878
(dp879
g19
F0.55500000000000005
sg20
S'P'
p880
sbasg20
S'P'
p881
sba(iBasisSets
BasisFunction
p882
(dp883
g13
(lp884
F1.0
asg15
(lp885
(iBasisSets
PrimitiveFunction
p886
(dp887
g19
F0.17249999999999999
sg20
S'P'
p888
sbasg20
S'P'
p889
sbasg51
(lp890
(iBasisSets
BasisFunction
p891
(dp892
g13
(lp893
F0.00052300000000000003
aF0.004045
aF0.020774999999999998
aF0.080726999999999993
aF0.233074
aF0.43350100000000003
aF0.347472
aF0.041262
aF-0.0085079999999999999
aF0.0023839999999999998
asg15
(lp894
(iBasisSets
PrimitiveFunction
p895
(dp896
g19
F11420.0
sg20
S'S'
p897
sba(iBasisSets
PrimitiveFunction
p898
(dp899
g19
F1712.0
sg20
S'S'
p900
sba(iBasisSets
PrimitiveFunction
p901
(dp902
g19
F389.30000000000001
sg20
S'S'
p903
sba(iBasisSets
PrimitiveFunction
p904
(dp905
g19
F110.0
sg20
S'S'
p906
sba(iBasisSets
PrimitiveFunction
p907
(dp908
g19
F35.57
sg20
S'S'
p909
sba(iBasisSets
PrimitiveFunction
p910
(dp911
g19
F12.539999999999999
sg20
S'S'
p912
sba(iBasisSets
PrimitiveFunction
p913
(dp914
g19
F4.6440000000000001
sg20
S'S'
p915
sba(iBasisSets
PrimitiveFunction
p916
(dp917
g19
F1.2929999999999999
sg20
S'S'
p918
sba(iBasisSets
PrimitiveFunction
p919
(dp920
g19
F0.51180000000000003
sg20
S'S'
p921
sba(iBasisSets
PrimitiveFunction
p922
(dp923
g19
F0.1787
sg20
S'S'
p924
sbasg20
S'S'
p925
sba(iBasisSets
BasisFunction
p926
(dp927
g13
(lp928
F-0.000115
aF-0.00089499999999999996
aF-0.0046239999999999996
aF-0.018527999999999999
aF-0.057339000000000001
aF-0.132076
aF-0.17251
aF0.151814
aF0.59994400000000003
aF0.38746199999999997
asg15
(lp929
(iBasisSets
PrimitiveFunction
p930
(dp931
g19
F11420.0
sg20
S'S'
p932
sba(iBasisSets
PrimitiveFunction
p933
(dp934
g19
F1712.0
sg20
S'S'
p935
sba(iBasisSets
PrimitiveFunction
p936
(dp937
g19
F389.30000000000001
sg20
S'S'
p938
sba(iBasisSets
PrimitiveFunction
p939
(dp940
g19
F110.0
sg20
S'S'
p941
sba(iBasisSets
PrimitiveFunction
p942
(dp943
g19
F35.57
sg20
S'S'
p944
sba(iBasisSets
PrimitiveFunction
p945
(dp946
g19
F12.539999999999999
sg20
S'S'
p947
sba(iBasisSets
PrimitiveFunction
p948
(dp949
g19
F4.6440000000000001
sg20
S'S'
p950
sba(iBasisSets
PrimitiveFunction
p951
(dp952
g19
F1.2929999999999999
sg20
S'S'
p953
sba(iBasisSets
PrimitiveFunction
p954
(dp955
g19
F0.51180000000000003
sg20
S'S'
p956
sba(iBasisSets
PrimitiveFunction
p957
(dp958
g19
F0.1787
sg20
S'S'
p959
sbasg20
S'S'
p960
sba(iBasisSets
BasisFunction
p961
(dp962
g13
(lp963
F1.0
asg15
(lp964
(iBasisSets
PrimitiveFunction
p965
(dp966
g19
F1.2929999999999999
sg20
S'S'
p967
sbasg20
S'S'
p968
sba(iBasisSets
BasisFunction
p969
(dp970
g13
(lp971
F1.0
asg15
(lp972
(iBasisSets
PrimitiveFunction
p973
(dp974
g19
F0.1787
sg20
S'S'
p975
sbasg20
S'S'
p976
sbasg139
(lp977
(iBasisSets
BasisFunction
p978
(dp979
g13
(lp980
F1.0
asg15
(lp981
(iBasisSets
PrimitiveFunction
p982
(dp983
g19
F1.6539999999999999
sg20
S'D'
p984
sbasg20
S'D'
p985
sba(iBasisSets
BasisFunction
p986
(dp987
g13
(lp988
F1.0
asg15
(lp989
(iBasisSets
PrimitiveFunction
p990
(dp991
g19
F0.46899999999999997
sg20
S'D'
p992
sbasg20
S'D'
p993
sbasg157
(lp994
(iBasisSets
BasisFunction
p995
(dp996
g13
(lp997
F1.0
asg15
(lp998
(iBasisSets
PrimitiveFunction
p999
(dp1000
g19
F1.093
sg20
S'F'
p1001
sbasg20
S'F'
p1002
sbassbsS'HE'
p1003
(iBasisSets
AtomBasis
p1004
(dp1005
g7
(dp1006
g9
(lp1007
(iBasisSets
BasisFunction
p1008
(dp1009
g13
(lp1010
F1.0
asg15
(lp1011
(iBasisSets
PrimitiveFunction
p1012
(dp1013
g19
F3.044
sg20
S'P'
p1014
sbasg20
S'P'
p1015
sba(iBasisSets
BasisFunction
p1016
(dp1017
g13
(lp1018
F1.0
asg15
(lp1019
(iBasisSets
PrimitiveFunction
p1020
(dp1021
g19
F0.75800000000000001
sg20
S'P'
p1022
sbasg20
S'P'
p1023
sbasg51
(lp1024
(iBasisSets
BasisFunction
p1025
(dp1026
g13
(lp1027
F0.0025869999999999999
aF0.019532999999999998
aF0.090997999999999996
aF0.27205000000000001
aF0.47806500000000002
aF0.30773699999999998
asg15
(lp1028
(iBasisSets
PrimitiveFunction
p1029
(dp1030
g19
F234.0
sg20
S'S'
p1031
sba(iBasisSets
PrimitiveFunction
p1032
(dp1033
g19
F35.159999999999997
sg20
S'S'
p1034
sba(iBasisSets
PrimitiveFunction
p1035
(dp1036
g19
F7.9889999999999999
sg20
S'S'
p1037
sba(iBasisSets
PrimitiveFunction
p1038
(dp1039
g19
F2.2120000000000002
sg20
S'S'
p1040
sba(iBasisSets
PrimitiveFunction
p1041
(dp1042
g19
F0.66690000000000005
sg20
S'S'
p1043
sba(iBasisSets
PrimitiveFunction
p1044
(dp1045
g19
F0.2089
sg20
S'S'
p1046
sbasg20
S'S'
p1047
sba(iBasisSets
BasisFunction
p1048
(dp1049
g13
(lp1050
F1.0
asg15
(lp1051
(iBasisSets
PrimitiveFunction
p1052
(dp1053
g19
F0.66690000000000005
sg20
S'S'
p1054
sbasg20
S'S'
p1055
sba(iBasisSets
BasisFunction
p1056
(dp1057
g13
(lp1058
F1.0
asg15
(lp1059
(iBasisSets
PrimitiveFunction
p1060
(dp1061
g19
F0.2089
sg20
S'S'
p1062
sbasg20
S'S'
p1063
sbasg139
(lp1064
(iBasisSets
BasisFunction
p1065
(dp1066
g13
(lp1067
F1.0
asg15
(lp1068
(iBasisSets
PrimitiveFunction
p1069
(dp1070
g19
F1.9650000000000001
sg20
S'D'
p1071
sbasg20
S'D'
p1072
sbassbssb.